0000: 0015                NOOP
0001: 0015                NOOP
0002: 0013 0057           OUT W
0004: 0013 0065           OUT e
0006: 0013 006C           OUT l
0008: 0013 0063           OUT c
000A: 0013 006F           OUT o
000C: 0013 006D           OUT m
000E: 0013 0065           OUT e
0010: 0013 0020           OUT  
0012: 0013 0074           OUT t
0014: 0013 006F           OUT o
0016: 0013 0020           OUT  
0018: 0013 0074           OUT t
001A: 0013 0068           OUT h
001C: 0013 0065           OUT e
001E: 0013 0020           OUT  
0020: 0013 0053           OUT S
0022: 0013 0079           OUT y
0024: 0013 006E           OUT n
0026: 0013 0061           OUT a
0028: 0013 0063           OUT c
002A: 0013 006F           OUT o
002C: 0013 0072           OUT r
002E: 0013 0020           OUT  
0030: 0013 0043           OUT C
0032: 0013 0068           OUT h
0034: 0013 0061           OUT a
0036: 0013 006C           OUT l
0038: 0013 006C           OUT l
003A: 0013 0065           OUT e
003C: 0013 006E           OUT n
003E: 0013 0067           OUT g
0040: 0013 0065           OUT e
0042: 0013 0021           OUT !
0044: 0013 000A           OUT '\n'
0046: 0013 0050           OUT P
0048: 0013 006C           OUT l
004A: 0013 0065           OUT e
004C: 0013 0061           OUT a
004E: 0013 0073           OUT s
0050: 0013 0065           OUT e
0052: 0013 0020           OUT  
0054: 0013 0072           OUT r
0056: 0013 0065           OUT e
0058: 0013 0063           OUT c
005A: 0013 006F           OUT o
005C: 0013 0072           OUT r
005E: 0013 0064           OUT d
0060: 0013 0020           OUT  
0062: 0013 0079           OUT y
0064: 0013 006F           OUT o
0066: 0013 0075           OUT u
0068: 0013 0072           OUT r
006A: 0013 0020           OUT  
006C: 0013 0070           OUT p
006E: 0013 0072           OUT r
0070: 0013 006F           OUT o
0072: 0013 0067           OUT g
0074: 0013 0072           OUT r
0076: 0013 0065           OUT e
0078: 0013 0073           OUT s
007A: 0013 0073           OUT s
007C: 0013 0020           OUT  
007E: 0013 0062           OUT b
0080: 0013 0079           OUT y
0082: 0013 0020           OUT  
0084: 0013 0070           OUT p
0086: 0013 0075           OUT u
0088: 0013 0074           OUT t
008A: 0013 0074           OUT t
008C: 0013 0069           OUT i
008E: 0013 006E           OUT n
0090: 0013 0067           OUT g
0092: 0013 0020           OUT  
0094: 0013 0063           OUT c
0096: 0013 006F           OUT o
0098: 0013 0064           OUT d
009A: 0013 0065           OUT e
009C: 0013 0073           OUT s
009E: 0013 0020           OUT  
00A0: 0013 006C           OUT l
00A2: 0013 0069           OUT i
00A4: 0013 006B           OUT k
00A6: 0013 0065           OUT e
00A8: 0013 000A           OUT '\n'
00AA: 0013 0074           OUT t
00AC: 0013 0068           OUT h
00AE: 0013 0069           OUT i
00B0: 0013 0073           OUT s
00B2: 0013 0020           OUT  
00B4: 0013 006F           OUT o
00B6: 0013 006E           OUT n
00B8: 0013 0065           OUT e
00BA: 0013 0020           OUT  
00BC: 0013 0069           OUT i
00BE: 0013 006E           OUT n
00C0: 0013 0074           OUT t
00C2: 0013 006F           OUT o
00C4: 0013 0020           OUT  
00C6: 0013 0074           OUT t
00C8: 0013 0068           OUT h
00CA: 0013 0065           OUT e
00CC: 0013 0020           OUT  
00CE: 0013 0063           OUT c
00D0: 0013 0068           OUT h
00D2: 0013 0061           OUT a
00D4: 0013 006C           OUT l
00D6: 0013 006C           OUT l
00D8: 0013 0065           OUT e
00DA: 0013 006E           OUT n
00DC: 0013 0067           OUT g
00DE: 0013 0065           OUT e
00E0: 0013 0020           OUT  
00E2: 0013 0077           OUT w
00E4: 0013 0065           OUT e
00E6: 0013 0062           OUT b
00E8: 0013 0073           OUT s
00EA: 0013 0069           OUT i
00EC: 0013 0074           OUT t
00EE: 0013 0065           OUT e
00F0: 0013 003A           OUT :
00F2: 0013 0020           OUT  
00F4: 0013 0078           OUT x
00F6: 0013 0042           OUT B
00F8: 0013 004B           OUT K
00FA: 0013 0053           OUT S
00FC: 0013 0065           OUT e
00FE: 0013 0066           OUT f
0100: 0013 0044           OUT D
0102: 0013 0050           OUT P
0104: 0013 004D           OUT M
0106: 0013 0073           OUT s
0108: 0013 004D           OUT M
010A: 0013 0042           OUT B
010C: 0013 000A           OUT '\n'
010E: 0013 000A           OUT '\n'
0110: 0013 0045           OUT E
0112: 0013 0078           OUT x
0114: 0013 0065           OUT e
0116: 0013 0063           OUT c
0118: 0013 0075           OUT u
011A: 0013 0074           OUT t
011C: 0013 0069           OUT i
011E: 0013 006E           OUT n
0120: 0013 0067           OUT g
0122: 0013 0020           OUT  
0124: 0013 0073           OUT s
0126: 0013 0065           OUT e
0128: 0013 006C           OUT l
012A: 0013 0066           OUT f
012C: 0013 002D           OUT -
012E: 0013 0074           OUT t
0130: 0013 0065           OUT e
0132: 0013 0073           OUT s
0134: 0013 0074           OUT t
0136: 0013 002E           OUT .
0138: 0013 002E           OUT .
013A: 0013 002E           OUT .
013C: 0013 000A           OUT '\n'
013E: 0013 000A           OUT '\n'
0140: 0006 015B           JMP 015B
0142: 0013 006A           OUT j
0144: 0013 006D           OUT m
0146: 0013 0070           OUT p
0148: 0013 0020           OUT  
014A: 0013 0066           OUT f
014C: 0013 0061           OUT a
014E: 0013 0069           OUT i
0150: 0013 006C           OUT l
0152: 0013 0073           OUT s
0154: 0013 000A           OUT '\n'
0156: 0000                HLT
0157: 0015                NOOP
0158: 0015                NOOP
0159: 0015                NOOP
015A: 0015                NOOP
015B: 0015                NOOP
015C: 0015                NOOP
015D: 0015                NOOP
015E: 0015                NOOP
015F: 0015                NOOP
0160: 0006 0166           JMP 0166
0162: 0006 0170           JMP 0170
0164: 0006 018D           JMP 018D
0166: 0006 01E4           JMP 01E4
0168: 0006 01A8           JMP 01A8
016A: 0006 01C5           JMP 01C5
016C: 0015                NOOP
016D: 0015                NOOP
016E: 0015                NOOP
016F: 0015                NOOP
0170: 0013 006A           OUT j
0172: 0013 006D           OUT m
0174: 0013 0070           OUT p
0176: 0013 0020           OUT  
0178: 0013 006C           OUT l
017A: 0013 0061           OUT a
017C: 0013 006E           OUT n
017E: 0013 0064           OUT d
0180: 0013 0073           OUT s
0182: 0013 0020           OUT  
0184: 0013 002D           OUT -
0186: 0013 0032           OUT 2
0188: 0013 000A           OUT '\n'
018A: 0000                HLT
018B: 0015                NOOP
018C: 0015                NOOP
018D: 0013 006A           OUT j
018F: 0013 006D           OUT m
0191: 0013 0070           OUT p
0193: 0013 0020           OUT  
0195: 0013 006C           OUT l
0197: 0013 0061           OUT a
0199: 0013 006E           OUT n
019B: 0013 0064           OUT d
019D: 0013 0073           OUT s
019F: 0013 0020           OUT  
01A1: 0013 002D           OUT -
01A3: 0013 0031           OUT 1
01A5: 0013 000A           OUT '\n'
01A7: 0000                HLT
01A8: 0015                NOOP
01A9: 0015                NOOP
01AA: 0013 006A           OUT j
01AC: 0013 006D           OUT m
01AE: 0013 0070           OUT p
01B0: 0013 0020           OUT  
01B2: 0013 006C           OUT l
01B4: 0013 0061           OUT a
01B6: 0013 006E           OUT n
01B8: 0013 0064           OUT d
01BA: 0013 0073           OUT s
01BC: 0013 0020           OUT  
01BE: 0013 002B           OUT +
01C0: 0013 0031           OUT 1
01C2: 0013 000A           OUT '\n'
01C4: 0000                HLT
01C5: 0015                NOOP
01C6: 0015                NOOP
01C7: 0015                NOOP
01C8: 0015                NOOP
01C9: 0013 006A           OUT j
01CB: 0013 006D           OUT m
01CD: 0013 0070           OUT p
01CF: 0013 0020           OUT  
01D1: 0013 006C           OUT l
01D3: 0013 0061           OUT a
01D5: 0013 006E           OUT n
01D7: 0013 0064           OUT d
01D9: 0013 0073           OUT s
01DB: 0013 0020           OUT  
01DD: 0013 002B           OUT +
01DF: 0013 0032           OUT 2
01E1: 0013 000A           OUT '\n'
01E3: 0000                HLT
01E4: 0007 0000 0432      JT 0000 0432
01E7: 0008 0001 0432      JF 0001 0432
01EA: 0007 0001 01EF      JT 0001 01EF
01ED: 0006 0432           JMP 0432
01EF: 0008 0000 01F4      JF 0000 01F4
01F2: 0006 0432           JMP 0432
01F4: 0007 8000 0445      JT r0 0445
01F7: 0007 8001 0445      JT r1 0445
01FA: 0007 8002 0445      JT r2 0445
01FD: 0007 8003 0445      JT r3 0445
0200: 0007 8004 0445      JT r4 0445
0203: 0007 8005 0445      JT r5 0445
0206: 0007 8006 0445      JT r6 0445
0209: 0007 8007 0445      JT r7 0445
020C: 0001 8000 0001      SET r0 0001
020F: 0008 8000 045E      JF r0 045E
0212: 0001 8000 0000      SET r0 0000
0215: 0007 8000 045E      JT r0 045E
0218: 0009 8000 0001 0001 ADD r0 0001 0001
021C: 0007 8000 0234      JT r0 0234
021F: 0013 006E           OUT n
0221: 0013 006F           OUT o
0223: 0013 0020           OUT  
0225: 0013 0061           OUT a
0227: 0013 0064           OUT d
0229: 0013 0064           OUT d
022B: 0013 0020           OUT  
022D: 0013 006F           OUT o
022F: 0013 0070           OUT p
0231: 0013 000A           OUT '\n'
0233: 0000                HLT
0234: 0004 8001 8000 0002 EQ r1 r0 0002
0238: 0007 8001 024E      JT r1 024E
023B: 0013 006E           OUT n
023D: 0013 006F           OUT o
023F: 0013 0020           OUT  
0241: 0013 0065           OUT e
0243: 0013 0071           OUT q
0245: 0013 0020           OUT  
0247: 0013 006F           OUT o
0249: 0013 0070           OUT p
024B: 0013 000A           OUT '\n'
024D: 0000                HLT
024E: 0002 8000           PUSH r0
0250: 0002 8001           PUSH r1
0252: 0003 8000           POP r0
0254: 0003 8001           POP r1
0256: 0004 8002 8001 0002 EQ r2 r1 0002
025A: 0008 8002 0486      JF r2 0486
025D: 0004 8002 8000 0001 EQ r2 r0 0001
0261: 0008 8002 0486      JF r2 0486
0264: 0005 8002 8001 8000 GT r2 r1 r0
0268: 0008 8002 0473      JF r2 0473
026B: 0005 8002 8000 8001 GT r2 r0 r1
026F: 0007 8002 0473      JT r2 0473
0272: 0005 8002 002A 002A GT r2 002A 002A
0276: 0007 8002 0473      JT r2 0473
0279: 000C 8000 70F0 4CAA AND r0 70F0 4CAA
027D: 0004 8001 8000 40A0 EQ r1 r0 40A0
0281: 0008 8001 0499      JF r1 0499
0284: 000D 8001 70F0 4CAA OR r1 70F0 4CAA
0288: 0004 8000 8001 7CFA EQ r0 r1 7CFA
028C: 0007 8000 02AC      JT r0 02AC
028F: 0013 006E           OUT n
0291: 0013 006F           OUT o
0293: 0013 0020           OUT  
0295: 0013 0062           OUT b
0297: 0013 0069           OUT i
0299: 0013 0074           OUT t
029B: 0013 0077           OUT w
029D: 0013 0069           OUT i
029F: 0013 0073           OUT s
02A1: 0013 0065           OUT e
02A3: 0013 0020           OUT  
02A5: 0013 006F           OUT o
02A7: 0013 0072           OUT r
02A9: 0013 000A           OUT '\n'
02AB: 0000                HLT
02AC: 000E 8000 0000      NOT r0 0000
02AF: 0004 8001 8000 7FFF EQ r1 r0 7FFF
02B3: 0008 8001 04B8      JF r1 04B8
02B6: 000E 8000 5555      NOT r0 5555
02B9: 0004 8001 8000 2AAA EQ r1 r0 2AAA
02BD: 0008 8001 04B8      JF r1 04B8
02C0: 0011 0505           CALL 0505
02C2: 0006 0509           JMP 0509
02C4: 0003 8000           POP r0
02C6: 0004 8001 8000 02C4 EQ r1 r0 02C4
02CA: 0007 8001 0509      JT r1 0509
02CD: 0004 8001 8000 02C2 EQ r1 r0 02C2
02D1: 0008 8001 0509      JF r1 0509
02D4: 0001 8000 0507      SET r0 0507
02D7: 0011 8000           CALL r0
02D9: 0006 0509           JMP 0509
02DB: 0003 8000           POP r0
02DD: 0004 8001 8000 02DB EQ r1 r0 02DB
02E1: 0007 8001 0509      JT r1 0509
02E4: 0004 8001 8000 02D9 EQ r1 r0 02D9
02E8: 0008 8001 0509      JF r1 0509
02EB: 0009 8000 7FFF 7FFF ADD r0 7FFF 7FFF
02EF: 0004 8001 8000 7FFE EQ r1 r0 7FFE
02F3: 0008 8001 0520      JF r1 0520
02F6: 0004 8001 7FFE 8000 EQ r1 7FFE r0
02FA: 0008 8001 0520      JF r1 0520
02FD: 0009 8000 4000 4000 ADD r0 4000 4000
0301: 0007 8000 0520      JT r0 0520
0304: 0009 8000 4000 4000 ADD r0 4000 4000
0308: 0007 8000 0520      JT r0 0520
030B: 000A 8000 0006 0009 MULT r0 0006 0009
030F: 0004 8001 8000 002A EQ r1 r0 002A
0313: 0007 8001 0565      JT r1 0565
0316: 0004 8001 8000 0036 EQ r1 r0 0036
031A: 0008 8001 0586      JF r1 0586
031D: 000A 8000 3039 7D7B MULT r0 3039 7D7B
0321: 0004 8001 8000 0063 EQ r1 r0 0063
0325: 0008 8001 0520      JF r1 0520
0328: 000B 8000 0006 0003 MOD r0 0006 0003
032C: 0004 8001 8000 0000 EQ r1 r0 0000
0330: 0008 8001 059D      JF r1 059D
0333: 000B 8000 0046 0006 MOD r0 0046 0006
0337: 0004 8001 8000 0004 EQ r1 r0 0004
033B: 0008 8001 059D      JF r1 059D
033E: 000A 8000 7FFE 000F MULT r0 7FFE 000F
0342: 0004 8001 8000 7FE2 EQ r1 r0 7FE2
0346: 0008 8001 0520      JF r1 0520
0349: 0006 034D           JMP 034D
034B: 4E20
034C: 2710
034D: 000F 8000 034B      RMEM r0 034B
0350: 0004 8001 8000 4E20 EQ r1 r0 4E20
0354: 0008 8001 04D7      JF r1 04D7
0357: 0009 8002 034B 0001 ADD r2 034B 0001
035B: 000F 8000 8002      RMEM r0 r2
035E: 0004 8001 8000 2710 EQ r1 r0 2710
0362: 0008 8001 04D7      JF r1 04D7
0365: 0001 8000 034B      SET r0 034B
0368: 0010 8000 7530      WMEM r0 7530
036B: 000F 8002 8000      RMEM r2 r0
036E: 0004 8001 8002 7530 EQ r1 r2 7530
0372: 0008 8001 04EE      JF r1 04EE
0375: 0011 06BB           CALL 06BB
0377: 000F 8000 17B4      RMEM r0 17B4
037A: 0004 8001 8000 000B EQ r1 r0 000B
037E: 0008 8001 04D7      JF r1 04D7
0381: 0009 8002 17B4 0001 ADD r2 17B4 0001
0385: 000F 8000 8002      RMEM r0 r2
0388: 0004 8001 8000 0074 EQ r1 r0 0074
038C: 0008 8001 04D7      JF r1 04D7
038F: 0010 8002 0054      WMEM r2 0054
0392: 000F 8000 8002      RMEM r0 r2
0395: 0004 8001 8000 0074 EQ r1 r0 0074
0399: 0007 8001 04EE      JT r1 04EE
039C: 0004 8001 8000 0054 EQ r1 r0 0054
03A0: 0008 8001 04EE      JF r1 04EE
03A3: 0010 03A9 0015      WMEM 03A9 0015
03A6: 0010 03AA 0007      WMEM 03AA 0007
03A9: 0006 03AD           JMP 03AD
03AB: 0013 03D2           OUT ?
03AD: 0013 0077           OUT w
03AF: 0013 006D           OUT m
03B1: 0013 0065           OUT e
03B3: 0013 006D           OUT m
03B5: 0013 0020           OUT  
03B7: 0013 006F           OUT o
03B9: 0013 0070           OUT p
03BB: 0013 0077           OUT w
03BD: 0013 0072           OUT r
03BF: 0013 0069           OUT i
03C1: 0013 0074           OUT t
03C3: 0013 0065           OUT e
03C5: 0013 0020           OUT  
03C7: 0013 0066           OUT f
03C9: 0013 0061           OUT a
03CB: 0013 0069           OUT i
03CD: 0013 006C           OUT l
03CF: 0013 000A           OUT '\n'
03D1: 0000                HLT
03D2: 0009 8001 000A 17C0 ADD r1 000A 17C0
03D6: 0009 8001 8001 0001 ADD r1 r1 0001
03DA: 000F 8002 17E4      RMEM r2 17E4
03DD: 0009 8002 8002 17E4 ADD r2 r2 17E4
03E1: 0001 8000 17E4      SET r0 17E4
03E4: 0009 8000 8000 0001 ADD r0 r0 0001
03E8: 0005 8003 8000 8002 GT r3 r0 r2
03EC: 0007 8003 03FF      JT r3 03FF
03EF: 000F 8004 8000      RMEM r4 r0
03F2: 0010 8001 8004      WMEM r1 r4
03F5: 0009 8000 8000 0001 ADD r0 r0 0001
03F9: 0009 8001 8001 0001 ADD r1 r1 0001
03FD: 0006 03E8           JMP 03E8
03FF: 000F 8000 17C0      RMEM r0 17C0
0402: 000F 8001 17D3      RMEM r1 17D3
0405: 0009 8000 8000 8001 ADD r0 r0 r1
0409: 0009 8000 8000 0001 ADD r0 r0 0001
040D: 0010 17C0 8000      WMEM 17C0 r0
0410: 0010 17D3 002C      WMEM 17D3 002C
0413: 0001 8000 17C0      SET r0 17C0
0416: 0011 05EE           CALL 05EE
0418: 0002 8000           PUSH r0
041A: 0002 8001           PUSH r1
041C: 0002 8002           PUSH r2
041E: 0001 8000 68E3      SET r0 68E3
0421: 0001 8001 05FB      SET r1 05FB
0424: 0009 8002 5E7F 11F2 ADD r2 5E7F 11F2
0428: 0011 05B2           CALL 05B2
042A: 0003 8002           POP r2
042C: 0003 8001           POP r1
042E: 0003 8000           POP r0
0430: 0006 0AAE           JMP 0AAE
0432: 0013 006E           OUT n
0434: 0013 006F           OUT o
0436: 0013 0020           OUT  
0438: 0013 006A           OUT j
043A: 0013 0074           OUT t
043C: 0013 002F           OUT /
043E: 0013 006A           OUT j
0440: 0013 0066           OUT f
0442: 0013 000A           OUT '\n'
0444: 0000                HLT
0445: 0013 006E           OUT n
0447: 0013 006F           OUT o
0449: 0013 006E           OUT n
044B: 0013 007A           OUT z
044D: 0013 0065           OUT e
044F: 0013 0072           OUT r
0451: 0013 006F           OUT o
0453: 0013 0020           OUT  
0455: 0013 0072           OUT r
0457: 0013 0065           OUT e
0459: 0013 0067           OUT g
045B: 0013 000A           OUT '\n'
045D: 0000                HLT
045E: 0013 006E           OUT n
0460: 0013 006F           OUT o
0462: 0013 0020           OUT  
0464: 0013 0073           OUT s
0466: 0013 0065           OUT e
0468: 0013 0074           OUT t
046A: 0013 0020           OUT  
046C: 0013 006F           OUT o
046E: 0013 0070           OUT p
0470: 0013 000A           OUT '\n'
0472: 0000                HLT
0473: 0013 006E           OUT n
0475: 0013 006F           OUT o
0477: 0013 0020           OUT  
0479: 0013 0067           OUT g
047B: 0013 0074           OUT t
047D: 0013 0020           OUT  
047F: 0013 006F           OUT o
0481: 0013 0070           OUT p
0483: 0013 000A           OUT '\n'
0485: 0000                HLT
0486: 0013 006E           OUT n
0488: 0013 006F           OUT o
048A: 0013 0020           OUT  
048C: 0013 0073           OUT s
048E: 0013 0074           OUT t
0490: 0013 0061           OUT a
0492: 0013 0063           OUT c
0494: 0013 006B           OUT k
0496: 0013 000A           OUT '\n'
0498: 0000                HLT
0499: 0013 006E           OUT n
049B: 0013 006F           OUT o
049D: 0013 0020           OUT  
049F: 0013 0062           OUT b
04A1: 0013 0069           OUT i
04A3: 0013 0074           OUT t
04A5: 0013 0077           OUT w
04A7: 0013 0069           OUT i
04A9: 0013 0073           OUT s
04AB: 0013 0065           OUT e
04AD: 0013 0020           OUT  
04AF: 0013 0061           OUT a
04B1: 0013 006E           OUT n
04B3: 0013 0064           OUT d
04B5: 0013 000A           OUT '\n'
04B7: 0000                HLT
04B8: 0013 006E           OUT n
04BA: 0013 006F           OUT o
04BC: 0013 0020           OUT  
04BE: 0013 0062           OUT b
04C0: 0013 0069           OUT i
04C2: 0013 0074           OUT t
04C4: 0013 0077           OUT w
04C6: 0013 0069           OUT i
04C8: 0013 0073           OUT s
04CA: 0013 0065           OUT e
04CC: 0013 0020           OUT  
04CE: 0013 006E           OUT n
04D0: 0013 006F           OUT o
04D2: 0013 0074           OUT t
04D4: 0013 000A           OUT '\n'
04D6: 0000                HLT
04D7: 0013 006E           OUT n
04D9: 0013 006F           OUT o
04DB: 0013 0020           OUT  
04DD: 0013 0072           OUT r
04DF: 0013 006D           OUT m
04E1: 0013 0065           OUT e
04E3: 0013 006D           OUT m
04E5: 0013 0020           OUT  
04E7: 0013 006F           OUT o
04E9: 0013 0070           OUT p
04EB: 0013 000A           OUT '\n'
04ED: 0000                HLT
04EE: 0013 006E           OUT n
04F0: 0013 006F           OUT o
04F2: 0013 0020           OUT  
04F4: 0013 0077           OUT w
04F6: 0013 006D           OUT m
04F8: 0013 0065           OUT e
04FA: 0013 006D           OUT m
04FC: 0013 0020           OUT  
04FE: 0013 006F           OUT o
0500: 0013 0070           OUT p
0502: 0013 000A           OUT '\n'
0504: 0000                HLT
0505: 0006 02C4           JMP 02C4
0507: 0006 02DB           JMP 02DB
0509: 0013 006E           OUT n
050B: 0013 006F           OUT o
050D: 0013 0020           OUT  
050F: 0013 0063           OUT c
0511: 0013 0061           OUT a
0513: 0013 006C           OUT l
0515: 0013 006C           OUT l
0517: 0013 0020           OUT  
0519: 0013 006F           OUT o
051B: 0013 0070           OUT p
051D: 0013 000A           OUT '\n'
051F: 0000                HLT
0520: 0013 006E           OUT n
0522: 0013 006F           OUT o
0524: 0013 0020           OUT  
0526: 0013 006D           OUT m
0528: 0013 006F           OUT o
052A: 0013 0064           OUT d
052C: 0013 0075           OUT u
052E: 0013 006C           OUT l
0530: 0013 006F           OUT o
0532: 0013 0020           OUT  
0534: 0013 006D           OUT m
0536: 0013 0061           OUT a
0538: 0013 0074           OUT t
053A: 0013 0068           OUT h
053C: 0013 0020           OUT  
053E: 0013 0064           OUT d
0540: 0013 0075           OUT u
0542: 0013 0072           OUT r
0544: 0013 0069           OUT i
0546: 0013 006E           OUT n
0548: 0013 0067           OUT g
054A: 0013 0020           OUT  
054C: 0013 0061           OUT a
054E: 0013 0064           OUT d
0550: 0013 0064           OUT d
0552: 0013 0020           OUT  
0554: 0013 006F           OUT o
0556: 0013 0072           OUT r
0558: 0013 0020           OUT  
055A: 0013 006D           OUT m
055C: 0013 0075           OUT u
055E: 0013 006C           OUT l
0560: 0013 0074           OUT t
0562: 0013 000A           OUT '\n'
0564: 0000                HLT
0565: 0013 006E           OUT n
0567: 0013 006F           OUT o
0569: 0013 0074           OUT t
056B: 0013 0020           OUT  
056D: 0013 0068           OUT h
056F: 0013 0069           OUT i
0571: 0013 0074           OUT t
0573: 0013 0063           OUT c
0575: 0013 0068           OUT h
0577: 0013 0068           OUT h
0579: 0013 0069           OUT i
057B: 0013 006B           OUT k
057D: 0013 0069           OUT i
057F: 0013 006E           OUT n
0581: 0013 0067           OUT g
0583: 0013 000A           OUT '\n'
0585: 0000                HLT
0586: 0013 006E           OUT n
0588: 0013 006F           OUT o
058A: 0013 0020           OUT  
058C: 0013 006D           OUT m
058E: 0013 0075           OUT u
0590: 0013 006C           OUT l
0592: 0013 0074           OUT t
0594: 0013 0020           OUT  
0596: 0013 006F           OUT o
0598: 0013 0070           OUT p
059A: 0013 000A           OUT '\n'
059C: 0000                HLT
059D: 0013 006E           OUT n
059F: 0013 006F           OUT o
05A1: 0013 0020           OUT  
05A3: 0013 006D           OUT m
05A5: 0013 006F           OUT o
05A7: 0013 0064           OUT d
05A9: 0013 0020           OUT  
05AB: 0013 006F           OUT o
05AD: 0013 0070           OUT p
05AF: 0013 000A           OUT '\n'
05B1: 0000                HLT
05B2: 0002 8000           PUSH r0
05B4: 0002 8003           PUSH r3
05B6: 0002 8004           PUSH r4
05B8: 0002 8005           PUSH r5
05BA: 0002 8006           PUSH r6
05BC: 0001 8006 8000      SET r6 r0
05BF: 0001 8005 8001      SET r5 r1
05C2: 000F 8004 8000      RMEM r4 r0
05C5: 0001 8001 0000      SET r1 0000
05C8: 0009 8003 0001 8001 ADD r3 0001 r1
05CC: 0005 8000 8003 8004 GT r0 r3 r4
05D0: 0007 8000 05E3      JT r0 05E3
05D3: 0009 8003 8003 8006 ADD r3 r3 r6
05D7: 000F 8000 8003      RMEM r0 r3
05DA: 0011 8005           CALL r5
05DC: 0009 8001 8001 0001 ADD r1 r1 0001
05E0: 0007 8001 05C8      JT r1 05C8
05E3: 0003 8006           POP r6
05E5: 0003 8005           POP r5
05E7: 0003 8004           POP r4
05E9: 0003 8003           POP r3
05EB: 0003 8000           POP r0
05ED: 0012                RET
05EE: 0002 8001           PUSH r1
05F0: 0001 8001 05F8      SET r1 05F8
05F3: 0011 05B2           CALL 05B2
05F5: 0003 8001           POP r1
05F7: 0012                RET
05F8: 0013 8000           OUT r0
05FA: 0012                RET
05FB: 0002 8001           PUSH r1
05FD: 0001 8001 8002      SET r1 r2
0600: 0011 084D           CALL 084D
0602: 0013 8000           OUT r0
0604: 0003 8001           POP r1
0606: 0012                RET
0607: 0002 8001           PUSH r1
0609: 0002 8003           PUSH r3
060B: 000F 8003 8000      RMEM r3 r0
060E: 0008 8003 061B      JF r3 061B
0611: 0011 05B2           CALL 05B2
0613: 0007 8001 061B      JT r1 061B
0616: 0001 8000 8002      SET r0 r2
0619: 0006 061E           JMP 061E
061B: 0001 8000 7FFF      SET r0 7FFF
061E: 0003 8003           POP r3
0620: 0003 8001           POP r1
0622: 0012                RET
0623: 0002 8001           PUSH r1
0625: 0002 8002           PUSH r2
0627: 0001 8002 8001      SET r2 r1
062A: 0001 8001 0645      SET r1 0645
062D: 0011 0607           CALL 0607
062F: 0003 8002           POP r2
0631: 0003 8001           POP r1
0633: 0012                RET
0634: 0002 8001           PUSH r1
0636: 0002 8002           PUSH r2
0638: 0001 8002 8001      SET r2 r1
063B: 0001 8001 0670      SET r1 0670
063E: 0011 0607           CALL 0607
0640: 0003 8002           POP r2
0642: 0003 8001           POP r1
0644: 0012                RET
0645: 0004 8000 8000 8002 EQ r0 r0 r2
0649: 0008 8000 0652      JF r0 0652
064C: 0001 8002 8001      SET r2 r1
064F: 0001 8001 7FFF      SET r1 7FFF
0652: 0012                RET
0653: 0002 8003           PUSH r3
0655: 0009 8003 8002 0001 ADD r3 r2 0001
0659: 0009 8003 8003 8001 ADD r3 r3 r1
065D: 000F 8003 8003      RMEM r3 r3
0660: 0004 8003 8000 8003 EQ r3 r0 r3
0664: 0007 8003 066D      JT r3 066D
0667: 0001 8002 8001      SET r2 r1
066A: 0001 8001 7FFF      SET r1 7FFF
066D: 0003 8003           POP r3
066F: 0012                RET
0670: 0002 8001           PUSH r1
0672: 0001 8001 8002      SET r1 r2
0675: 0011 0683           CALL 0683
0677: 0003 8001           POP r1
0679: 0008 8000 0682      JF r0 0682
067C: 0001 8002 8001      SET r2 r1
067F: 0001 8001 7FFF      SET r1 7FFF
0682: 0012                RET
0683: 0002 8001           PUSH r1
0685: 0002 8002           PUSH r2
0687: 0002 8003           PUSH r3
0689: 0002 8004           PUSH r4
068B: 000F 8003 8000      RMEM r3 r0
068E: 000F 8004 8001      RMEM r4 r1
0691: 0004 8002 8003 8004 EQ r2 r3 r4
0695: 0008 8002 06AF      JF r2 06AF
0698: 000D 8002 8003 8004 OR r2 r3 r4
069C: 0008 8002 06AA      JF r2 06AA
069F: 0001 8002 8001      SET r2 r1
06A2: 0001 8001 0653      SET r1 0653
06A5: 0011 05B2           CALL 05B2
06A7: 0008 8001 06AF      JF r1 06AF
06AA: 0001 8000 0001      SET r0 0001
06AD: 0006 06B2           JMP 06B2
06AF: 0001 8000 0000      SET r0 0000
06B2: 0003 8004           POP r4
06B4: 0003 8003           POP r3
06B6: 0003 8002           POP r2
06B8: 0003 8001           POP r1
06BA: 0012                RET
06BB: 0002 8000           PUSH r0
06BD: 0002 8001           PUSH r1
06BF: 0001 8001 17B4      SET r1 17B4
06C2: 000F 8000 8001      RMEM r0 r1
06C5: 0002 8001           PUSH r1
06C7: 000A 8001 8001 8001 MULT r1 r1 r1
06CB: 0011 084D           CALL 084D
06CD: 0001 8001 4154      SET r1 4154
06D0: 0011 084D           CALL 084D
06D2: 0003 8001           POP r1
06D4: 0010 8001 8000      WMEM r1 r0
06D7: 0009 8001 8001 0001 ADD r1 r1 0001
06DB: 0004 8000 7562 8001 EQ r0 7562 r1
06DF: 0008 8000 06C2      JF r0 06C2
06E2: 0003 8001           POP r1
06E4: 0003 8000           POP r0
06E6: 0012                RET
06E7: 0002 8000           PUSH r0
06E9: 0002 8002           PUSH r2
06EB: 0002 8003           PUSH r3
06ED: 0002 8004           PUSH r4
06EF: 0002 8005           PUSH r5
06F1: 0009 8002 8001 8000 ADD r2 r1 r0
06F5: 0001 8000 8001      SET r0 r1
06F8: 0001 8005 0000      SET r5 0000
06FB: 0009 8000 8000 0001 ADD r0 r0 0001
06FF: 0005 8003 8000 8002 GT r3 r0 r2
0703: 0007 8003 0718      JT r3 0718
0706: 0014 8004           IN r4
0708: 0004 8003 8004 000A EQ r3 r4 000A
070C: 0007 8003 0718      JT r3 0718
070F: 0010 8000 8004      WMEM r0 r4
0712: 0009 8005 8005 0001 ADD r5 r5 0001
0716: 0006 06FB           JMP 06FB
0718: 0010 8001 8005      WMEM r1 r5
071B: 0004 8003 8004 000A EQ r3 r4 000A
071F: 0007 8003 0726      JT r3 0726
0722: 0014 8004           IN r4
0724: 0006 071B           JMP 071B
0726: 0003 8005           POP r5
0728: 0003 8004           POP r4
072A: 0003 8003           POP r3
072C: 0003 8002           POP r2
072E: 0003 8000           POP r0
0730: 0012                RET
0731: 0002 8003           PUSH r3
0733: 0002 8004           PUSH r4
0735: 0002 8005           PUSH r5
0737: 0002 8006           PUSH r6
0739: 0001 8006 0001      SET r6 0001
073C: 0009 8004 8003 8006 ADD r4 r3 r6
0740: 000F 8004 8004      RMEM r4 r4
0743: 0009 8005 17ED 8006 ADD r5 17ED r6
0747: 0010 8005 8004      WMEM r5 r4
074A: 0009 8006 8006 0001 ADD r6 r6 0001
074E: 000F 8005 17ED      RMEM r5 17ED
0751: 0005 8004 8006 8005 GT r4 r6 r5
0755: 0008 8004 073C      JF r4 073C
0758: 0001 8003 0000      SET r3 0000
075B: 0001 8004 0000      SET r4 0000
075E: 000F 8005 17ED      RMEM r5 17ED
0761: 000B 8005 8004 8005 MOD r5 r4 r5
0765: 0009 8005 8005 17ED ADD r5 r5 17ED
0769: 0009 8005 8005 0001 ADD r5 r5 0001
076D: 000F 8006 8005      RMEM r6 r5
0770: 000A 8006 8006 1481 MULT r6 r6 1481
0774: 0009 8006 8006 3039 ADD r6 r6 3039
0778: 0010 8005 8006      WMEM r5 r6
077B: 0002 8000           PUSH r0
077D: 0002 8001           PUSH r1
077F: 0001 8001 8006      SET r1 r6
0782: 0011 084D           CALL 084D
0784: 0001 8006 8000      SET r6 r0
0787: 0003 8001           POP r1
0789: 0003 8000           POP r0
078B: 000F 8005 8001      RMEM r5 r1
078E: 000B 8006 8006 8005 MOD r6 r6 r5
0792: 0009 8006 8006 0001 ADD r6 r6 0001
0796: 0005 8005 8006 8002 GT r5 r6 r2
079A: 0007 8005 07A0      JT r5 07A0
079D: 0001 8003 0001      SET r3 0001
07A0: 0009 8006 8006 8001 ADD r6 r6 r1
07A4: 000F 8006 8006      RMEM r6 r6
07A7: 0009 8004 8004 0001 ADD r4 r4 0001
07AB: 0009 8005 8004 17F1 ADD r5 r4 17F1
07AF: 0010 8005 8006      WMEM r5 r6
07B2: 000F 8005 17F1      RMEM r5 17F1
07B5: 0004 8005 8004 8005 EQ r5 r4 r5
07B9: 0008 8005 075E      JF r5 075E
07BC: 0008 8003 0758      JF r3 0758
07BF: 0002 8000           PUSH r0
07C1: 0001 8000 17F1      SET r0 17F1
07C4: 0011 05EE           CALL 05EE
07C6: 0003 8000           POP r0
07C8: 0003 8006           POP r6
07CA: 0003 8005           POP r5
07CC: 0003 8004           POP r4
07CE: 0003 8003           POP r3
07D0: 0012                RET
07D1: 0002 8000           PUSH r0
07D3: 0002 8001           PUSH r1
07D5: 0002 8002           PUSH r2
07D7: 0002 8003           PUSH r3
07D9: 0002 8004           PUSH r4
07DB: 0002 8005           PUSH r5
07DD: 0001 8002 0001      SET r2 0001
07E0: 0001 8005 0000      SET r5 0000
07E3: 0008 8000 082C      JF r0 082C
07E6: 0004 8004 8002 2710 EQ r4 r2 2710
07EA: 0001 8003 8000      SET r3 r0
07ED: 0007 8004 07F8      JT r4 07F8
07F0: 000A 8001 8002 000A MULT r1 r2 000A
07F4: 000B 8003 8000 8001 MOD r3 r0 r1
07F8: 0001 8004 0000      SET r4 0000
07FB: 000A 8002 8002 7FFF MULT r2 r2 7FFF
07FF: 0008 8003 080C      JF r3 080C
0802: 0009 8004 8004 0001 ADD r4 r4 0001
0806: 0009 8003 8003 8002 ADD r3 r3 r2
080A: 0006 07FF           JMP 07FF
080C: 000A 8002 8002 7FFF MULT r2 r2 7FFF
0810: 000A 8003 8004 8002 MULT r3 r4 r2
0814: 000A 8003 8003 7FFF MULT r3 r3 7FFF
0818: 0009 8000 8000 8003 ADD r0 r0 r3
081C: 0009 8004 8004 0030 ADD r4 r4 0030
0820: 000A 8002 8002 000A MULT r2 r2 000A
0824: 0009 8005 8005 0001 ADD r5 r5 0001
0828: 0002 8004           PUSH r4
082A: 0006 07E3           JMP 07E3
082C: 0007 8005 0833      JT r5 0833
082F: 0013 0030           OUT 0
0831: 0006 0840           JMP 0840
0833: 0008 8005 0840      JF r5 0840
0836: 0003 8000           POP r0
0838: 0013 8000           OUT r0
083A: 0009 8005 8005 7FFF ADD r5 r5 7FFF
083E: 0006 0833           JMP 0833
0840: 0003 8005           POP r5
0842: 0003 8004           POP r4
0844: 0003 8003           POP r3
0846: 0003 8002           POP r2
0848: 0003 8001           POP r1
084A: 0003 8000           POP r0
084C: 0012                RET
084D: 0002 8001           PUSH r1
084F: 0002 8002           PUSH r2
0851: 000C 8002 8000 8001 AND r2 r0 r1
0855: 000E 8002 8002      NOT r2 r2
0858: 000D 8000 8000 8001 OR r0 r0 r1
085C: 000C 8000 8000 8002 AND r0 r0 r2
0860: 0003 8002           POP r2
0862: 0003 8001           POP r1
0864: 0012                RET
0865: 0009 8000 8000 8001 ADD r0 r0 r1
0869: 0005 8001 8001 8000 GT r1 r1 r0
086D: 0012                RET
086E: 0002 8002           PUSH r2
0870: 0005 8002 8001 8000 GT r2 r1 r0
0874: 000A 8001 8001 7FFF MULT r1 r1 7FFF
0878: 0009 8000 8000 8001 ADD r0 r0 r1
087C: 0001 8001 8002      SET r1 r2
087F: 0003 8002           POP r2
0881: 0012                RET
0882: 0008 8000 08C1      JF r0 08C1
0885: 0008 8001 08C1      JF r1 08C1
0888: 0002 8002           PUSH r2
088A: 0002 8003           PUSH r3
088C: 0005 8002 8001 8000 GT r2 r1 r0
0890: 0007 8002 089C      JT r2 089C
0893: 0001 8002 8000      SET r2 r0
0896: 0001 8000 8001      SET r0 r1
0899: 0001 8001 8002      SET r1 r2
089C: 0001 8002 8000      SET r2 r0
089F: 0001 8000 0000      SET r0 0000
08A2: 0009 8000 8000 8001 ADD r0 r0 r1
08A6: 0005 8003 8001 8000 GT r3 r1 r0
08AA: 0007 8003 08B9      JT r3 08B9
08AD: 0009 8002 8002 7FFF ADD r2 r2 7FFF
08B1: 0007 8002 08A2      JT r2 08A2
08B4: 0001 8001 0000      SET r1 0000
08B7: 0006 08BC           JMP 08BC
08B9: 0001 8001 0001      SET r1 0001
08BC: 0003 8003           POP r3
08BE: 0003 8002           POP r2
08C0: 0012                RET
08C1: 0001 8000 0000      SET r0 0000
08C4: 0001 8001 0000      SET r1 0000
08C7: 0012                RET
08C8: 0002 8001           PUSH r1
08CA: 0002 8002           PUSH r2
08CC: 0008 8001 08E4      JF r1 08E4
08CF: 0009 8001 8001 7FFF ADD r1 r1 7FFF
08D3: 000C 8002 8000 4000 AND r2 r0 4000
08D7: 000A 8000 8000 0002 MULT r0 r0 0002
08DB: 0008 8002 08CC      JF r2 08CC
08DE: 000D 8000 8000 0001 OR r0 r0 0001
08E2: 0006 08CC           JMP 08CC
08E4: 0003 8002           POP r2
08E6: 0003 8001           POP r1
08E8: 0012                RET
08E9: 0002 8001           PUSH r1
08EB: 0005 8001 8000 000E GT r1 r0 000E
08EF: 0007 8001 0905      JT r1 0905
08F2: 0001 8001 8000      SET r1 r0
08F5: 0001 8000 0001      SET r0 0001
08F8: 0008 8001 0908      JF r1 0908
08FB: 0009 8001 8001 7FFF ADD r1 r1 7FFF
08FF: 000A 8000 8000 0002 MULT r0 r0 0002
0903: 0006 08F8           JMP 08F8
0905: 0001 8000 7FFF      SET r0 7FFF
0908: 0003 8001           POP r1
090A: 0012                RET
090B: 0006 0AAE           JMP 0AAE
090D: 17FE
090E: 1808
090F: 6914
0910: 6917
0911: 0000                HLT
0912: 18CE
0913: 18D8
0914: 691A
0915: 691C
0916: 0000                HLT
0917: 1929
0918: 1933
0919: 691E
091A: 6921
091B: 0000                HLT
091C: 19C5
091D: 19CF
091E: 6924
091F: 6927
0920: 0000                HLT
0921: 1A37
0922: 1A41
0923: 692A
0924: 692D
0925: 0000                HLT
0926: 1B0A
0927: 1B16
0928: 6930
0929: 6933
092A: 0000                HLT
092B: 1B9E
092C: 1BB7
092D: 6936
092E: 6938
092F: 0000                HLT
0930: 1C66
0931: 1C72
0932: 693A
0933: 693D
0934: 0000                HLT
0935: 1D4E
0936: 1D5A
0937: 6940
0938: 6942
0939: 0000                HLT
093A: 1DC0
093B: 1DCC
093C: 6944
093D: 6947
093E: 0000                HLT
093F: 1E77
0940: 1E7F
0941: 694A
0942: 694E
0943: 0000                HLT
0944: 1F47
0945: 6952
0946: 6955
0947: 6958
0948: 0000                HLT
0949: 1FE3
094A: 1FF3
094B: 695B
094C: 6961
094D: 0E9E
094E: 208C
094F: 209C
0950: 6967
0951: 696B
0952: 0EA2
0953: 20E5
0954: 20F5
0955: 696F
0956: 6973
0957: 0EAC
0958: 213E
0959: 214E
095A: 6977
095B: 697C
095C: 0EB6
095D: 21E1
095E: 21F1
095F: 6981
0960: 6985
0961: 0EC0
0962: 223A
0963: 224A
0964: 6989
0965: 698E
0966: 0ECA
0967: 22E4
0968: 22F4
0969: 6993
096A: 6997
096B: 0ED4
096C: 233D
096D: 234D
096E: 699B
096F: 699D
0970: 0EDE
0971: 238A
0972: 239A
0973: 699F
0974: 69A1
0975: 0000                HLT
0976: 23D7
0977: 23E7
0978: 69A3
0979: 69A6
097A: 0E48
097B: 242B
097C: 2438
097D: 69A9
097E: 69AC
097F: 0E48
0980: 24B5
0981: 24C2
0982: 69AF
0983: 69B2
0984: 0E48
0985: 24EF
0986: 24FC
0987: 69B5
0988: 69B8
0989: 0E48
098A: 2529
098B: 2536
098C: 69BB
098D: 69BE
098E: 0E48
098F: 25A5
0990: 25AB
0991: 69C1
0992: 69C4
0993: 0000                HLT
0994: 26AF
0995: 26B5
0996: 69C7
0997: 69CA
0998: 0000                HLT
0999: 2777
099A: 277D
099B: 69CD
099C: 69D2
099D: 0000                HLT
099E: 0000                HLT
099F: 28B9
09A0: 28BF
09A1: 69E3
09A2: 69E5
09A3: 0F35
09A4: 296D
09A5: 2973
09A6: 69E7
09A7: 69EA
09A8: 0000                HLT
09A9: 2A08
09AA: 2A0E
09AB: 69ED
09AC: 69EF
09AD: 0000                HLT
09AE: 2A8C
09AF: 2A92
09B0: 69F1
09B1: 69F4
09B2: 0000                HLT
09B3: 2B4E
09B4: 2B54
09B5: 69F7
09B6: 69F9
09B7: 0000                HLT
09B8: 2C03
09B9: 2C18
09BA: 69FB
09BB: 69FD
09BC: 0000                HLT
09BD: 2D20
09BE: 2D35
09BF: 69FF
09C0: 6A01
09C1: 0000                HLT
09C2: 2DCE
09C3: 2DD4
09C4: 6A03
09C5: 6A07
09C6: 0000                HLT
09C7: 2E8F
09C8: 2E95
09C9: 6A0B
09CA: 6A0E
09CB: 0000                HLT
09CC: 2FA7
09CD: 2FAD
09CE: 6A11
09CF: 6A14
09D0: 0000                HLT
09D1: 30AB
09D2: 30BB
09D3: 6A17
09D4: 6A1B
09D5: 0000                HLT
09D6: 3193
09D7: 31A3
09D8: 6A1F
09D9: 6A23
09DA: 0000                HLT
09DB: 322F
09DC: 323F
09DD: 6A27
09DE: 6A2A
09DF: 0000                HLT
09E0: 3332
09E1: 3342
09E2: 6A2D
09E3: 6A30
09E4: 0000                HLT
09E5: 346C
09E6: 347C
09E7: 6A33
09E8: 6A36
09E9: 0000                HLT
09EA: 357E
09EB: 358C
09EC: 6A39
09ED: 6A3C
09EE: 0000                HLT
09EF: 3675
09F0: 3683
09F1: 6A3F
09F2: 6A42
09F3: 0000                HLT
09F4: 370A
09F5: 3718
09F6: 6A45
09F7: 6A49
09F8: 0000                HLT
09F9: 386C
09FA: 3881
09FB: 6A4D
09FC: 6A4F
09FD: 0000                HLT
09FE: 392A
09FF: 3938
0A00: 6A51
0A01: 6A54
0A02: 1203
0A03: 39AD
0A04: 39B8
0A05: 6A57
0A06: 6A5A
0A07: 0F76
0A08: 3A44
0A09: 3A4F
0A0A: 6A5D
0A0B: 6A61
0A0C: 0F87
0A0D: 3AE2
0A0E: 3AED
0A0F: 6A65
0A10: 6A69
0A11: 0F98
0A12: 3B7E
0A13: 3B89
0A14: 6A6D
0A15: 6A71
0A16: 0FA9
0A17: 3C91
0A18: 3C9C
0A19: 6A75
0A1A: 6A79
0A1B: 0FBC
0A1C: 3D30
0A1D: 3D3B
0A1E: 6A7D
0A1F: 6A82
0A20: 0FCD
0A21: 3DD2
0A22: 3DDD
0A23: 6A87
0A24: 6A8C
0A25: 0FDE
0A26: 3E77
0A27: 3E82
0A28: 6A91
0A29: 6A95
0A2A: 0FEF
0A2B: 3F14
0A2C: 3F1F
0A2D: 6A99
0A2E: 6A9D
0A2F: 1000
0A30: 3FB1
0A31: 3FBC
0A32: 6AA1
0A33: 6AA6
0A34: 1011
0A35: 4055
0A36: 4060
0A37: 6AAB
0A38: 6AB0
0A39: 1022
0A3A: 40F7
0A3B: 4102
0A3C: 6AB5
0A3D: 6AB9
0A3E: 1033
0A3F: 4197
0A40: 41A9
0A41: 6ABD
0A42: 6AC1
0A43: 1044
0A44: 424B
0A45: 4256
0A46: 6AC5
0A47: 6AC9
0A48: 1047
0A49: 42E7
0A4A: 42F2
0A4B: 6ACD
0A4C: 6AD1
0A4D: 1058
0A4E: 4385
0A4F: 4390
0A50: 6AD5
0A51: 6AD8
0A52: 1069
0A53: 441C
0A54: 4422
0A55: 6ADB
0A56: 6ADD
0A57: 1252
0A58: 44FD
0A59: 451D
0A5A: 6ADF
0A5B: 6AE2
0A5C: 0000                HLT
0A5D: 458E
0A5E: 45AE
0A5F: 6AE5
0A60: 6AE8
0A61: 0000                HLT
0A62: 461D
0A63: 462F
0A64: 6AEB
0A65: 6AEF
0A66: 0000                HLT
0A67: 4687
0A68: 468D
0A69: 6AF3
0A6A: 6AF4
0A6B: 0E75
0A6C: 468E
0A6D: 4695
0A6E: 090D
0A6F: 1270
0A70: 471E
0A71: 472C
0A72: 0935
0A73: 0000                HLT
0A74: 47A8
0A75: 47B0
0A76: 7FFF
0A77: 1315
0A78: 4824
0A79: 4830
0A7A: 7FFF
0A7B: 1343
0A7C: 4888
0A7D: 488C
0A7E: 0971
0A7F: 12BF
0A80: 48BA
0A81: 48C3
0A82: 0994
0A83: 14F0
0A84: 4903
0A85: 4911
0A86: 09A9
0A87: 1501
0A88: 4951
0A89: 495C
0A8A: 09B3
0A8B: 1512
0A8C: 49A4
0A8D: 49B1
0A8E: 09A4
0A8F: 1523
0A90: 4A09
0A91: 4A13
0A92: 09AE
0A93: 1534
0A94: 4A55
0A95: 4A60
0A96: 099F
0A97: 1545
0A98: 4AA9
0A99: 4AB7
0A9A: 09B8
0A9B: 0000                HLT
0A9C: 4AF8
0A9D: 4AFC
0A9E: 0A3F
0A9F: 0000                HLT
0AA0: 4B3A
0AA1: 4B41
0AA2: 0A53
0AA3: 1659
0AA4: 4BB8
0AA5: 4BC5
0AA6: 09B8
0AA7: 0000                HLT
0AA8: 564D
0AA9: 5655
0AAA: 09F9
0AAB: 0000                HLT
0AAC: 090D
0AAD: 0000                HLT
0AAE: 0002 8000           PUSH r0
0AB0: 0002 8001           PUSH r1
0AB2: 0002 8002           PUSH r2
0AB4: 0002 8003           PUSH r3
0AB6: 000F 8001 0AAC      RMEM r1 0AAC
0AB9: 000F 8000 0AAD      RMEM r0 0AAD
0ABC: 0004 8000 8000 8001 EQ r0 r0 r1
0AC0: 0007 8000 0AD2      JT r0 0AD2
0AC3: 000F 8000 0AAC      RMEM r0 0AAC
0AC6: 0009 8000 8000 0004 ADD r0 r0 0004
0ACA: 000F 8000 8000      RMEM r0 r0
0ACD: 0008 8000 0AD2      JF r0 0AD2
0AD0: 0011 8000           CALL r0
0AD2: 000F 8001 0AAC      RMEM r1 0AAC
0AD5: 000F 8000 0AAD      RMEM r0 0AAD
0AD8: 0004 8000 8000 8001 EQ r0 r0 r1
0ADC: 0007 8000 0AE7      JT r0 0AE7
0ADF: 0001 8000 6576      SET r0 6576
0AE2: 0010 8000 0000      WMEM r0 0000
0AE5: 0011 0B94           CALL 0B94
0AE7: 0010 0AAD 8001      WMEM 0AAD r1
0AEA: 0002 8000           PUSH r0
0AEC: 0002 8001           PUSH r1
0AEE: 0002 8002           PUSH r2
0AF0: 0001 8000 6B16      SET r0 6B16
0AF3: 0001 8001 05FB      SET r1 05FB
0AF6: 0009 8002 199B 2EDB ADD r2 199B 2EDB
0AFA: 0011 05B2           CALL 05B2
0AFC: 0003 8002           POP r2
0AFE: 0003 8001           POP r1
0B00: 0003 8000           POP r0
0B02: 0001 8000 0020      SET r0 0020
0B05: 0001 8001 6576      SET r1 6576
0B08: 0011 06E7           CALL 06E7
0B0A: 0013 000A           OUT '\n'
0B0C: 0013 000A           OUT '\n'
0B0E: 0001 8000 6576      SET r0 6576
0B11: 0001 8001 0020      SET r1 0020
0B14: 0011 0623           CALL 0623
0B16: 0004 8001 8000 7FFF EQ r1 r0 7FFF
0B1A: 0008 8001 0B20      JF r1 0B20
0B1D: 000F 8000 6576      RMEM r0 6576
0B20: 0001 8002 8000      SET r2 r0
0B23: 000F 8001 6576      RMEM r1 6576
0B26: 0002 8001           PUSH r1
0B28: 0010 6576 8002      WMEM 6576 r2
0B2B: 0001 8000 6B06      SET r0 6B06
0B2E: 0001 8001 6576      SET r1 6576
0B31: 0011 0634           CALL 0634
0B33: 0003 8001           POP r1
0B35: 0010 6576 8001      WMEM 6576 r1
0B38: 0004 8001 8000 7FFF EQ r1 r0 7FFF
0B3C: 0008 8001 0B45      JF r1 0B45
0B3F: 0001 8000 0000      SET r0 0000
0B42: 0001 8002 0000      SET r2 0000
0B45: 0009 8001 6B0E 0001 ADD r1 6B0E 0001
0B49: 0009 8001 8001 8000 ADD r1 r1 r0
0B4D: 000F 8001 8001      RMEM r1 r1
0B50: 000F 8003 6576      RMEM r3 6576
0B53: 0004 8003 8003 8002 EQ r3 r3 r2
0B57: 0007 8003 0B80      JT r3 0B80
0B5A: 000A 8000 8002 7FFF MULT r0 r2 7FFF
0B5E: 000F 8003 6576      RMEM r3 6576
0B61: 0009 8003 8000 8003 ADD r3 r0 r3
0B65: 0008 8002 0B6C      JF r2 0B6C
0B68: 0009 8003 8003 7FFF ADD r3 r3 7FFF
0B6C: 000B 8003 8003 0020 MOD r3 r3 0020
0B70: 0009 8000 6576 8002 ADD r0 6576 r2
0B74: 0008 8002 0B7B      JF r2 0B7B
0B77: 0009 8000 8000 0001 ADD r0 r0 0001
0B7B: 0010 8000 8003      WMEM r0 r3
0B7E: 0006 0B86           JMP 0B86
0B80: 0001 8000 6576      SET r0 6576
0B83: 0010 8000 0000      WMEM r0 0000
0B86: 0011 8001           CALL r1
0B88: 0007 8001 0AB6      JT r1 0AB6
0B8B: 0003 8003           POP r3
0B8D: 0003 8002           POP r2
0B8F: 0003 8001           POP r1
0B91: 0003 8000           POP r0
0B93: 0012                RET
0B94: 0002 8000           PUSH r0
0B96: 0002 8001           PUSH r1
0B98: 0002 8002           PUSH r2
0B9A: 000F 8001 8000      RMEM r1 r0
0B9D: 0008 8001 0BD8      JF r1 0BD8
0BA0: 0011 1721           CALL 1721
0BA2: 0008 8000 0BBE      JF r0 0BBE
0BA5: 0002 8000           PUSH r0
0BA7: 0011 1766           CALL 1766
0BA9: 0001 8001 8000      SET r1 r0
0BAC: 0003 8000           POP r0
0BAE: 0008 8001 0BBE      JF r1 0BBE
0BB1: 0009 8001 8000 0001 ADD r1 r0 0001
0BB5: 000F 8000 8001      RMEM r0 r1
0BB8: 0011 05EE           CALL 05EE
0BBA: 0013 000A           OUT '\n'
0BBC: 0006 0CA6           JMP 0CA6
0BBE: 0002 8000           PUSH r0
0BC0: 0002 8001           PUSH r1
0BC2: 0002 8002           PUSH r2
0BC4: 0001 8000 6B28      SET r0 6B28
0BC7: 0001 8001 05FB      SET r1 05FB
0BCA: 0009 8002 017D 2579 ADD r2 017D 2579
0BCE: 0011 05B2           CALL 05B2
0BD0: 0003 8002           POP r2
0BD2: 0003 8001           POP r1
0BD4: 0003 8000           POP r0
0BD6: 0006 0CA6           JMP 0CA6
0BD8: 000F 8000 0AAC      RMEM r0 0AAC
0BDB: 0002 8000           PUSH r0
0BDD: 0013 003D           OUT =
0BDF: 0013 003D           OUT =
0BE1: 0013 0020           OUT  
0BE3: 0009 8000 8000 0000 ADD r0 r0 0000
0BE7: 000F 8000 8000      RMEM r0 r0
0BEA: 0011 05EE           CALL 05EE
0BEC: 0013 0020           OUT  
0BEE: 0013 003D           OUT =
0BF0: 0013 003D           OUT =
0BF2: 0013 000A           OUT '\n'
0BF4: 0003 8000           POP r0
0BF6: 0002 8000           PUSH r0
0BF8: 0009 8000 8000 0001 ADD r0 r0 0001
0BFC: 000F 8000 8000      RMEM r0 r0
0BFF: 000F 8001 8000      RMEM r1 r0
0C02: 0004 8001 8001 0002 EQ r1 r1 0002
0C06: 0008 8001 0C20      JF r1 0C20
0C09: 0002 8000           PUSH r0
0C0B: 0001 8000 0A78      SET r0 0A78
0C0E: 0011 1766           CALL 1766
0C10: 0001 8001 8000      SET r1 r0
0C13: 0003 8000           POP r0
0C15: 0009 8000 8000 0001 ADD r0 r0 0001
0C19: 0009 8000 8000 8001 ADD r0 r0 r1
0C1D: 000F 8000 8000      RMEM r0 r0
0C20: 0011 05EE           CALL 05EE
0C22: 0013 000A           OUT '\n'
0C24: 0003 8000           POP r0
0C26: 0002 8000           PUSH r0
0C28: 0011 16BF           CALL 16BF
0C2A: 0008 8000 0C4A      JF r0 0C4A
0C2D: 0002 8000           PUSH r0
0C2F: 0002 8001           PUSH r1
0C31: 0002 8002           PUSH r2
0C33: 0001 8000 6B3F      SET r0 6B3F
0C36: 0001 8001 05FB      SET r1 05FB
0C39: 0009 8002 040A 0164 ADD r2 040A 0164
0C3D: 0011 05B2           CALL 05B2
0C3F: 0003 8002           POP r2
0C41: 0003 8001           POP r1
0C43: 0003 8000           POP r0
0C45: 000F 8002 0AAC      RMEM r2 0AAC
0C48: 0011 16F4           CALL 16F4
0C4A: 0003 8000           POP r0
0C4C: 0002 8000           PUSH r0
0C4E: 0009 8000 8000 0002 ADD r0 r0 0002
0C52: 000F 8000 8000      RMEM r0 r0
0C55: 000F 8000 8000      RMEM r0 r0
0C58: 0004 8002 8000 0001 EQ r2 r0 0001
0C5C: 0013 000A           OUT '\n'
0C5E: 0013 0054           OUT T
0C60: 0013 0068           OUT h
0C62: 0013 0065           OUT e
0C64: 0013 0072           OUT r
0C66: 0013 0065           OUT e
0C68: 0013 0020           OUT  
0C6A: 0007 8002 0C75      JT r2 0C75
0C6D: 0013 0061           OUT a
0C6F: 0013 0072           OUT r
0C71: 0013 0065           OUT e
0C73: 0006 0C79           JMP 0C79
0C75: 0013 0069           OUT i
0C77: 0013 0073           OUT s
0C79: 0013 0020           OUT  
0C7B: 0011 07D1           CALL 07D1
0C7D: 0013 0020           OUT  
0C7F: 0013 0065           OUT e
0C81: 0013 0078           OUT x
0C83: 0013 0069           OUT i
0C85: 0013 0074           OUT t
0C87: 0004 8002 8000 0001 EQ r2 r0 0001
0C8B: 0007 8002 0C90      JT r2 0C90
0C8E: 0013 0073           OUT s
0C90: 0013 003A           OUT :
0C92: 0013 000A           OUT '\n'
0C94: 0003 8000           POP r0
0C96: 0002 8000           PUSH r0
0C98: 0009 8000 8000 0002 ADD r0 r0 0002
0C9C: 000F 8000 8000      RMEM r0 r0
0C9F: 0001 8001 16B6      SET r1 16B6
0CA2: 0011 05B2           CALL 05B2
0CA4: 0003 8000           POP r0
0CA6: 0003 8002           POP r2
0CA8: 0003 8001           POP r1
0CAA: 0003 8000           POP r0
0CAC: 0012                RET
0CAD: 0002 8000           PUSH r0
0CAF: 0002 8001           PUSH r1
0CB1: 0002 8002           PUSH r2
0CB3: 0001 8001 8000      SET r1 r0
0CB6: 000F 8000 0AAC      RMEM r0 0AAC
0CB9: 0009 8000 8000 0002 ADD r0 r0 0002
0CBD: 000F 8000 8000      RMEM r0 r0
0CC0: 0011 0634           CALL 0634
0CC2: 0004 8002 8000 7FFF EQ r2 r0 7FFF
0CC6: 0007 8002 0CE6      JT r2 0CE6
0CC9: 000F 8002 0AAC      RMEM r2 0AAC
0CCC: 0009 8002 8002 0003 ADD r2 r2 0003
0CD0: 000F 8002 8002      RMEM r2 r2
0CD3: 0009 8002 8002 0001 ADD r2 r2 0001
0CD7: 0009 8002 8002 8000 ADD r2 r2 r0
0CDB: 000F 8002 8002      RMEM r2 r2
0CDE: 0010 0AAC 8002      WMEM 0AAC r2
0CE1: 0010 0AAD 0000      WMEM 0AAD 0000
0CE4: 0006 0CFE           JMP 0CFE
0CE6: 0002 8000           PUSH r0
0CE8: 0002 8001           PUSH r1
0CEA: 0002 8002           PUSH r2
0CEC: 0001 8000 6B5A      SET r0 6B5A
0CEF: 0001 8001 05FB      SET r1 05FB
0CF2: 0009 8002 1231 6742 ADD r2 1231 6742
0CF6: 0011 05B2           CALL 05B2
0CF8: 0003 8002           POP r2
0CFA: 0003 8001           POP r1
0CFC: 0003 8000           POP r0
0CFE: 0003 8002           POP r2
0D00: 0003 8001           POP r1
0D02: 0003 8000           POP r0
0D04: 0012                RET
0D05: 0002 8000           PUSH r0
0D07: 0002 8000           PUSH r0
0D09: 0002 8001           PUSH r1
0D0B: 0002 8002           PUSH r2
0D0D: 0001 8000 6B8C      SET r0 6B8C
0D10: 0001 8001 05FB      SET r1 05FB
0D13: 0009 8002 493C 2436 ADD r2 493C 2436
0D17: 0011 05B2           CALL 05B2
0D19: 0003 8002           POP r2
0D1B: 0003 8001           POP r1
0D1D: 0003 8000           POP r0
0D1F: 0003 8000           POP r0
0D21: 0012                RET
0D22: 0002 8000           PUSH r0
0D24: 0002 8002           PUSH r2
0D26: 0002 8000           PUSH r0
0D28: 0002 8001           PUSH r1
0D2A: 0002 8002           PUSH r2
0D2C: 0001 8000 6D85      SET r0 6D85
0D2F: 0001 8001 05FB      SET r1 05FB
0D32: 0009 8002 0CC6 099E ADD r2 0CC6 099E
0D36: 0011 05B2           CALL 05B2
0D38: 0003 8002           POP r2
0D3A: 0003 8001           POP r1
0D3C: 0003 8000           POP r0
0D3E: 0001 8002 0000      SET r2 0000
0D41: 0011 16F4           CALL 16F4
0D43: 0003 8002           POP r2
0D45: 0003 8000           POP r0
0D47: 0012                RET
0D48: 0002 8000           PUSH r0
0D4A: 0002 8001           PUSH r1
0D4C: 0002 8002           PUSH r2
0D4E: 0011 1721           CALL 1721
0D50: 0008 8000 0D81      JF r0 0D81
0D53: 0009 8001 8000 0002 ADD r1 r0 0002
0D57: 000F 8000 8001      RMEM r0 r1
0D5A: 000F 8002 0AAC      RMEM r2 0AAC
0D5D: 0004 8002 8000 8002 EQ r2 r0 r2
0D61: 0008 8002 0D81      JF r2 0D81
0D64: 0010 8001 0000      WMEM r1 0000
0D67: 0002 8000           PUSH r0
0D69: 0002 8001           PUSH r1
0D6B: 0002 8002           PUSH r2
0D6D: 0001 8000 6D96      SET r0 6D96
0D70: 0001 8001 05FB      SET r1 05FB
0D73: 0009 8002 0034 03AF ADD r2 0034 03AF
0D77: 0011 05B2           CALL 05B2
0D79: 0003 8002           POP r2
0D7B: 0003 8001           POP r1
0D7D: 0003 8000           POP r0
0D7F: 0006 0D99           JMP 0D99
0D81: 0002 8000           PUSH r0
0D83: 0002 8001           PUSH r1
0D85: 0002 8002           PUSH r2
0D87: 0001 8000 6D9E      SET r0 6D9E
0D8A: 0001 8001 05FB      SET r1 05FB
0D8D: 0009 8002 3201 26F7 ADD r2 3201 26F7
0D91: 0011 05B2           CALL 05B2
0D93: 0003 8002           POP r2
0D95: 0003 8001           POP r1
0D97: 0003 8000           POP r0
0D99: 0003 8002           POP r2
0D9B: 0003 8001           POP r1
0D9D: 0003 8000           POP r0
0D9F: 0012                RET
0DA0: 0002 8000           PUSH r0
0DA2: 0002 8001           PUSH r1
0DA4: 0011 1721           CALL 1721
0DA6: 0008 8000 0DD3      JF r0 0DD3
0DA9: 0009 8001 8000 0002 ADD r1 r0 0002
0DAD: 000F 8000 8001      RMEM r0 r1
0DB0: 0007 8000 0DD3      JT r0 0DD3
0DB3: 000F 8000 0AAC      RMEM r0 0AAC
0DB6: 0010 8001 8000      WMEM r1 r0
0DB9: 0002 8000           PUSH r0
0DBB: 0002 8001           PUSH r1
0DBD: 0002 8002           PUSH r2
0DBF: 0001 8000 6DBA      SET r0 6DBA
0DC2: 0001 8001 05FB      SET r1 05FB
0DC5: 0009 8002 1630 2C32 ADD r2 1630 2C32
0DC9: 0011 05B2           CALL 05B2
0DCB: 0003 8002           POP r2
0DCD: 0003 8001           POP r1
0DCF: 0003 8000           POP r0
0DD1: 0006 0DEB           JMP 0DEB
0DD3: 0002 8000           PUSH r0
0DD5: 0002 8001           PUSH r1
0DD7: 0002 8002           PUSH r2
0DD9: 0001 8000 6DC4      SET r0 6DC4
0DDC: 0001 8001 05FB      SET r1 05FB
0DDF: 0009 8002 120E 40DA ADD r2 120E 40DA
0DE3: 0011 05B2           CALL 05B2
0DE5: 0003 8002           POP r2
0DE7: 0003 8001           POP r1
0DE9: 0003 8000           POP r0
0DEB: 0003 8001           POP r1
0DED: 0003 8000           POP r0
0DEF: 0012                RET
0DF0: 0002 8000           PUSH r0
0DF2: 0002 8001           PUSH r1
0DF4: 0011 1721           CALL 1721
0DF6: 0008 8000 0E11      JF r0 0E11
0DF9: 0009 8001 8000 0002 ADD r1 r0 0002
0DFD: 000F 8001 8001      RMEM r1 r1
0E00: 0007 8001 0E11      JT r1 0E11
0E03: 0009 8001 8000 0003 ADD r1 r0 0003
0E07: 000F 8001 8001      RMEM r1 r1
0E0A: 0008 8001 0E2B      JF r1 0E2B
0E0D: 0011 8001           CALL r1
0E0F: 0006 0E43           JMP 0E43
0E11: 0002 8000           PUSH r0
0E13: 0002 8001           PUSH r1
0E15: 0002 8002           PUSH r2
0E17: 0001 8000 6DE7      SET r0 6DE7
0E1A: 0001 8001 05FB      SET r1 05FB
0E1D: 0009 8002 2D4E 0E2D ADD r2 2D4E 0E2D
0E21: 0011 05B2           CALL 05B2
0E23: 0003 8002           POP r2
0E25: 0003 8001           POP r1
0E27: 0003 8000           POP r0
0E29: 0006 0E43           JMP 0E43
0E2B: 0002 8000           PUSH r0
0E2D: 0002 8001           PUSH r1
0E2F: 0002 8002           PUSH r2
0E31: 0001 8000 6E0A      SET r0 6E0A
0E34: 0001 8001 05FB      SET r1 05FB
0E37: 0009 8002 09E4 1910 ADD r2 09E4 1910
0E3B: 0011 05B2           CALL 05B2
0E3D: 0003 8002           POP r2
0E3F: 0003 8001           POP r1
0E41: 0003 8000           POP r0
0E43: 0003 8001           POP r1
0E45: 0003 8000           POP r0
0E47: 0012                RET
0E48: 0002 8000           PUSH r0
0E4A: 0002 8001           PUSH r1
0E4C: 0002 8002           PUSH r2
0E4E: 0001 8000 0A78      SET r0 0A78
0E51: 0011 1766           CALL 1766
0E53: 0007 8000 0E6E      JT r0 0E6E
0E56: 0009 8000 0A74 0002 ADD r0 0A74 0002
0E5A: 0010 8000 7FFF      WMEM r0 7FFF
0E5D: 0009 8000 0A78 0002 ADD r0 0A78 0002
0E61: 0010 8000 7FFF      WMEM r0 7FFF
0E64: 0009 8000 0A70 0002 ADD r0 0A70 0002
0E68: 0010 8000 7FFF      WMEM r0 7FFF
0E6B: 0010 0AAC 0A58      WMEM 0AAC 0A58
0E6E: 0003 8002           POP r2
0E70: 0003 8001           POP r1
0E72: 0003 8000           POP r0
0E74: 0012                RET
0E75: 0002 8000           PUSH r0
0E77: 0002 8001           PUSH r1
0E79: 0002 8002           PUSH r2
0E7B: 0001 8000 6E2C      SET r0 6E2C
0E7E: 0001 8001 05FB      SET r1 05FB
0E81: 0009 8002 48FF 1C7E ADD r2 48FF 1C7E
0E85: 0011 05B2           CALL 05B2
0E87: 0003 8002           POP r2
0E89: 0003 8001           POP r1
0E8B: 0003 8000           POP r0
0E8D: 0000                HLT
0E8E: 0000                HLT
0E8F: 0002 8001           PUSH r1
0E91: 000F 8001 0E8E      RMEM r1 0E8E
0E94: 000D 8001 8001 8000 OR r1 r1 r0
0E98: 0010 0E8E 8001      WMEM 0E8E r1
0E9B: 0003 8001           POP r1
0E9D: 0012                RET
0E9E: 0010 0E8E 0000      WMEM 0E8E 0000
0EA1: 0012                RET
0EA2: 0002 8000           PUSH r0
0EA4: 0001 8000 0001      SET r0 0001
0EA7: 0011 0E8F           CALL 0E8F
0EA9: 0003 8000           POP r0
0EAB: 0012                RET
0EAC: 0002 8000           PUSH r0
0EAE: 0001 8000 0002      SET r0 0002
0EB1: 0011 0E8F           CALL 0E8F
0EB3: 0003 8000           POP r0
0EB5: 0012                RET
0EB6: 0002 8000           PUSH r0
0EB8: 0001 8000 0004      SET r0 0004
0EBB: 0011 0E8F           CALL 0E8F
0EBD: 0003 8000           POP r0
0EBF: 0012                RET
0EC0: 0002 8000           PUSH r0
0EC2: 0001 8000 0008      SET r0 0008
0EC5: 0011 0E8F           CALL 0E8F
0EC7: 0003 8000           POP r0
0EC9: 0012                RET
0ECA: 0002 8000           PUSH r0
0ECC: 0001 8000 0010      SET r0 0010
0ECF: 0011 0E8F           CALL 0E8F
0ED1: 0003 8000           POP r0
0ED3: 0012                RET
0ED4: 0002 8000           PUSH r0
0ED6: 0001 8000 0020      SET r0 0020
0ED9: 0011 0E8F           CALL 0E8F
0EDB: 0003 8000           POP r0
0EDD: 0012                RET
0EDE: 0002 8000           PUSH r0
0EE0: 0002 8001           PUSH r1
0EE2: 0002 8002           PUSH r2
0EE4: 0002 8003           PUSH r3
0EE6: 0001 8000 0040      SET r0 0040
0EE9: 0011 0E8F           CALL 0E8F
0EEB: 0002 8000           PUSH r0
0EED: 0002 8001           PUSH r1
0EEF: 0002 8002           PUSH r2
0EF1: 0001 8000 6E4C      SET r0 6E4C
0EF4: 0001 8001 05FB      SET r1 05FB
0EF7: 0009 8002 119E 284F ADD r2 119E 284F
0EFB: 0011 05B2           CALL 05B2
0EFD: 0003 8002           POP r2
0EFF: 0003 8001           POP r1
0F01: 0003 8000           POP r0
0F03: 000F 8000 0E8E      RMEM r0 0E8E
0F06: 0001 8001 650A      SET r1 650A
0F09: 0001 8002 7FFF      SET r2 7FFF
0F0C: 0001 8003 6E8B      SET r3 6E8B
0F0F: 0011 0731           CALL 0731
0F11: 0002 8000           PUSH r0
0F13: 0002 8001           PUSH r1
0F15: 0002 8002           PUSH r2
0F17: 0001 8000 6E8F      SET r0 6E8F
0F1A: 0001 8001 05FB      SET r1 05FB
0F1D: 0009 8002 1A6C 4C0D ADD r2 1A6C 4C0D
0F21: 0011 05B2           CALL 05B2
0F23: 0003 8002           POP r2
0F25: 0003 8001           POP r1
0F27: 0003 8000           POP r0
0F29: 0010 0AAC 0971      WMEM 0AAC 0971
0F2C: 0003 8003           POP r3
0F2E: 0003 8002           POP r2
0F30: 0003 8001           POP r1
0F32: 0003 8000           POP r0
0F34: 0012                RET
0F35: 0002 8000           PUSH r0
0F37: 0002 8001           PUSH r1
0F39: 000F 8000 099E      RMEM r0 099E
0F3C: 000F 8001 69DD      RMEM r1 69DD
0F3F: 0004 8000 8000 8001 EQ r0 r0 r1
0F43: 0007 8000 0F64      JT r0 0F64
0F46: 0002 8000           PUSH r0
0F48: 0002 8001           PUSH r1
0F4A: 0002 8002           PUSH r2
0F4C: 0001 8000 6EBB      SET r0 6EBB
0F4F: 0001 8001 05FB      SET r1 05FB
0F52: 0009 8002 1962 281B ADD r2 1962 281B
0F56: 0011 05B2           CALL 05B2
0F58: 0003 8002           POP r2
0F5A: 0003 8001           POP r1
0F5C: 0003 8000           POP r0
0F5E: 0010 0AAC 0999      WMEM 0AAC 0999
0F61: 0010 0AAD 0999      WMEM 0AAD 0999
0F64: 0003 8001           POP r1
0F66: 0003 8000           POP r0
0F68: 0012                RET
0F69: 6597
0F6A: 659D
0F6B: 65A1
0F6C: 0865
0F6D: 086E
0F6E: 0882
0F6F: 0000                HLT
0F70: 0016
0F71: 0000                HLT
0F72: 0000                HLT
0F73: 0000                HLT
0F74: 0000                HLT
0F75: 0000                HLT
0F76: 0002 8000           PUSH r0
0F78: 0002 8001           PUSH r1
0F7A: 0001 8000 0002      SET r0 0002
0F7D: 0001 8001 0000      SET r1 0000
0F80: 0011 107A           CALL 107A
0F82: 0003 8001           POP r1
0F84: 0003 8000           POP r0
0F86: 0012                RET
0F87: 0002 8000           PUSH r0
0F89: 0002 8001           PUSH r1
0F8B: 0001 8000 0008      SET r0 0008
0F8E: 0001 8001 0001      SET r1 0001
0F91: 0011 10B7           CALL 10B7
0F93: 0003 8001           POP r1
0F95: 0003 8000           POP r0
0F97: 0012                RET
0F98: 0002 8000           PUSH r0
0F9A: 0002 8001           PUSH r1
0F9C: 0001 8000 0001      SET r0 0001
0F9F: 0001 8001 0002      SET r1 0002
0FA2: 0011 107A           CALL 107A
0FA4: 0003 8001           POP r1
0FA6: 0003 8000           POP r0
0FA8: 0012                RET
0FA9: 0002 8000           PUSH r0
0FAB: 0002 8001           PUSH r1
0FAD: 0001 8000 0001      SET r0 0001
0FB0: 0001 8001 0003      SET r1 0003
0FB3: 0011 10B7           CALL 10B7
0FB5: 0011 11B5           CALL 11B5
0FB7: 0003 8001           POP r1
0FB9: 0003 8000           POP r0
0FBB: 0012                RET
0FBC: 0002 8000           PUSH r0
0FBE: 0002 8001           PUSH r1
0FC0: 0001 8000 0004      SET r0 0004
0FC3: 0001 8001 0004      SET r1 0004
0FC6: 0011 10B7           CALL 10B7
0FC8: 0003 8001           POP r1
0FCA: 0003 8000           POP r0
0FCC: 0012                RET
0FCD: 0002 8000           PUSH r0
0FCF: 0002 8001           PUSH r1
0FD1: 0001 8000 0002      SET r0 0002
0FD4: 0001 8001 0005      SET r1 0005
0FD7: 0011 107A           CALL 107A
0FD9: 0003 8001           POP r1
0FDB: 0003 8000           POP r0
0FDD: 0012                RET
0FDE: 0002 8000           PUSH r0
0FE0: 0002 8001           PUSH r1
0FE2: 0001 8000 000B      SET r0 000B
0FE5: 0001 8001 0006      SET r1 0006
0FE8: 0011 10B7           CALL 10B7
0FEA: 0003 8001           POP r1
0FEC: 0003 8000           POP r0
0FEE: 0012                RET
0FEF: 0002 8000           PUSH r0
0FF1: 0002 8001           PUSH r1
0FF3: 0001 8000 0002      SET r0 0002
0FF6: 0001 8001 0007      SET r1 0007
0FF9: 0011 107A           CALL 107A
0FFB: 0003 8001           POP r1
0FFD: 0003 8000           POP r0
0FFF: 0012                RET
1000: 0002 8000           PUSH r0
1002: 0002 8001           PUSH r1
1004: 0001 8000 0000      SET r0 0000
1007: 0001 8001 0008      SET r1 0008
100A: 0011 107A           CALL 107A
100C: 0003 8001           POP r1
100E: 0003 8000           POP r0
1010: 0012                RET
1011: 0002 8000           PUSH r0
1013: 0002 8001           PUSH r1
1015: 0001 8000 0004      SET r0 0004
1018: 0001 8001 0009      SET r1 0009
101B: 0011 10B7           CALL 10B7
101D: 0003 8001           POP r1
101F: 0003 8000           POP r0
1021: 0012                RET
1022: 0002 8000           PUSH r0
1024: 0002 8001           PUSH r1
1026: 0001 8000 0001      SET r0 0001
1029: 0001 8001 000A      SET r1 000A
102C: 0011 107A           CALL 107A
102E: 0003 8001           POP r1
1030: 0003 8000           POP r0
1032: 0012                RET
1033: 0002 8000           PUSH r0
1035: 0002 8001           PUSH r1
1037: 0001 8000 0012      SET r0 0012
103A: 0001 8001 000B      SET r1 000B
103D: 0011 10B7           CALL 10B7
103F: 0003 8001           POP r1
1041: 0003 8000           POP r0
1043: 0012                RET
1044: 0011 1203           CALL 1203
1046: 0012                RET
1047: 0002 8000           PUSH r0
1049: 0002 8001           PUSH r1
104B: 0001 8000 0001      SET r0 0001
104E: 0001 8001 000C      SET r1 000C
1051: 0011 107A           CALL 107A
1053: 0003 8001           POP r1
1055: 0003 8000           POP r0
1057: 0012                RET
1058: 0002 8000           PUSH r0
105A: 0002 8001           PUSH r1
105C: 0001 8000 0009      SET r0 0009
105F: 0001 8001 000D      SET r1 000D
1062: 0011 10B7           CALL 10B7
1064: 0003 8001           POP r1
1066: 0003 8000           POP r0
1068: 0012                RET
1069: 0002 8000           PUSH r0
106B: 0002 8001           PUSH r1
106D: 0001 8000 0002      SET r0 0002
1070: 0001 8001 000E      SET r1 000E
1073: 0011 107A           CALL 107A
1075: 0003 8001           POP r1
1077: 0003 8000           POP r0
1079: 0012                RET
107A: 0002 8000           PUSH r0
107C: 0002 8001           PUSH r1
107E: 0002 8002           PUSH r2
1080: 0009 8002 0A9C 0002 ADD r2 0A9C 0002
1084: 000F 8002 8002      RMEM r2 r2
1087: 0007 8002 10B0      JT r2 10B0
108A: 0011 1135           CALL 1135
108C: 0010 0F6F 8000      WMEM 0F6F r0
108F: 0009 8001 8000 0F69 ADD r1 r0 0F69
1093: 000F 8001 8001      RMEM r1 r1
1096: 0001 8000 65A8      SET r0 65A8
1099: 0011 05EE           CALL 05EE
109B: 0001 8000 8001      SET r0 r1
109E: 0011 05EE           CALL 05EE
10A0: 0001 8000 65E8      SET r0 65E8
10A3: 0011 05EE           CALL 05EE
10A5: 0001 8000 8001      SET r0 r1
10A8: 0011 05EE           CALL 05EE
10AA: 0013 002E           OUT .
10AC: 0013 000A           OUT '\n'
10AE: 0013 000A           OUT '\n'
10B0: 0003 8002           POP r2
10B2: 0003 8001           POP r1
10B4: 0003 8000           POP r0
10B6: 0012                RET
10B7: 0002 8000           PUSH r0
10B9: 0002 8001           PUSH r1
10BB: 0002 8002           PUSH r2
10BD: 0009 8002 0A9C 0002 ADD r2 0A9C 0002
10C1: 000F 8002 8002      RMEM r2 r2
10C4: 0007 8002 112E      JT r2 112E
10C7: 0011 1135           CALL 1135
10C9: 0002 8000           PUSH r0
10CB: 000F 8000 0F6F      RMEM r0 0F6F
10CE: 0009 8001 8000 0F69 ADD r1 r0 0F69
10D2: 000F 8001 8001      RMEM r1 r1
10D5: 0001 8000 660A      SET r0 660A
10D8: 0011 05EE           CALL 05EE
10DA: 0001 8000 8001      SET r0 r1
10DD: 0011 05EE           CALL 05EE
10DF: 0001 8000 663A      SET r0 663A
10E2: 0011 05EE           CALL 05EE
10E4: 0003 8000           POP r0
10E6: 0001 8001 8000      SET r1 r0
10E9: 000F 8000 0F70      RMEM r0 0F70
10EC: 000F 8002 0F6F      RMEM r2 0F6F
10EF: 0009 8002 8002 0F6C ADD r2 r2 0F6C
10F3: 000F 8002 8002      RMEM r2 r2
10F6: 0011 8002           CALL r2
10F8: 0007 8001 1127      JT r1 1127
10FB: 000F 8001 0F70      RMEM r1 0F70
10FE: 0010 0F70 8000      WMEM 0F70 r0
1101: 0005 8002 8000 8001 GT r2 r0 r1
1105: 0008 8002 1111      JF r2 1111
1108: 0002 8000           PUSH r0
110A: 0001 8000 667B      SET r0 667B
110D: 0011 05EE           CALL 05EE
110F: 0003 8000           POP r0
1111: 0005 8002 8001 8000 GT r2 r1 r0
1115: 0008 8002 1121      JF r2 1121
1118: 0002 8000           PUSH r0
111A: 0001 8000 669B      SET r0 669B
111D: 0011 05EE           CALL 05EE
111F: 0003 8000           POP r0
1121: 0013 000A           OUT '\n'
1123: 0013 000A           OUT '\n'
1125: 0006 112E           JMP 112E
1127: 0011 1234           CALL 1234
1129: 0001 8000 66BB      SET r0 66BB
112C: 0011 05EE           CALL 05EE
112E: 0003 8002           POP r2
1130: 0003 8001           POP r1
1132: 0003 8000           POP r0
1134: 0012                RET
1135: 0002 8000           PUSH r0
1137: 0002 8001           PUSH r1
1139: 0002 8002           PUSH r2
113B: 0002 8003           PUSH r3
113D: 0002 8004           PUSH r4
113F: 0002 8005           PUSH r5
1141: 000F 8005 0F71      RMEM r5 0F71
1144: 0005 8003 8005 752F GT r3 r5 752F
1148: 0007 8003 1152      JT r3 1152
114B: 0009 8005 8005 0001 ADD r5 r5 0001
114F: 0010 0F71 8005      WMEM 0F71 r5
1152: 0001 8003 8000      SET r3 r0
1155: 0001 8004 8001      SET r4 r1
1158: 0009 8000 8005 0002 ADD r0 r5 0002
115C: 0011 08E9           CALL 08E9
115E: 000F 8001 0F72      RMEM r1 0F72
1161: 000D 8000 8001 8000 OR r0 r1 r0
1165: 0001 8001 8004      SET r1 r4
1168: 0011 08C8           CALL 08C8
116A: 0010 0F72 8000      WMEM 0F72 r0
116D: 0001 8000 0F73      SET r0 0F73
1170: 0009 8001 8005 0002 ADD r1 r5 0002
1174: 0001 8002 8004      SET r2 r4
1177: 0011 11A3           CALL 11A3
1179: 0001 8000 0F74      SET r0 0F74
117C: 000A 8001 8005 8005 MULT r1 r5 r5
1180: 000A 8002 8004 8004 MULT r2 r4 r4
1184: 0011 11A3           CALL 11A3
1186: 0001 8000 0F75      SET r0 0F75
1189: 0001 8001 000D      SET r1 000D
118C: 000A 8002 8003 0009 MULT r2 r3 0009
1190: 000A 8002 8002 8002 MULT r2 r2 r2
1194: 0011 11A3           CALL 11A3
1196: 0003 8005           POP r5
1198: 0003 8004           POP r4
119A: 0003 8003           POP r3
119C: 0003 8002           POP r2
119E: 0003 8001           POP r1
11A0: 0003 8000           POP r0
11A2: 0012                RET
11A3: 0002 8000           PUSH r0
11A5: 000F 8000 8000      RMEM r0 r0
11A8: 0011 08C8           CALL 08C8
11AA: 0001 8001 8002      SET r1 r2
11AD: 0011 084D           CALL 084D
11AF: 0003 8001           POP r1
11B1: 0010 8001 8000      WMEM r1 r0
11B4: 0012                RET
11B5: 0002 8000           PUSH r0
11B7: 0009 8000 0A9C 0002 ADD r0 0A9C 0002
11BB: 000F 8000 8000      RMEM r0 r0
11BE: 0007 8000 1200      JT r0 1200
11C1: 0001 8000 66D1      SET r0 66D1
11C4: 0011 05EE           CALL 05EE
11C6: 000F 8000 0F70      RMEM r0 0F70
11C9: 0004 8000 8000 001E EQ r0 r0 001E
11CD: 0007 8000 11DE      JT r0 11DE
11D0: 0001 8000 66F2      SET r0 66F2
11D3: 0011 05EE           CALL 05EE
11D5: 0001 8000 671E      SET r0 671E
11D8: 0011 05EE           CALL 05EE
11DA: 0011 1234           CALL 1234
11DC: 0006 1200           JMP 1200
11DE: 0001 8000 6748      SET r0 6748
11E1: 0011 05EE           CALL 05EE
11E3: 000F 8000 0F72      RMEM r0 0F72
11E6: 0009 8000 8000 0001 ADD r0 r0 0001
11EA: 0007 8000 11F4      JT r0 11F4
11ED: 0001 8000 6774      SET r0 6774
11F0: 0011 05EE           CALL 05EE
11F2: 0006 11D5           JMP 11D5
11F4: 0001 8000 67D8      SET r0 67D8
11F7: 0011 05EE           CALL 05EE
11F9: 0009 8000 0A9C 0002 ADD r0 0A9C 0002
11FD: 0010 8000 7FFF      WMEM r0 7FFF
1200: 0003 8000           POP r0
1202: 0012                RET
1203: 0002 8000           PUSH r0
1205: 0009 8000 0A9C 0002 ADD r0 0A9C 0002
1209: 000F 8000 8000      RMEM r0 r0
120C: 0007 8000 1231      JT r0 1231
120F: 0001 8000 685D      SET r0 685D
1212: 0011 05EE           CALL 05EE
1214: 000F 8000 0AAC      RMEM r0 0AAC
1217: 0004 8000 8000 0A3F EQ r0 r0 0A3F
121B: 0007 8000 1225      JT r0 1225
121E: 0001 8000 6865      SET r0 6865
1221: 0011 05EE           CALL 05EE
1223: 0006 122A           JMP 122A
1225: 0001 8000 686B      SET r0 686B
1228: 0011 05EE           CALL 05EE
122A: 0001 8000 6871      SET r0 6871
122D: 0011 05EE           CALL 05EE
122F: 0011 1234           CALL 1234
1231: 0003 8000           POP r0
1233: 0012                RET
1234: 0002 8000           PUSH r0
1236: 0010 0F70 0016      WMEM 0F70 0016
1239: 0010 0F71 0000      WMEM 0F71 0000
123C: 0010 0F72 0000      WMEM 0F72 0000
123F: 0010 0F73 0000      WMEM 0F73 0000
1242: 0010 0F74 0000      WMEM 0F74 0000
1245: 0010 0F75 0000      WMEM 0F75 0000
1248: 0009 8000 0A9C 0002 ADD r0 0A9C 0002
124C: 0010 8000 0A3F      WMEM r0 0A3F
124F: 0003 8000           POP r0
1251: 0012                RET
1252: 0002 8000           PUSH r0
1254: 0009 8000 0A9C 0002 ADD r0 0A9C 0002
1258: 000F 8000 8000      RMEM r0 r0
125B: 0004 8000 8000 7FFF EQ r0 r0 7FFF
125F: 0007 8000 126D      JT r0 126D
1262: 0001 8000 68C8      SET r0 68C8
1265: 0011 05EE           CALL 05EE
1267: 0010 0AAC 0A12      WMEM 0AAC 0A12
126A: 0010 0AAD 0A12      WMEM 0AAD 0A12
126D: 0003 8000           POP r0
126F: 0012                RET
1270: 0002 8000           PUSH r0
1272: 0002 8001           PUSH r1
1274: 0002 8002           PUSH r2
1276: 0002 8003           PUSH r3
1278: 0002 8000           PUSH r0
127A: 0002 8001           PUSH r1
127C: 0002 8002           PUSH r2
127E: 0001 8000 6ED1      SET r0 6ED1
1281: 0001 8001 05FB      SET r1 05FB
1284: 0009 8002 01BB 06A6 ADD r2 01BB 06A6
1288: 0011 05B2           CALL 05B2
128A: 0003 8002           POP r2
128C: 0003 8001           POP r1
128E: 0003 8000           POP r0
1290: 0001 8000 1092      SET r0 1092
1293: 0001 8001 650A      SET r1 650A
1296: 0001 8002 7FFF      SET r2 7FFF
1299: 0001 8003 6EED      SET r3 6EED
129C: 0011 0731           CALL 0731
129E: 0002 8000           PUSH r0
12A0: 0002 8001           PUSH r1
12A2: 0002 8002           PUSH r2
12A4: 0001 8000 6EF1      SET r0 6EF1
12A7: 0001 8001 05FB      SET r1 05FB
12AA: 0009 8002 0E54 668E ADD r2 0E54 668E
12AE: 0011 05B2           CALL 05B2
12B0: 0003 8002           POP r2
12B2: 0003 8001           POP r1
12B4: 0003 8000           POP r0
12B6: 0003 8003           POP r3
12B8: 0003 8002           POP r2
12BA: 0003 8001           POP r1
12BC: 0003 8000           POP r0
12BE: 0012                RET
12BF: 0002 8000           PUSH r0
12C1: 0009 8000 0A70 0002 ADD r0 0A70 0002
12C5: 000F 8000 8000      RMEM r0 r0
12C8: 0007 8000 12FA      JT r0 12FA
12CB: 0009 8000 0A7C 0002 ADD r0 0A7C 0002
12CF: 0010 8000 7FFF      WMEM r0 7FFF
12D2: 0009 8000 0A70 0002 ADD r0 0A70 0002
12D6: 0010 8000 7FFF      WMEM r0 7FFF
12D9: 0009 8000 0A74 0002 ADD r0 0A74 0002
12DD: 0010 8000 0000      WMEM r0 0000
12E0: 0002 8000           PUSH r0
12E2: 0002 8001           PUSH r1
12E4: 0002 8002           PUSH r2
12E6: 0001 8000 6F25      SET r0 6F25
12E9: 0001 8001 05FB      SET r1 05FB
12EC: 0009 8002 13A9 00BF ADD r2 13A9 00BF
12F0: 0011 05B2           CALL 05B2
12F2: 0003 8002           POP r2
12F4: 0003 8001           POP r1
12F6: 0003 8000           POP r0
12F8: 0006 1312           JMP 1312
12FA: 0002 8000           PUSH r0
12FC: 0002 8001           PUSH r1
12FE: 0002 8002           PUSH r2
1300: 0001 8000 6F5E      SET r0 6F5E
1303: 0001 8001 05FB      SET r1 05FB
1306: 0009 8002 26C5 173A ADD r2 26C5 173A
130A: 0011 05B2           CALL 05B2
130C: 0003 8002           POP r2
130E: 0003 8001           POP r1
1310: 0003 8000           POP r0
1312: 0003 8000           POP r0
1314: 0012                RET
1315: 0002 8000           PUSH r0
1317: 0009 8000 0A74 0002 ADD r0 0A74 0002
131B: 0010 8000 7FFF      WMEM r0 7FFF
131E: 0009 8000 0A78 0002 ADD r0 0A78 0002
1322: 0010 8000 0000      WMEM r0 0000
1325: 0002 8000           PUSH r0
1327: 0002 8001           PUSH r1
1329: 0002 8002           PUSH r2
132B: 0001 8000 6F99      SET r0 6F99
132E: 0001 8001 05FB      SET r1 05FB
1331: 0009 8002 0067 1417 ADD r2 0067 1417
1335: 0011 05B2           CALL 05B2
1337: 0003 8002           POP r2
1339: 0003 8001           POP r1
133B: 0003 8000           POP r0
133D: 0010 0AAD 0000      WMEM 0AAD 0000
1340: 0003 8000           POP r0
1342: 0012                RET
1343: 0002 8000           PUSH r0
1345: 0009 8000 0A74 0002 ADD r0 0A74 0002
1349: 0010 8000 0000      WMEM r0 0000
134C: 0009 8000 0A78 0002 ADD r0 0A78 0002
1350: 0010 8000 7FFF      WMEM r0 7FFF
1353: 0002 8000           PUSH r0
1355: 0002 8001           PUSH r1
1357: 0002 8002           PUSH r2
1359: 0001 8000 6FB3      SET r0 6FB3
135C: 0001 8001 05FB      SET r1 05FB
135F: 0009 8002 3C24 0BC3 ADD r2 3C24 0BC3
1363: 0011 05B2           CALL 05B2
1365: 0003 8002           POP r2
1367: 0003 8001           POP r1
1369: 0003 8000           POP r0
136B: 0010 0AAD 0000      WMEM 0AAD 0000
136E: 0003 8000           POP r0
1370: 0012                RET
1371: 0002 8002           PUSH r2
1373: 0002 8003           PUSH r3
1375: 000F 8002 0AAC      RMEM r2 0AAC
1378: 0004 8002 8002 0999 EQ r2 r2 0999
137C: 0007 8002 1399      JT r2 1399
137F: 0002 8000           PUSH r0
1381: 0002 8001           PUSH r1
1383: 0002 8002           PUSH r2
1385: 0001 8000 6FCD      SET r0 6FCD
1388: 0001 8001 05FB      SET r1 05FB
138B: 0009 8002 0044 64AD ADD r2 0044 64AD
138F: 0011 05B2           CALL 05B2
1391: 0003 8002           POP r2
1393: 0003 8001           POP r1
1395: 0003 8000           POP r0
1397: 0006 14D8           JMP 14D8
1399: 0009 8002 8000 0002 ADD r2 r0 0002
139D: 0010 8002 7FFF      WMEM r2 7FFF
13A0: 000F 8002 099E      RMEM r2 099E
13A3: 0009 8002 8002 69D7 ADD r2 r2 69D7
13A7: 0009 8002 8002 0001 ADD r2 r2 0001
13AB: 000F 8002 8002      RMEM r2 r2
13AE: 0009 8003 0999 0001 ADD r3 0999 0001
13B2: 000F 8003 8003      RMEM r3 r3
13B5: 0009 8003 8003 8002 ADD r3 r3 r2
13B9: 0009 8002 8001 0030 ADD r2 r1 0030
13BD: 0010 8003 8002      WMEM r3 r2
13C0: 000F 8002 099E      RMEM r2 099E
13C3: 0009 8002 8002 69DD ADD r2 r2 69DD
13C7: 0009 8002 8002 0001 ADD r2 r2 0001
13CB: 0010 8002 8001      WMEM r2 r1
13CE: 0002 8000           PUSH r0
13D0: 0002 8000           PUSH r0
13D2: 0002 8001           PUSH r1
13D4: 0002 8002           PUSH r2
13D6: 0001 8000 6FF8      SET r0 6FF8
13D9: 0001 8001 05FB      SET r1 05FB
13DC: 0009 8002 095D 6989 ADD r2 095D 6989
13E0: 0011 05B2           CALL 05B2
13E2: 0003 8002           POP r2
13E4: 0003 8001           POP r1
13E6: 0003 8000           POP r0
13E8: 0003 8000           POP r0
13EA: 0002 8000           PUSH r0
13EC: 0009 8002 8000 0000 ADD r2 r0 0000
13F0: 000F 8000 8002      RMEM r0 r2
13F3: 0011 05EE           CALL 05EE
13F5: 0003 8000           POP r0
13F7: 0002 8000           PUSH r0
13F9: 0002 8000           PUSH r0
13FB: 0002 8001           PUSH r1
13FD: 0002 8002           PUSH r2
13FF: 0001 8000 7007      SET r0 7007
1402: 0001 8001 05FB      SET r1 05FB
1405: 0009 8002 073A 0033 ADD r2 073A 0033
1409: 0011 05B2           CALL 05B2
140B: 0003 8002           POP r2
140D: 0003 8001           POP r1
140F: 0003 8000           POP r0
1411: 0003 8000           POP r0
1413: 000F 8002 099E      RMEM r2 099E
1416: 0009 8002 8002 0001 ADD r2 r2 0001
141A: 0010 099E 8002      WMEM 099E r2
141D: 000F 8003 69DD      RMEM r3 69DD
1420: 0004 8003 8002 8003 EQ r3 r2 r3
1424: 0008 8003 14D8      JF r3 14D8
1427: 0001 8000 0000      SET r0 0000
142A: 0009 8001 69DD 0001 ADD r1 69DD 0001
142E: 000F 8001 8001      RMEM r1 r1
1431: 0009 8000 8000 8001 ADD r0 r0 r1
1435: 0009 8001 69DD 0002 ADD r1 69DD 0002
1439: 000F 8001 8001      RMEM r1 r1
143C: 0009 8002 69DD 0003 ADD r2 69DD 0003
1440: 000F 8002 8002      RMEM r2 r2
1443: 000A 8002 8002 8002 MULT r2 r2 r2
1447: 000A 8001 8001 8002 MULT r1 r1 r2
144B: 0009 8000 8000 8001 ADD r0 r0 r1
144F: 0009 8001 69DD 0004 ADD r1 69DD 0004
1453: 000F 8001 8001      RMEM r1 r1
1456: 000A 8002 8001 8001 MULT r2 r1 r1
145A: 000A 8002 8002 8001 MULT r2 r2 r1
145E: 0009 8000 8000 8002 ADD r0 r0 r2
1462: 0009 8001 69DD 0005 ADD r1 69DD 0005
1466: 000F 8001 8001      RMEM r1 r1
1469: 000A 8001 8001 7FFF MULT r1 r1 7FFF
146D: 0009 8000 8000 8001 ADD r0 r0 r1
1471: 0004 8001 8000 018F EQ r1 r0 018F
1475: 0007 8001 14C0      JT r1 14C0
1478: 0009 8002 0A80 0002 ADD r2 0A80 0002
147C: 0010 8002 0999      WMEM r2 0999
147F: 0009 8002 0A84 0002 ADD r2 0A84 0002
1483: 0010 8002 0999      WMEM r2 0999
1486: 0009 8002 0A88 0002 ADD r2 0A88 0002
148A: 0010 8002 0999      WMEM r2 0999
148D: 0009 8002 0A8C 0002 ADD r2 0A8C 0002
1491: 0010 8002 0999      WMEM r2 0999
1494: 0009 8002 0A90 0002 ADD r2 0A90 0002
1498: 0010 8002 0999      WMEM r2 0999
149B: 0010 099E 0000      WMEM 099E 0000
149E: 0001 8000 69D7      SET r0 69D7
14A1: 0001 8001 14DD      SET r1 14DD
14A4: 0011 05B2           CALL 05B2
14A6: 0002 8000           PUSH r0
14A8: 0002 8001           PUSH r1
14AA: 0002 8002           PUSH r2
14AC: 0001 8000 7026      SET r0 7026
14AF: 0001 8001 05FB      SET r1 05FB
14B2: 0009 8002 5233 0739 ADD r2 5233 0739
14B6: 0011 05B2           CALL 05B2
14B8: 0003 8002           POP r2
14BA: 0003 8001           POP r1
14BC: 0003 8000           POP r0
14BE: 0006 14D8           JMP 14D8
14C0: 0002 8000           PUSH r0
14C2: 0002 8001           PUSH r1
14C4: 0002 8002           PUSH r2
14C6: 0001 8000 7069      SET r0 7069
14C9: 0001 8001 05FB      SET r1 05FB
14CC: 0009 8002 13D3 260F ADD r2 13D3 260F
14D0: 0011 05B2           CALL 05B2
14D2: 0003 8002           POP r2
14D4: 0003 8001           POP r1
14D6: 0003 8000           POP r0
14D8: 0003 8003           POP r3
14DA: 0003 8002           POP r2
14DC: 0012                RET
14DD: 0002 8002           PUSH r2
14DF: 0009 8002 0999 0001 ADD r2 0999 0001
14E3: 000F 8002 8002      RMEM r2 r2
14E6: 0009 8002 8002 8000 ADD r2 r2 r0
14EA: 0010 8002 005F      WMEM r2 005F
14ED: 0003 8002           POP r2
14EF: 0012                RET
14F0: 0002 8000           PUSH r0
14F2: 0002 8001           PUSH r1
14F4: 0001 8000 0A80      SET r0 0A80
14F7: 0001 8001 0002      SET r1 0002
14FA: 0011 1371           CALL 1371
14FC: 0003 8001           POP r1
14FE: 0003 8000           POP r0
1500: 0012                RET
1501: 0002 8000           PUSH r0
1503: 0002 8001           PUSH r1
1505: 0001 8000 0A84      SET r0 0A84
1508: 0001 8001 0003      SET r1 0003
150B: 0011 1371           CALL 1371
150D: 0003 8001           POP r1
150F: 0003 8000           POP r0
1511: 0012                RET
1512: 0002 8000           PUSH r0
1514: 0002 8001           PUSH r1
1516: 0001 8000 0A88      SET r0 0A88
1519: 0001 8001 0005      SET r1 0005
151C: 0011 1371           CALL 1371
151E: 0003 8001           POP r1
1520: 0003 8000           POP r0
1522: 0012                RET
1523: 0002 8000           PUSH r0
1525: 0002 8001           PUSH r1
1527: 0001 8000 0A8C      SET r0 0A8C
152A: 0001 8001 0007      SET r1 0007
152D: 0011 1371           CALL 1371
152F: 0003 8001           POP r1
1531: 0003 8000           POP r0
1533: 0012                RET
1534: 0002 8000           PUSH r0
1536: 0002 8001           PUSH r1
1538: 0001 8000 0A90      SET r0 0A90
153B: 0001 8001 0009      SET r1 0009
153E: 0011 1371           CALL 1371
1540: 0003 8001           POP r1
1542: 0003 8000           POP r0
1544: 0012                RET
1545: 0002 8000           PUSH r0
1547: 0002 8001           PUSH r1
1549: 0002 8002           PUSH r2
154B: 0008 8007 15E5      JF r7 15E5	; Only comparison of r7 outside of test code, if 0 jumps to one place, otherwise CALL 05B2
154E: 0002 8000           PUSH r0
1550: 0002 8001           PUSH r1
1552: 0002 8002           PUSH r2
1554: 0001 8000 70AC      SET r0 70AC ; r0 = 28844 now
1557: 0001 8001 05FB      SET r1 05FB ; r1 = 1531 now
155A: 0009 8002 25FE 1368 ADD r2 25FE 1368 ; r2 = 14694 now
155E: 0011 05B2           CALL 05B2
1560: 0003 8002           POP r2
1562: 0003 8001           POP r1
1564: 0003 8000           POP r0
1566: 0015                NOOP
1567: 0015                NOOP
1568: 0015                NOOP
1569: 0015                NOOP
156A: 0015                NOOP
156B: 0001 8000 0004      SET r0 0004
156E: 0001 8001 0001      SET r1 0001
1571: 0011 178B           CALL 178B
1573: 0004 8001 8000 0006 EQ r1 r0 0006
1577: 0008 8001 15CB      JF r1 15CB
157A: 0002 8000           PUSH r0
157C: 0002 8001           PUSH r1
157E: 0002 8002           PUSH r2
1580: 0001 8000 7156      SET r0 7156
1583: 0001 8001 05FB      SET r1 05FB
1586: 0009 8002 0984 6779 ADD r2 0984 6779
158A: 0011 05B2           CALL 05B2
158C: 0003 8002           POP r2
158E: 0003 8001           POP r1
1590: 0003 8000           POP r0
1592: 0001 8000 8007      SET r0 r7
1595: 0001 8001 650A      SET r1 650A
1598: 0001 8002 7FFF      SET r2 7FFF
159B: 0002 8003           PUSH r3
159D: 0001 8003 7239      SET r3 7239
15A0: 0011 0731           CALL 0731
15A2: 0003 8003           POP r3
15A4: 0002 8000           PUSH r0
15A6: 0002 8001           PUSH r1
15A8: 0002 8002           PUSH r2
15AA: 0001 8000 723D      SET r0 723D
15AD: 0001 8001 05FB      SET r1 05FB
15B0: 0009 8002 06E6 0106 ADD r2 06E6 0106
15B4: 0011 05B2           CALL 05B2
15B6: 0003 8002           POP r2
15B8: 0003 8001           POP r1
15BA: 0003 8000           POP r0
15BC: 0010 0AAC 09C2      WMEM 0AAC 09C2
15BF: 0010 0AAD 0000      WMEM 0AAD 0000
15C2: 0009 8001 0A94 0002 ADD r1 0A94 0002
15C6: 0010 8001 7FFF      WMEM r1 7FFF
15C9: 0006 1652           JMP 1652
15CB: 0002 8000           PUSH r0
15CD: 0002 8001           PUSH r1
15CF: 0002 8002           PUSH r2
15D1: 0001 8000 72D8      SET r0 72D8
15D4: 0001 8001 05FB      SET r1 05FB
15D7: 0009 8002 042C 04D2 ADD r2 042C 04D2
15DB: 0011 05B2           CALL 05B2
15DD: 0003 8002           POP r2
15DF: 0003 8001           POP r1
15E1: 0003 8000           POP r0
15E3: 0006 1652           JMP 1652
15E5: 0002 8000           PUSH r0
15E7: 0002 8001           PUSH r1
15E9: 0002 8002           PUSH r2
15EB: 0001 8000 7369      SET r0 7369
15EE: 0001 8001 05FB      SET r1 05FB
15F1: 0009 8002 02AC 173F ADD r2 02AC 173F
15F5: 0011 05B2           CALL 05B2
15F7: 0003 8002           POP r2
15F9: 0003 8001           POP r1
15FB: 0003 8000           POP r0
15FD: 0001 8000 0000      SET r0 0000
1600: 0009 8002 0001 69DD ADD r2 0001 69DD
1604: 000F 8001 8002      RMEM r1 r2
1607: 0009 8000 8000 8001 ADD r0 r0 r1
160B: 000A 8000 8000 7BAC MULT r0 r0 7BAC
160F: 0011 084D           CALL 084D
1611: 000F 8001 69DD      RMEM r1 69DD
1614: 0009 8001 8001 69DD ADD r1 r1 69DD
1618: 0009 8002 8002 0001 ADD r2 r2 0001
161C: 0005 8001 8002 8001 GT r1 r2 r1
1620: 0008 8001 1604      JF r1 1604
1623: 0001 8001 650A      SET r1 650A
1626: 0001 8002 7FFF      SET r2 7FFF
1629: 0002 8003           PUSH r3
162B: 0001 8003 73DF      SET r3 73DF
162E: 0011 0731           CALL 0731
1630: 0003 8003           POP r3
1632: 0002 8000           PUSH r0
1634: 0002 8001           PUSH r1
1636: 0002 8002           PUSH r2
1638: 0001 8000 73E3      SET r0 73E3
163B: 0001 8001 05FB      SET r1 05FB
163E: 0009 8002 30A3 155C ADD r2 30A3 155C
1642: 0011 05B2           CALL 05B2
1644: 0003 8002           POP r2
1646: 0003 8001           POP r1
1648: 0003 8000           POP r0
164A: 0010 0AAC 09B8      WMEM 0AAC 09B8
164D: 0010 0AAD 0000      WMEM 0AAD 0000
1650: 0006 1652           JMP 1652
1652: 0003 8002           POP r2
1654: 0003 8001           POP r1
1656: 0003 8000           POP r0
1658: 0012                RET
1659: 0002 8000           PUSH r0
165B: 0002 8001           PUSH r1
165D: 0002 8002           PUSH r2
165F: 0002 8003           PUSH r3
1661: 0002 8000           PUSH r0
1663: 0002 8001           PUSH r1
1665: 0002 8002           PUSH r2
1667: 0001 8000 743D      SET r0 743D
166A: 0001 8001 05FB      SET r1 05FB
166D: 0009 8002 0032 00CB ADD r2 0032 00CB
1671: 0011 05B2           CALL 05B2
1673: 0003 8002           POP r2
1675: 0003 8001           POP r1
1677: 0003 8000           POP r0
1679: 000F 8000 0F73      RMEM r0 0F73
167C: 000F 8001 0F74      RMEM r1 0F74
167F: 0011 084D           CALL 084D
1681: 000F 8001 0F75      RMEM r1 0F75
1684: 0011 084D           CALL 084D
1686: 0001 8001 653F      SET r1 653F
1689: 0001 8002 0004      SET r2 0004
168C: 0002 8003           PUSH r3
168E: 0001 8003 74F6      SET r3 74F6
1691: 0011 0731           CALL 0731
1693: 0003 8003           POP r3
1695: 0002 8000           PUSH r0
1697: 0002 8001           PUSH r1
1699: 0002 8002           PUSH r2
169B: 0001 8000 74FA      SET r0 74FA
169E: 0001 8001 05FB      SET r1 05FB
16A1: 0009 8002 04C8 059B ADD r2 04C8 059B
16A5: 0011 05B2           CALL 05B2
16A7: 0003 8002           POP r2
16A9: 0003 8001           POP r1
16AB: 0003 8000           POP r0
16AD: 0003 8003           POP r3
16AF: 0003 8002           POP r2
16B1: 0003 8001           POP r1
16B3: 0003 8000           POP r0
16B5: 0012                RET
16B6: 0013 002D           OUT -
16B8: 0013 0020           OUT  
16BA: 0011 05EE           CALL 05EE
16BC: 0013 000A           OUT '\n'
16BE: 0012                RET
16BF: 0002 8001           PUSH r1
16C1: 0002 8002           PUSH r2
16C3: 0001 8000 6AF5      SET r0 6AF5
16C6: 0001 8001 16D6      SET r1 16D6
16C9: 0001 8002 0000      SET r2 0000
16CC: 0011 05B2           CALL 05B2
16CE: 0001 8000 8002      SET r0 r2
16D1: 0003 8002           POP r2
16D3: 0003 8001           POP r1
16D5: 0012                RET
16D6: 0002 8003           PUSH r3
16D8: 0002 8004           PUSH r4
16DA: 000F 8003 0AAC      RMEM r3 0AAC
16DD: 0009 8004 8000 0002 ADD r4 r0 0002
16E1: 000F 8004 8004      RMEM r4 r4
16E4: 0004 8003 8003 8004 EQ r3 r3 r4
16E8: 0008 8003 16EF      JF r3 16EF
16EB: 0009 8002 8002 0001 ADD r2 r2 0001
16EF: 0003 8004           POP r4
16F1: 0003 8003           POP r3
16F3: 0012                RET
16F4: 0002 8000           PUSH r0
16F6: 0002 8001           PUSH r1
16F8: 0001 8000 6AF5      SET r0 6AF5
16FB: 0001 8001 1705      SET r1 1705
16FE: 0011 05B2           CALL 05B2
1700: 0003 8001           POP r1
1702: 0003 8000           POP r0
1704: 0012                RET
1705: 0002 8003           PUSH r3
1707: 0009 8003 8000 0002 ADD r3 r0 0002
170B: 000F 8003 8003      RMEM r3 r3
170E: 0004 8003 8002 8003 EQ r3 r2 r3
1712: 0008 8003 171E      JF r3 171E
1715: 0009 8000 8000 0000 ADD r0 r0 0000
1719: 000F 8000 8000      RMEM r0 r0
171C: 0011 16B6           CALL 16B6
171E: 0003 8003           POP r3
1720: 0012                RET
1721: 0002 8001           PUSH r1
1723: 0002 8002           PUSH r2
1725: 0001 8002 8000      SET r2 r0
1728: 0001 8000 6AF5      SET r0 6AF5
172B: 0001 8001 174C      SET r1 174C
172E: 0011 0607           CALL 0607
1730: 0004 8001 8000 7FFF EQ r1 r0 7FFF
1734: 0007 8001 1744      JT r1 1744
1737: 0009 8001 6AF5 8000 ADD r1 6AF5 r0
173B: 0009 8001 8001 0001 ADD r1 r1 0001
173F: 000F 8000 8001      RMEM r0 r1
1742: 0006 1747           JMP 1747
1744: 0001 8000 0000      SET r0 0000
1747: 0003 8002           POP r2
1749: 0003 8001           POP r1
174B: 0012                RET
174C: 0002 8001           PUSH r1
174E: 0001 8001 8002      SET r1 r2
1751: 0009 8000 8000 0000 ADD r0 r0 0000
1755: 000F 8000 8000      RMEM r0 r0
1758: 0011 0683           CALL 0683
175A: 0003 8001           POP r1
175C: 0008 8000 1765      JF r0 1765
175F: 0001 8002 8001      SET r2 r1
1762: 0001 8001 7FFF      SET r1 7FFF
1765: 0012                RET
1766: 0002 8001           PUSH r1
1768: 0002 8002           PUSH r2
176A: 0009 8000 8000 0002 ADD r0 r0 0002
176E: 000F 8000 8000      RMEM r0 r0
1771: 0008 8000 1783      JF r0 1783
1774: 000F 8001 0AAC      RMEM r1 0AAC
1777: 0004 8001 8000 8001 EQ r1 r0 r1
177B: 0007 8001 1783      JT r1 1783
177E: 0001 8000 0000      SET r0 0000
1781: 0006 1786           JMP 1786
1783: 0001 8000 0001      SET r0 0001
1786: 0003 8002           POP r2
1788: 0003 8001           POP r1
178A: 0012                RET
178B: 0007 8000 1793      JT r0 1793
178E: 0009 8000 8001 0001 ADD r0 r1 0001
1792: 0012                RET
1793: 0007 8001 17A0      JT r1 17A0
1796: 0009 8000 8000 7FFF ADD r0 r0 7FFF
179A: 0001 8001 8007      SET r1 r7
179D: 0011 178B           CALL 178B
179F: 0012                RET
17A0: 0002 8000           PUSH r0
17A2: 0009 8001 8001 7FFF ADD r1 r1 7FFF
17A6: 0011 178B           CALL 178B
17A8: 0001 8001 8000      SET r1 r0
17AB: 0003 8000           POP r0
17AD: 0009 8000 8000 7FFF ADD r0 r0 7FFF
17B1: 0011 178B           CALL 178B
17B3: 0012                RET
17B4: 17CF
17B5: 44D9
17B6: 7455
17B7: 25F6
17B8: 5560
17B9: 02C5
17BA: 3203
17BB: 63B9
17BC: 1336
17BD: 40B4
17BE: 703E
17BF: 21B2
17C0: 5146
17C1: 7EA6
17C2: 2E35
17C3: 5FB1
17C4: 0F22
17C5: 3CE0
17C6: 6C04
17C7: 1D80
17C8: 4D67
17C9: 7AF1
17CA: 2A10
17CB: 5BEB
17CC: 0B85
17CD: 3B34
17CE: 68DC
17CF: 1870
17D0: 4810
17D1: 79D4
17D2: 2931
17D3: 56AD
17D4: 06E4
17D5: 360C
17D6: 67DC
17D7: 17A9
17D8: 4734
17D9: 74D1
17DA: 2495
17DB: 547E
17DC: 0430
17DD: 35EE
17DE: 65F0
17DF: 1565
17E0: 4535
17E1: 72E6
17E2: 22A3
17E3: 5217
17E4: 024C
17E5: 33EE
17E6: 639F
17E7: 1348
17E8: 4364
17E9: 7329
17EA: 20D5
17EB: 5099
17EC: 00A1
17ED: 303E
17EE: 6010
17EF: 1075
17F0: 4054
17F1: 71B9
17F2: 2190
17F3: 51FD
17F4: 01C4
17F5: 312D
17F6: 6130
17F7: 1105
17F8: 4114
17F9: 7165
17FA: 2170
17FB: 514D
17FC: 0144
17FD: 315D
17FE: 6159
17FF: 1113
1800: 413B
1801: 713A
1802: 2124
1803: 5135
1804: 012D
1805: 3121
1806: 611C
1807: 1116
1808: 41A3
1809: 715C
180A: 215F
180B: 5158
180C: 01E4
180D: 319B
180E: 61F9
180F: 11DB
1810: 4030
1811: 7055
1812: 2069
1813: 5052
1814: 00B1
1815: 309F
1816: 60C3
1817: 1320
1818: 4378
1819: 7343
181A: 23D0
181B: 53FE
181C: 0230
181D: 327C
181E: 62BE
181F: 12F1
1820: 453D
1821: 757B
1822: 25B7
1823: 55BD
1824: 0425
1825: 3479
1826: 64D0
1827: 14D1
1828: 477C
1829: 77A0
182A: 2790
182B: 560F
182C: 06A5
182D: 36CE
182E: 6975
182F: 19D5
1830: 483B
1831: 7853
1832: 28B0
1833: 5B1C
1834: 0BAA
1835: 3B8D
1836: 6A55
1837: 1AEB
1838: 4D7B
1839: 7D97
183A: 2C1D
183B: 5CA2
183C: 0F31
183D: 3FAE
183E: 6E70
183F: 1EB8
1840: 513B
1841: 01A0
1842: 303E
1843: 60A9
1844: 1325
1845: 43A4
1846: 721E
1847: 22CB
1848: 5534
1849: 05A5
184A: 3471
184B: 64D9
184C: 17E4
184D: 4614
184E: 76E4
184F: 2946
1850: 5874
1851: 0897
1852: 3B71
1853: 6BCE
1854: 1AA1
1855: 4D4D
1856: 7DC4
1857: 2CAA
1858: 5F34
1859: 0FD1
185A: 3E98
185B: 7168
185C: 2064
185D: 50F3
185E: 03BF
185F: 3267
1860: 6520
1861: 15FD
1862: 44FC
1863: 773D
1864: 2630
1865: 56E5
1866: 0995
1867: 3857
1868: 6B71
1869: 1A65
186A: 4AD9
186B: 7D9E
186C: 2CE4
186D: 5F5C
186E: 0E30
186F: 4118
1870: 7035
1871: 20C6
1872: 53E3
1873: 0294
1874: 35B2
1875: 6448
1876: 1710
1877: 4661
1878: 797B
1879: 280A
187A: 5B02
187B: 0A3A
187C: 3D25
187D: 6C24
187E: 1F7E
187F: 4E75
1880: 0174
1881: 3014
1882: 6370
1883: 122E
1884: 452D
1885: 742A
1886: 271E
1887: 5645
1888: 097A
1889: 3860
188A: 6B51
188B: 1A5F
188C: 4DA6
188D: 7C84
188E: 2FB0
188F: 5EC7
1890: 1031
1891: 4314
1892: 7274
1893: 254E
1894: 54E4
1895: 07CF
1896: 36FB
1897: 6820
1898: 1B71
1899: 4A55
189A: 7DD0
189B: 2CE2
189C: 5E31
189D: 1169
189E: 40F1
189F: 73B5
18A0: 2574
18A1: 5451
18A2: 07B5
18A3: 36FB
18A4: 682D
18A5: 1B63
18A6: 4A99
18A7: 7DD1
18A8: 2F71
18A9: 5EA9
18AA: 11C9
18AB: 434D
18AC: 72AA
18AD: 25D2
18AE: 5730
18AF: 0681
18B0: 3826
18B1: 6B50
18B2: 1AF1
18B3: 4C0E
18B4: 7FB1
18B5: 2EDF
18B6: 6055
18B7: 13A5
18B8: 4563
18B9: 748C
18BA: 2604
18BB: 59A5
18BC: 0B2D
18BD: 3AB3
18BE: 6C71
18BF: 1FF7
18C0: 5153
18C1: 00B1
18C2: 323F
18C3: 65B2
18C4: 1736
18C5: 46BA
18C6: 7811
18C7: 2B9C
18C8: 5D11
18C9: 0CF6
18CA: 3E5F
18CB: 71D8
18CC: 23B0
18CD: 5515
18CE: 0499
18CF: 3673
18D0: 683B
18D1: 1B9A
18D2: 4D64
18D3: 7CD5
18D4: 2EAD
18D5: 6001
18D6: 13DC
18D7: 45B6
18D8: 775E
18D9: 26E4
18DA: 5883
18DB: 0A2D
18DC: 3C3D
18DD: 6FF2
18DE: 21A5
18DF: 5335
18E0: 0536
18E1: 34F0
18E2: 66B7
18E3: 1874
18E4: 4A2A
18E5: 7DAD
18E6: 2F84
18E7: 614A
18E8: 1334
18E9: 4529
18EA: 74D5
18EB: 268C
18EC: 58B2
18ED: 0A58
18EE: 3C3C
18EF: 6E55
18F0: 202D
18F1: 53DA
18F2: 05E5
18F3: 37DD
18F4: 69A2
18F5: 1B48
18F6: 4D55
18F7: 7F69
18F8: 3134
18F9: 6311
18FA: 1518
18FB: 4728
18FC: 7964
18FD: 2B28
18FE: 5D22
18FF: 0F32
1900: 4131
1901: 7375
1902: 2536
1903: 5732
1904: 0936
1905: 3B6D
1906: 6D11
1907: 1F01
1908: 5162
1909: 0360
190A: 355E
190B: 6759
190C: 19B1
190D: 4B8F
190E: 7DF5
190F: 2F95
1910: 6024
1911: 1200
1912: 447C
1913: 7651
1914: 28AD
1915: 5A83
1916: 0CD7
1917: 4165
1918: 736D
1919: 254A
191A: 5785
191B: 09AD
191C: 3A26
191D: 6C7C
191E: 1EB3
191F: 50FE
1920: 057A
1921: 373B
1922: 69FE
1923: 1B98
1924: 4C2A
1925: 7E62
1926: 3082
1927: 62D1
1928: 177C
1929: 49CC
192A: 7BF4
192B: 2C0C
192C: 5EB6
192D: 10D6
192E: 4530
192F: 7796
1930: 2835
1931: 5A43
1932: 0CF5
1933: 41F8
1934: 7390
1935: 25C5
1936: 5659
1937: 08F6
1938: 3D34
1939: 6F96
193A: 2015
193B: 52A8
193C: 0729
193D: 39AE
193E: 6A70
193F: 1CA1
1940: 513B
1941: 03F5
1942: 3432
1943: 66B8
1944: 1B64
1945: 4DB9
1946: 7E18
1947: 3080
1948: 6534
1949: 17E8
194A: 485F
194B: 7AD8
194C: 2FB0
194D: 6015
194E: 12B0
194F: 475A
1950: 7832
1951: 2AD5
1952: 5F71
1953: 119D
1954: 42A0
1955: 7708
1956: 29D5
1957: 5AB5
1958: 0F34
1959: 41C6
195A: 7291
195B: 277B
195C: 5821
195D: 0AB3
195E: 3FF0
195F: 7035
1960: 2515
1961: 57E6
1962: 08F0
1963: 3D64
1964: 6E2B
1965: 20F8
1966: 55D0
1967: 0655
1968: 3B71
1969: 6C20
196A: 1EC2
196B: 53CD
196C: 04AA
196D: 3952
196E: 6A62
196F: 1F01
1970: 503C
1971: 0295
1972: 37F9
1973: 6893
1974: 1DB0
1975: 4E42
1976: 0310
1977: 3471
1978: 697C
1979: 1A00
197A: 4F50
197B: 0029
197C: 3525
197D: 662F
197E: 1B3B
197F: 4C3B
1980: 0131
1981: 3226
1982: 6723
1983: 1871
1984: 4D64
1985: 7E34
1986: 331F
1987: 6410
1988: 1934
1989: 4A71
198A: 7F58
198B: 3044
198C: 65AA
198D: 1696
198E: 4BB0
198F: 7CCC
1990: 303B
1991: 6500
1992: 1630
1993: 4B55
1994: 7CA1
1995: 318C
1996: 62C2
1997: 1665
1998: 4B60
1999: 7C4D
199A: 3195
199B: 62AD
199C: 1621
199D: 4B7E
199E: 7CB8
199F: 31FA
19A0: 6531
19A1: 1666
19A2: 4BF0
19A3: 7CF2
19A4: 3022
19A5: 652D
19A6: 1692
19A7: 4BC4
19A8: 7F60
19A9: 30B6
19AA: 6590
19AB: 1909
19AC: 4AA1
19AD: 7FD8
19AE: 3360
19AF: 6490
19B0: 1826
19B1: 4D15
19B2: 7EE7
19B3: 3214
19B4: 67B0
19B5: 18C5
19B6: 4C59
19B7: 01EB
19B8: 353A
19B9: 66E0
19BA: 1A1E
19BB: 4FA2
19BC: 0336
19BD: 34A9
19BE: 6838
19BF: 1DD0
19C0: 5127
19C1: 02BA
19C2: 3625
19C3: 6BA9
19C4: 1F2C
19C5: 50C4
19C6: 0434
19C7: 3984
19C8: 6D66
19C9: 1EEE
19CA: 5210
19CB: 07CE
19CC: 3BA5
19CD: 6F0B
19CE: 20F5
19CF: 546E
19D0: 0800
19D1: 3D9D
19D2: 7175
19D3: 229D
19D4: 56A7
19D5: 0A0C
19D6: 3FC6
19D7: 73A0
19D8: 2734
19D9: 58CC
19DA: 0C83
19DB: 402D
19DC: 7437
19DD: 29F2
19DE: 5DBD
19DF: 1170
19E0: 4523
19E1: 76FD
19E2: 2AB1
19E3: 5E69
19E4: 1264
19E5: 47E3
19E6: 7B91
19E7: 2F57
19E8: 6366
19E9: 172A
19EA: 48C7
19EB: 7CCD
19EC: 30AC
19ED: 6458
19EE: 1862
19EF: 4C10
19F0: 0078
19F1: 3595
19F2: 69F1
19F3: 1D93
19F4: 51A0
19F5: 050D
19F6: 3944
19F7: 6D6D
19F8: 2171
19F9: 5545
19FA: 091C
19FB: 3D24
19FC: 7123
19FD: 2535
19FE: 5924
19FF: 0D75
1A00: 4132
1A01: 7527
1A02: 293F
1A03: 5D30
1A04: 1164
1A05: 4539
1A06: 7918
1A07: 2D00
1A08: 6134
1A09: 1561
1A0A: 495F
1A0B: 7D42
1A0C: 31B6
1A0D: 658A
1A0E: 19F1
1A0F: 4DCC
1A10: 0074
1A11: 3401
1A12: 687F
1A13: 1C1D
1A14: 50B0
1A15: 0485
1A16: 38D5
1A17: 6F65
1A18: 2367
1A19: 574A
1A1A: 0B85
1A1B: 3FF9
1A1C: 722C
1A1D: 263D
1A1E: 5AB9
1A1F: 0EE6
1A20: 4574
1A21: 7964
1A22: 2DA5
1A23: 61F4
1A24: 1430
1A25: 4868
1A26: 7CD0
1A27: 30C1
1A28: 677D
1A29: 1BA8
1A2A: 4F9E
1A2B: 0268
1A2C: 36AA
1A2D: 6AD2
1A2E: 2162
1A2F: 5581
1A30: 083C
1A31: 3C30
1A32: 70E3
1A33: 2712
1A34: 5BB1
1A35: 0FD9
1A36: 4258
1A37: 768C
1A38: 2D50
1A39: 6184
1A3A: 1402
1A3B: 48A6
1A3C: 7F64
1A3D: 33BE
1A3E: 6631
1A3F: 1AA3
1A40: 5131
1A41: 056E
1A42: 3804
1A43: 6CB5
1A44: 2321
1A45: 57ED
1A46: 0A13
1A47: 3E84
1A48: 7562
1A49: 29E0
1A4A: 5C10
1A4B: 10CC
1A4C: 47A7
1A4D: 7A12
1A4E: 2EE5
1A4F: 6546
1A50: 1820
1A51: 4C9C
1A52: 0373
1A53: 37CE
1A54: 6AE4
1A55: 2109
1A56: 55C2
1A57: 08A4
1A58: 3F79
1A59: 73C4
1A5A: 2684
1A5B: 5D64
1A5C: 1027
1A5D: 44FC
1A5E: 7BBC
1A5F: 2E79
1A60: 652D
1A61: 19B5
1A62: 4CB3
1A63: 0375
1A64: 3625
1A65: 6AE3
1A66: 2197
1A67: 5440
1A68: 0B34
1A69: 3E24
1A6A: 72C3
1A6B: 29CD
1A6C: 5CBD
1A6D: 1352
1A6E: 4665
1A6F: 7D55
1A70: 3032
1A71: 64DC
1A72: 1BFE
1A73: 4E99
1A74: 05E4
1A75: 3854
1A76: 6F5F
1A77: 2270
1A78: 5966
1A79: 0C16
1A7A: 4315
1A7B: 7621
1A7C: 2D22
1A7D: 607D
1A7E: 1731
1A7F: 4A21
1A80: 0174
1A81: 3434
1A82: 6B70
1A83: 1E31
1A84: 5521
1A85: 082A
1A86: 3F14
1A87: 7200
1A88: 2934
1A89: 5C64
1A8A: 1352
1A8B: 4642
1A8C: 7DB2
1A8D: 3098
1A8E: 67B0
1A8F: 1AD4
1A90: 5074
1A91: 0719
1A92: 3A71
1A93: 714F
1A94: 24A3
1A95: 5B88
1A96: 0E90
1A97: 4426
1A98: 7B7C
1A99: 2E44
1A9A: 6583
1A9B: 18E0
1A9C: 4E6A
1A9D: 053D
1A9E: 38F0
1A9F: 6FC1
1AA0: 253C
1AA1: 5870
1AA2: 0FA2
1AA3: 42F8
1AA4: 7864
1AA5: 2F64
1AA6: 6283
1AA7: 1985
1AA8: 4F76
1AA9: 02A4
1AAA: 39C2
1AAB: 6F08
1AAC: 22A8
1AAD: 59C4
1AAE: 0F30
1AAF: 4290
1AB0: 783A
1AB1: 2F5A
1AB2: 62E5
1AB3: 181A
1AB4: 4FAC
1AB5: 028D
1AB6: 385C
1AB7: 6FEC
1AB8: 2573
1AB9: 588D
1ABA: 0E04
1ABB: 45ED
1ABC: 7B2C
1ABD: 2EB8
1ABE: 6422
1ABF: 1BB0
1AC0: 5174
1AC1: 04A1
1AC2: 3A3F
1AC3: 71FD
1AC4: 272A
1AC5: 5AA2
1AC6: 1004
1AC7: 478C
1AC8: 7D77
1AC9: 30E0
1ACA: 6610
1ACB: 1DCC
1ACC: 53E4
1ACD: 090F
1ACE: 3CFF
1ACF: 7245
1AD0: 2831
1AD1: 5FD5
1AD2: 1572
1AD3: 48CF
1AD4: 7EAD
1AD5: 3409
1AD6: 6BD7
1AD7: 21A0
1AD8: 5734
1AD9: 0AC9
1ADA: 4095
1ADB: 766C
1ADC: 2C20
1ADD: 63F4
1ADE: 19BE
1ADF: 4F72
1AE0: 0574
1AE1: 38FA
1AE2: 6EA5
1AE3: 2469
1AE4: 5A64
1AE5: 11E4
1AE6: 479E
1AE7: 7D51
1AE8: 337B
1AE9: 6965
1AEA: 1CC4
1AEB: 5285
1AEC: 08A1
1AED: 3E1D
1AEE: 7474
1AEF: 2A14
1AF0: 6026
1AF1: 17DE
1AF2: 4DB0
1AF3: 0398
1AF4: 39A9
1AF5: 6F5D
1AF6: 2544
1AF7: 5B6C
1AF8: 117A
1AF9: 4700
1AFA: 7D03
1AFB: 333E
1AFC: 696A
1AFD: 1F5B
1AFE: 5532
1AFF: 0B27
1B00: 413D
1B01: 7731
1B02: 2D37
1B03: 6338
1B04: 1941
1B05: 4F3E
1B06: 051F
1B07: 3B10
1B08: 7160
1B09: 276D
1B0A: 5D3B
1B0B: 137F
1B0C: 49AB
1B0D: 7F8D
1B0E: 35F5
1B0F: 6B95
1B10: 2036
1B11: 5607
1B12: 0C79
1B13: 4259
1B14: 78A3
1B15: 2E88
1B16: 64C9
1B17: 1D11
1B18: 537C
1B19: 094C
1B1A: 3F83
1B1B: 75AD
1B1C: 2A36
1B1D: 6072
1B1E: 16A0
1B1F: 4CF0
1B20: 0574
1B21: 3B77
1B22: 71A2
1B23: 27F4
1B24: 5C20
1B25: 126A
1B26: 4895
1B27: 7E85
1B28: 3777
1B29: 6DB7
1B2A: 23D5
1B2B: 580C
1B2C: 0EAF
1B2D: 44CE
1B2E: 7D30
1B2F: 3394
1B30: 6827
1B31: 1E15
1B32: 54E9
1B33: 0D12
1B34: 43B1
1B35: 798D
1B36: 2E47
1B37: 64E4
1B38: 1D78
1B39: 538E
1B3A: 0850
1B3B: 3EAC
1B3C: 7728
1B3D: 2DB2
1B3E: 623E
1B3F: 18B2
1B40: 5174
1B41: 07BC
1B42: 3C24
1B43: 72F3
1B44: 2B64
1B45: 61ED
1B46: 1629
1B47: 4C8A
1B48: 0561
1B49: 3BA5
1B4A: 7051
1B4B: 26DF
1B4C: 5FA1
1B4D: 1413
1B4E: 4AB7
1B4F: 0341
1B50: 3874
1B51: 6E86
1B52: 2765
1B53: 5DCF
1B54: 12A1
1B55: 4B4D
1B56: 01D8
1B57: 36AA
1B58: 6F63
1B59: 2585
1B5A: 5A9F
1B5B: 1361
1B5C: 4820
1B5D: 7EBD
1B5E: 37B9
1B5F: 6C61
1B60: 2574
1B61: 5BFC
1B62: 10A3
1B63: 4931
1B64: 7E64
1B65: 34E2
1B66: 6D82
1B67: 2205
1B68: 5B63
1B69: 102D
1B6A: 46D5
1B6B: 7F99
1B6C: 34AC
1B6D: 6D58
1B6E: 2262
1B6F: 5B55
1B70: 103D
1B71: 46C1
1B72: 7FB0
1B73: 349E
1B74: 6DA5
1B75: 2243
1B76: 5B10
1B77: 1060
1B78: 4962
1B79: 7E00
1B7A: 371E
1B7B: 6C6D
1B7C: 2537
1B7D: 5A28
1B7E: 1320
1B7F: 4825
1B80: 013B
1B81: 3627
1B82: 6F24
1B83: 247D
1B84: 5D3D
1B85: 1222
1B86: 4B05
1B87: 0017
1B88: 3934
1B89: 6E72
1B8A: 2755
1B8B: 5C44
1B8C: 15A3
1B8D: 4A95
1B8E: 03E4
1B8F: 389B
1B90: 705C
1B91: 2916
1B92: 5E7F
1B93: 1753
1B94: 4CB0
1B95: 0584
1B96: 3ADE
1B97: 7230
1B98: 2B71
1B99: 6021
1B9A: 1992
1B9B: 4EEC
1B9C: 0627
1B9D: 3F76
1B9E: 74C8
1B9F: 2DD3
1BA0: 6535
1BA1: 1A79
1BA2: 53BC
1BA3: 08F4
1BA4: 402A
1BA5: 796A
1BA6: 2ED0
1BA7: 67D1
1BA8: 1F7C
1BA9: 54B7
1BAA: 0DDF
1BAB: 4518
1BAC: 7AA3
1BAD: 33D5
1BAE: 6B30
1BAF: 2081
1BB0: 583C
1BB1: 1150
1BB2: 46B0
1BB3: 7E1C
1BB4: 37AD
1BB5: 6CDF
1BB6: 2411
1BB7: 5D2C
1BB8: 1555
1BB9: 4A96
1BBA: 0250
1BBB: 3BB4
1BBC: 732B
1BBD: 28A8
1BBE: 6070
1BBF: 19B6
1BC0: 513B
1BC1: 06BB
1BC2: 3E24
1BC3: 77B4
1BC4: 2F2A
1BC5: 64B8
1BC6: 1C15
1BC7: 55C5
1BC8: 0D75
1BC9: 42E9
1BCA: 7A5F
1BCB: 33C3
1BCC: 6BA3
1BCD: 235D
1BCE: 58E4
1BCF: 105D
1BD0: 4831
1BD1: 01D5
1BD2: 3972
1BD3: 6ECF
1BD4: 26AD
1BD5: 5E09
1BD6: 17D7
1BD7: 4FA0
1BD8: 0738
1BD9: 3C85
1BDA: 7499
1BDB: 2C79
1BDC: 6464
1BDD: 1DEE
1BDE: 55BE
1BDF: 0D74
1BE0: 4524
1BE1: 7AE6
1BE2: 32F1
1BE3: 6A3D
1BE4: 2264
1BE5: 5BD4
1BE6: 139F
1BE7: 4B50
1BE8: 0334
1BE9: 3B31
1BEA: 70C2
1BEB: 2894
1BEC: 60E4
1BED: 1849
1BEE: 507F
1BEF: 0855
1BF0: 4033
1BF1: 79C7
1BF2: 31F1
1BF3: 699F
1BF4: 21E4
1BF5: 5959
1BF6: 1158
1BF7: 4960
1BF8: 0134
1BF9: 3907
1BFA: 7102
1BFB: 2924
1BFC: 6120
1BFD: 193A
1BFE: 5135
1BFF: 0979
1C00: 4174
1C01: 7937
1C02: 3125
1C03: 6929
1C04: 2164
1C05: 5924
1C06: 1104
1C07: 4945
1C08: 0171
1C09: 3973
1C0A: 7151
1C0B: 2949
1C0C: 61A1
1C0D: 198E
1C0E: 51B0
1C0F: 09CC
1C10: 403B
1C11: 7800
1C12: 3062
1C13: 681D
1C14: 20A3
1C15: 589F
1C16: 10D1
1C17: 4B36
1C18: 0364
1C19: 3B05
1C1A: 7399
1C1B: 2BE3
1C1C: 6264
1C1D: 1A69
1C1E: 52B8
1C1F: 0AF0
1C20: 4574
1C21: 7D71
1C22: 35B1
1C23: 6DEF
1C24: 242F
1C25: 5C63
1C26: 1495
1C27: 4CD6
1C28: 0767
1C29: 3FEB
1C2A: 7790
1C2B: 2E4D
1C2C: 669D
1C2D: 1ED2
1C2E: 5965
1C2F: 11D5
1C30: 4835
1C31: 0047
1C32: 38F5
1C33: 735D
1C34: 2BB4
1C35: 63C1
1C36: 1A45
1C37: 52E8
1C38: 0D79
1C39: 4580
1C3A: 7C04
1C3B: 34A4
1C3C: 6F2A
1C3D: 27BA
1C3E: 5E70
1C3F: 16A4
1C40: 5121
1C41: 09BC
1C42: 4033
1C43: 78B6
1C44: 3328
1C45: 6BB4
1C46: 2250
1C47: 5A81
1C48: 157B
1C49: 4DF2
1C4A: 045E
1C4B: 3CDA
1C4C: 77A5
1C4D: 2E0F
1C4E: 66F4
1C4F: 2115
1C50: 583D
1C51: 109B
1C52: 4B64
1C53: 03D2
1C54: 3AE4
1C55: 7519
1C56: 2DD8
1C57: 64A0
1C58: 1F34
1C59: 57C6
1C5A: 0E98
1C5B: 496C
1C5C: 0037
1C5D: 38F0
1C5E: 73FE
1C5F: 2A3B
1C60: 657A
1C61: 1D91
1C62: 54B4
1C63: 0F72
1C64: 4633
1C65: 7EE3
1C66: 39FB
1C67: 7068
1C68: 2B7B
1C69: 6236
1C6A: 1AC3
1C6B: 55CD
1C6C: 0CA7
1C6D: 475C
1C6E: 7E66
1C6F: 3910
1C70: 7026
1C71: 28DB
1C72: 6341
1C73: 1AA4
1C74: 55AB
1C75: 0C58
1C76: 4710
1C77: 7E64
1C78: 3966
1C79: 7000
1C7A: 2B50
1C7B: 623E
1C7C: 1D30
1C7D: 543C
1C7E: 0F3E
1C7F: 4631
1C80: 013D
1C81: 383B
1C82: 7337
1C83: 2A7D
1C84: 652D
1C85: 1C23
1C86: 5750
1C87: 0E04
1C88: 4934
1C89: 0069
1C8A: 3B51
1C8B: 725F
1C8C: 2DA3
1C8D: 6498
1C8E: 1FB0
1C8F: 56D6
1C90: 1035
1C91: 4B03
1C92: 0275
1C93: 3D4F
1C94: 74AA
1C95: 2FCD
1C96: 66D6
1C97: 2030
1C98: 5B78
1C99: 1249
1C9A: 4DD0
1C9B: 04E2
1C9C: 3E22
1C9D: 793D
1C9E: 30B2
1C9F: 6BFC
1CA0: 253B
1CA1: 5C79
1CA2: 17A5
1CA3: 4EF0
1CA4: 082D
1CA5: 4363
1CA6: 7A95
1CA7: 35D6
1CA8: 6F77
1CA9: 26A0
1CAA: 61DE
1CAB: 1B19
1CAC: 52E4
1CAD: 0DD0
1CAE: 477F
1CAF: 7E86
1CB0: 3827
1CB1: 731B
1CB2: 2AB0
1CB3: 645D
1CB4: 1F8D
1CB5: 56D9
1CB6: 1010
1CB7: 4BE8
1CB8: 0561
1CB9: 3C96
1CBA: 7604
1CBB: 31ED
1CBC: 6B2C
1CBD: 22BC
1CBE: 5C26
1CBF: 17B0
1CC0: 5174
1CC1: 08B7
1CC2: 4222
1CC3: 7DB2
1CC4: 372F
1CC5: 6EA8
1CC6: 281E
1CC7: 63C5
1CC8: 1D6D
1CC9: 54EA
1CCA: 0E45
1CCB: 49DF
1CCC: 03E4
1CCD: 3D1B
1CCE: 74F1
1CCF: 2E59
1CD0: 6838
1CD1: 23D4
1CD2: 5D30
1CD3: 149D
1CD4: 4E90
1CD5: 0805
1CD6: 43D5
1CD7: 7DE5
1CD8: 3777
1CD9: 6EC4
1CDA: 2886
1CDB: 6268
1CDC: 1C36
1CDD: 57F3
1CDE: 11F0
1CDF: 4B70
1CE0: 052C
1CE1: 3CE1
1CE2: 76B5
1CE3: 3073
1CE4: 6A20
1CE5: 25FE
1CE6: 5FD0
1CE7: 1951
1CE8: 537B
1CE9: 0D65
1CEA: 44C4
1CEB: 7E85
1CEC: 38A1
1CED: 721D
1CEE: 2C75
1CEF: 6614
1CF0: 2027
1CF1: 5BC1
1CF2: 15B0
1CF3: 4F9C
1CF4: 09AA
1CF5: 4349
1CF6: 7D10
1CF7: 3772
1CF8: 7171
1CF9: 2B16
1CFA: 6504
1CFB: 1F76
1CFC: 5964
1CFD: 133C
1CFE: 4D24
1CFF: 0775
1D00: 4120
1D01: 7B3D
1D02: 3535
1D03: 6F7D
1D04: 2933
1D05: 6328
1D06: 1D03
1D07: 5711
1D08: 1134
1D09: 4B60
1D0A: 055E
1D0B: 3F49
1D0C: 79E8
1D0D: 33DD
1D0E: 6DE9
1D0F: 27DA
1D10: 6021
1D11: 1A55
1D12: 5464
1D13: 0E55
1D14: 48AD
1D15: 0283
1D16: 3CDB
1D17: 7965
1D18: 336D
1D19: 6D4A
1D1A: 2785
1D1B: 61AD
1D1C: 1A37
1D1D: 5478
1D1E: 0EB5
1D1F: 48B5
1D20: 0535
1D21: 3F35
1D22: 79A0
1D23: 33FC
1D24: 6C37
1D25: 267E
1D26: 6091
1D27: 1AC2
1D28: 5771
1D29: 11E5
1D2A: 4BDC
1D2B: 0408
1D2C: 3EA5
1D2D: 78D9
1D2E: 3579
1D2F: 6F9B
1D30: 2833
1D31: 6215
1D32: 1CFF
1D33: 5908
1D34: 13B0
1D35: 4D8D
1D36: 065F
1D37: 40E3
1D38: 7D34
1D39: 3791
1D3A: 7018
1D3B: 2AA8
1D3C: 6764
1D3D: 21BE
1D3E: 5A31
1D3F: 14A3
1D40: 5131
1D41: 0BA7
1D42: 443E
1D43: 7EF3
1D44: 3B40
1D45: 75BA
1D46: 2E15
1D47: 6896
1D48: 2560
1D49: 5F81
1D4A: 1855
1D4B: 52CC
1D4C: 0FB7
1D4D: 4809
1D4E: 029B
1D4F: 3F78
1D50: 783B
1D51: 3286
1D52: 6F63
1D53: 299D
1D54: 62A7
1D55: 1F0C
1D56: 59C6
1D57: 12A0
1D58: 4F66
1D59: 09CB
1D5A: 4290
1D5B: 7F54
1D5C: 382B
1D5D: 72E8
1D5E: 2FF0
1D5F: 6874
1D60: 2526
1D61: 5FF0
1D62: 18F0
1D63: 556E
1D64: 0E30
1D65: 48EC
1D66: 059E
1D67: 3E41
1D68: 7B7D
1D69: 342B
1D6A: 6ED7
1D6B: 2BCD
1D6C: 64AD
1D6D: 2153
1D6E: 5A30
1D6F: 1714
1D70: 5074
1D71: 0AD9
1D72: 47F1
1D73: 008F
1D74: 3DA3
1D75: 7648
1D76: 3310
1D77: 6C66
1D78: 2975
1D79: 6213
1D7A: 1F15
1D7B: 583F
1D7C: 152A
1D7D: 4E7D
1D7E: 0B36
1D7F: 4420
1D80: 0138
1D81: 3A39
1D82: 7770
1D83: 3032
1D84: 6D22
1D85: 266D
1D86: 6312
1D87: 1C0C
1D88: 597B
1D89: 1269
1D8A: 4F45
1D8B: 0840
1D8C: 45AD
1D8D: 7E93
1D8E: 3BF5
1D8F: 74C6
1D90: 3037
1D91: 6D10
1D92: 267E
1D93: 6349
1D94: 1CE4
1D95: 5980
1D96: 12DF
1D97: 4E36
1D98: 0B67
1D99: 440B
1D9A: 01D0
1D9B: 3AAD
1D9C: 7610
1D9D: 3375
1D9E: 6CB5
1D9F: 29B5
1DA0: 6537
1DA1: 1E74
1DA2: 5BA6
1DA3: 14F8
1DA4: 5036
1DA5: 0D63
1DA6: 46D0
1DA7: 03C0
1DA8: 3F6C
1DA9: 78B1
1DAA: 35D5
1DAB: 7103
1DAC: 2AA0
1DAD: 67CE
1DAE: 2330
1DAF: 5C81
1DB0: 183B
1DB1: 5515
1DB2: 0EE4
1DB3: 4A15
1DB4: 07A1
1DB5: 408D
1DB6: 7C47
1DB7: 39E0
1DB8: 7567
1DB9: 2E91
1DBA: 6A5E
1DBB: 27C9
1DBC: 6333
1DBD: 1CB8
1DBE: 5823
1DBF: 15A1
1DC0: 515F
1DC1: 0A98
1DC2: 463F
1DC3: 03AE
1DC4: 3F37
1DC5: 78ED
1DC6: 3413
1DC7: 7184
1DC8: 2D62
1DC9: 66E0
1DCA: 2242
1DCB: 5FC3
1DCC: 1B59
1DCD: 5724
1DCE: 10FF
1DCF: 4C40
1DD0: 0874
1DD1: 4594
1DD2: 0162
1DD3: 3AD8
1DD4: 76E4
1DD5: 321E
1DD6: 6FC4
1DD7: 2BA4
1DD8: 677A
1DD9: 20C1
1DDA: 5C99
1DDB: 1863
1DDC: 5423
1DDD: 11BD
1DDE: 4DB9
1DDF: 097B
1DE0: 4574
1DE1: 7EF4
1DE2: 3AF0
1DE3: 7671
1DE4: 3225
1DE5: 6FFF
1DE6: 2B97
1DE7: 6740
1DE8: 2334
1DE9: 5F26
1DEA: 18D1
1DEB: 549B
1DEC: 10A1
1DED: 4C4F
1DEE: 087E
1DEF: 4455
1DF0: 0032
1DF1: 3DC0
1DF2: 79FC
1DF3: 3591
1DF4: 71E4
1DF5: 2D42
1DF6: 6956
1DF7: 2525
1DF8: 6176
1DF9: 1D0C
1DFA: 591F
1DFB: 1521
1DFC: 5131
1DFD: 0D30
1DFE: 4939
1DFF: 053B
1E00: 4131
1E01: 7D26
1E02: 3933
1E03: 7538
1E04: 312A
1E05: 6D39
1E06: 2950
1E07: 6508
1E08: 217B
1E09: 5D76
1E0A: 1943
1E0B: 5503
1E0C: 11E4
1E0D: 4DDD
1E0E: 09C4
1E0F: 45DD
1E10: 0031
1E11: 3C55
1E12: 7873
1E13: 345C
1E14: 70B2
1E15: 2C88
1E16: 68C2
1E17: 272B
1E18: 6334
1E19: 1F40
1E1A: 5B88
1E1B: 17F9
1E1C: 5221
1E1D: 0E73
1E1E: 4AB4
1E1F: 06E6
1E20: 4574
1E21: 0161
1E22: 3DBF
1E23: 79BD
1E24: 3430
1E25: 7065
1E26: 2C95
1E27: 6885
1E28: 2771
1E29: 63A4
1E2A: 1FC3
1E2B: 5A19
1E2C: 16EA
1E2D: 529D
1E2E: 1130
1E2F: 4DA1
1E30: 083C
1E31: 4450
1E32: 00E2
1E33: 3F18
1E34: 7BE4
1E35: 37C4
1E36: 7243
1E37: 2EA5
1E38: 6D75
1E39: 29C5
1E3A: 6413
1E3B: 20BF
1E3C: 5F21
1E3D: 1BAB
1E3E: 5639
1E3F: 12A6
1E40: 5131
1E41: 0DF5
1E42: 4839
1E43: 04B3
1E44: 4364
1E45: 7FB9
1E46: 3A18
1E47: 7680
1E48: 3534
1E49: 71F7
1E4A: 2C5F
1E4B: 68CE
1E4C: 27AF
1E4D: 620E
1E4E: 1EB0
1E4F: 5D42
1E50: 183C
1E51: 549C
1E52: 1373
1E53: 4FD5
1E54: 0AE4
1E55: 4902
1E56: 05C0
1E57: 40A0
1E58: 7F7A
1E59: 3BD6
1E5A: 76D0
1E5B: 3564
1E5C: 702A
1E5D: 2CE9
1E5E: 6BBF
1E5F: 2635
1E60: 6535
1E61: 21B5
1E62: 5CA0
1E63: 1B7C
1E64: 5637
1E65: 12FE
1E66: 5191
1E67: 0C42
1E68: 4B71
1E69: 066B
1E6A: 42B4
1E6B: 0188
1E6C: 3CA5
1E6D: 7B4E
1E6E: 3664
1E6F: 7572
1E70: 3024
1E71: 6CD4
1E72: 2BE3
1E73: 668E
1E74: 25A5
1E75: 604A
1E76: 1F55
1E77: 5A02
1E78: 1944
1E79: 5404
1E7A: 1303
1E7B: 4E3E
1E7C: 0D25
1E7D: 483A
1E7E: 0735
1E7F: 42E5
1E80: 010D
1E81: 3C3A
1E82: 7B25
1E83: 367D
1E84: 7525
1E85: 303F
1E86: 6F15
1E87: 2A45
1E88: 697D
1E89: 246B
1E8A: 6310
1E8B: 1E4C
1E8C: 5DE4
1E8D: 189E
1E8E: 57E2
1E8F: 12D0
1E90: 5022
1E91: 0F1C
1E92: 4A63
1E93: 0958
1E94: 44E4
1E95: 0382
1E96: 3EDE
1E97: 7C65
1E98: 3B60
1E99: 764D
1E9A: 3595
1E9B: 70AD
1E9C: 2E33
1E9D: 6D78
1E9E: 28A3
1E9F: 67E1
1EA0: 2574
1EA1: 6062
1EA2: 1FB1
1EA3: 5AF1
1EA4: 1828
1EA5: 572D
1EA6: 129F
1EA7: 51C3
1EA8: 0F34
1EA9: 4AB1
1EAA: 09D8
1EAB: 4708
1EAC: 02E4
1EAD: 41D0
1EAE: 7F7F
1EAF: 3A86
1EB0: 7827
1EB1: 3715
1EB2: 72F3
1EB3: 301C
1EB4: 6FB2
1EB5: 2AC8
1EB6: 6842
1EB7: 27EB
1EB8: 653A
1EB9: 20C5
1EBA: 5E50
1EBB: 1D8C
1EBC: 5B64
1EBD: 16B9
1EBE: 5431
1EBF: 13A7
1EC0: 513F
1EC1: 0CF5
1EC2: 4A20
1EC3: 09BC
1EC4: 4737
1EC5: 02BE
1EC6: 4011
1EC7: 7F82
1EC8: 3D71
1EC9: 78A5
1ECA: 365C
1ECB: 75C8
1ECC: 33A5
1ECD: 7119
1ECE: 2CE3
1ECF: 6A15
1ED0: 2832
1ED1: 6780
1ED2: 2562
1ED3: 60C9
1ED4: 1EAC
1ED5: 5C08
1ED6: 1BC2
1ED7: 59E5
1ED8: 1763
1ED9: 52C0
1EDA: 1083
1EDB: 4E79
1EDC: 0C6A
1EDD: 4BBD
1EDE: 09F0
1EDF: 4741
1EE0: 053C
1EE1: 40F0
1EE2: 7EA2
1EE3: 3C78
1EE4: 7A64
1EE5: 39E4
1EE6: 7783
1EE7: 3505
1EE8: 7375
1EE9: 3165
1EEA: 6CDC
1EEB: 2A8C
1EEC: 68A0
1EED: 2659
1EEE: 6475
1EEF: 2207
1EF0: 6074
1EF1: 1FDD
1EF2: 5DF5
1EF3: 1B8F
1EF4: 59A1
1EF5: 170D
1EF6: 5547
1EF7: 136D
1EF8: 517D
1EF9: 0F06
1EFA: 4D18
1EFB: 0B6D
1EFC: 4928
1EFD: 0738
1EFE: 4531
1EFF: 0331
1F00: 4127
1F01: 7F75
1F02: 3D34
1F03: 7B32
1F04: 3933
1F05: 7723
1F06: 3550
1F07: 730C
1F08: 317A
1F09: 6F71
1F0A: 2D5F
1F0B: 6B0D
1F0C: 29A5
1F0D: 67DD
1F0E: 25E3
1F0F: 63D8
1F10: 2035
1F11: 5E19
1F12: 1C7C
1F13: 5A58
1F14: 18B6
1F15: 56C1
1F16: 1490
1F17: 5528
1F18: 137B
1F19: 5156
1F1A: 0F83
1F1B: 4DA0
1F1C: 0A22
1F1D: 4874
1F1E: 06BC
1F1F: 44F9
1F20: 0531
1F21: 4371
1F22: 01F0
1F23: 3FFE
1F24: 7C25
1F25: 3A7B
1F26: 7895
1F27: 36D7
1F28: 777A
1F29: 35E5
1F2A: 73D2
1F2B: 3008
1F2C: 6EA8
1F2D: 2CD2
1F2E: 6D67
1F2F: 2BDB
1F30: 6852
1F31: 2656
1F32: 64F1
1F33: 250B
1F34: 63A1
1F35: 21DF
1F36: 5E5E
1F37: 1C83
1F38: 5D78
1F39: 1B84
1F3A: 5814
1F3B: 16A9
1F3C: 5721
1F3D: 15AF
1F3E: 5258
1F3F: 10B1
1F40: 5135
1F41: 0FA7
1F42: 4C3B
1F43: 0AB3
1F44: 4B21
1F45: 09BE
1F46: 4603
1F47: 04E2
1F48: 4544
1F49: 03E4
1F4A: 4043
1F4B: 7EDE
1F4C: 3FA5
1F4D: 7C1A
1F4E: 3AF5
1F4F: 7B0C
1F50: 381D
1F51: 7681
1F52: 3730
1F53: 75D4
1F54: 32B7
1F55: 734D
1F56: 31C0
1F57: 6EAC
1F58: 2F60
1F59: 6DC6
1F5A: 2A98
1F5B: 6B2D
1F5C: 2826
1F5D: 66F1
1F5E: 27B1
1F5F: 6476
1F60: 253F
1F61: 63BB
1F62: 20F0
1F63: 613D
1F64: 1E1D
1F65: 5CE2
1F66: 1D85
1F67: 5A05
1F68: 1B75
1F69: 5837
1F6A: 16D5
1F6B: 57CD
1F6C: 14A8
1F6D: 5554
1F6E: 127B
1F6F: 5310
1F70: 1038
1F71: 4ECC
1F72: 0FB0
1F73: 4C89
1F74: 0DAB
1F75: 4A0D
1F76: 0B52
1F77: 4860
1F78: 0934
1F79: 4600
1F7A: 0711
1F7B: 4439
1F7C: 0521
1F7D: 4233
1F7E: 0370
1F7F: 4037
1F80: 012D
1F81: 3E75
1F82: 7F31
1F83: 3C7D
1F84: 7D23
1F85: 3A3F
1F86: 7B05
1F87: 3800
1F88: 793A
1F89: 364E
1F8A: 7769
1F8B: 3442
1F8C: 75B1
1F8D: 32DD
1F8E: 73F6
1F8F: 30D0
1F90: 7031
1F91: 3119
1F92: 6E30
1F93: 2F49
1F94: 6CAC
1F95: 2D8C
1F96: 6AC4
1F97: 2A65
1F98: 6B6D
1F99: 284A
1F9A: 6985
1F9B: 26FF
1F9C: 6664
1F9D: 2771
1F9E: 64B9
1F9F: 25F2
1FA0: 653C
1FA1: 2261
1FA2: 63F0
1FA3: 20EE
1FA4: 602B
1FA5: 2178
1FA6: 5E82
1FA7: 1FC6
1FA8: 5F71
1FA9: 1CE5
1FAA: 5DD9
1FAB: 1D1E
1FAC: 5AE4
1FAD: 1BD0
1FAE: 5B7F
1FAF: 1887
1FB0: 5831
1FB1: 1915
1FB2: 56E4
1FB3: 1615
1FB4: 57A5
1FB5: 14C3
1FB6: 5410
1FB7: 15F6
1FB8: 5561
1FB9: 1283
1FBA: 5216
1FBB: 13A4
1FBC: 5327
1FBD: 10B4
1FBE: 5035
1FBF: 11BB
1FC0: 5120
1FC1: 0EF5
1FC2: 4E24
1FC3: 0FB2
1FC4: 4F64
1FC5: 0CA6
1FC6: 4C15
1FC7: 0D80
1FC8: 4D64
1FC9: 0AA5
1FCA: 4A57
1FCB: 0BDF
1FCC: 4BB1
1FCD: 0B18
1FCE: 48E3
1FCF: 0815
1FD0: 4835
1FD1: 0982
1FD2: 4971
1FD3: 06C4
1FD4: 46EA
1FD5: 0665
1FD6: 47D3
1FD7: 07AA
1FD8: 477A
1FD9: 04D1
1FDA: 4499
1FDB: 0463
1FDC: 4431
1FDD: 05F8
1FDE: 45D4
1FDF: 0577
1FE0: 4535
1FE1: 02F6
1FE2: 42BB
1FE3: 0212
1FE4: 4210
1FE5: 03FA
1FE6: 4399
1FE7: 0356
1FE8: 4360
1FE9: 033C
1FEA: 4090
1FEB: 009D
1FEC: 40A5
1FED: 004E
1FEE: 4063
1FEF: 0014 4033           IN 4033
1FF1: 01D0
1FF2: 41E3
1FF3: 0186
1FF4: 419D
1FF5: 0142
1FF6: 4145
1FF7: 0125
1FF8: 4175
1FF9: 0117
1FFA: 4115
1FFB: 016D
1FFC: 412D
1FFD: 0133
1FFE: 4170
1FFF: 0134
2000: 4174
2001: 0138
2002: 4131
2003: 0127
2004: 4121
2005: 016D
2006: 411F
2007: 0103
2008: 4134
2009: 0171
200A: 4147
200B: 0144
200C: 41B7
200D: 0189
200E: 41E9
200F: 0195
2010: 4038
2011: 001C
2012: 4064
2013: 0049
2014: 40A8
2015: 0088
2016: 4090
2017: 0335
2018: 4375
2019: 0356
201A: 4383
201B: 03EC
201C: 4223
201D: 0278
201E: 42A3
201F: 02B9
2020: 4574
2021: 0574
2022: 45BC
2023: 05F1
2024: 4464
2025: 0469
2026: 4499
2027: 04C8
2028: 4778
2029: 07BC
202A: 4790
202B: 0601
202C: 46AD
202D: 06C9
202E: 4930
202F: 0997
2030: 482D
2031: 0815
2032: 48FD
2033: 0B12
2034: 4BB6
2035: 0BC8
2036: 4A10
2037: 0AE7
2038: 4D7D
2039: 0D8A
203A: 4C1C
203B: 0CB8
203C: 4F29
203D: 0FB4
203E: 4E3E
203F: 0EB0
2040: 5127
2041: 11B6
2042: 5035
2043: 10B3
2044: 5330
2045: 13ED
2046: 521D
2047: 128A
2048: 5567
2049: 15F6
204A: 541E
204B: 148D
204C: 57E4
204D: 1629
204E: 56F8
204F: 1950
2050: 5826
2051: 1890
2052: 5B30
2053: 1BD4
2054: 5AB7
2055: 1D4D
2056: 5DD1
2057: 1CE5
2058: 5F78
2059: 1FC4
205A: 5E94
205B: 2169
205C: 6021
205D: 20EF
205E: 63F0
205F: 227D
2060: 6531
2061: 25E7
2062: 64B5
2063: 273D
2064: 6628
2065: 26E8
2066: 6991
2067: 2841
2068: 6B7D
2069: 2A2B
206A: 6AD7
206B: 2DCD
206C: 6CB1
206D: 2F4D
206E: 6E3E
206F: 3173
2070: 7038
2071: 30D4
2072: 73F4
2073: 3299
2074: 75A1
2075: 345F
2076: 7735
2077: 366B
2078: 797B
2079: 3817
207A: 7B04
207B: 3A25
207C: 7D41
207D: 3C2E
207E: 7F3F
207F: 3E20
2080: 0120
2081: 403D
2082: 0354
2083: 4238
2084: 0525
2085: 443E
2086: 0704
2087: 4661
2088: 0963
2089: 4860
208A: 0B43
208B: 4A59
208C: 0DCB
208D: 4CA9
208E: 0FE7
208F: 4EDC
2090: 1027
2091: 5301
2092: 1269
2093: 551D
2094: 14B4
2095: 578C
2096: 16C3
2097: 5836
2098: 1B75
2099: 5A42
209A: 1D95
209B: 5CFE
209C: 1E73
209D: 6144
209E: 20BF
209F: 63E0
20A0: 2574
20A1: 6474
20A2: 27A2
20A3: 66F8
20A4: 2864
20A5: 6B64
20A6: 2A9E
20A7: 6D85
20A8: 2F75
20A9: 6EE5
20AA: 31C4
20AB: 731A
20AC: 32AD
20AD: 75CE
20AE: 3764
20AF: 768C
20B0: 3874
20B1: 7B58
20B2: 3AF1
20B3: 7C07
20B4: 3FA1
20B5: 7E8D
20B6: 405F
20B7: 03E3
20B8: 4534
20B9: 0489
20BA: 4619
20BB: 09B9
20BC: 4B30
20BD: 0AB1
20BE: 4C35
20BF: 0FF5
20C0: 5124
20C1: 10B4
20C2: 5223
20C3: 15AE
20C4: 5725
20C5: 16AA
20C6: 5815
20C7: 1B96
20C8: 5D38
20C9: 1CA5
20CA: 5E51
20CB: 21C1
20CC: 63A8
20CD: 255D
20CE: 64F1
20CF: 2659
20D0: 683D
20D1: 2B9E
20D2: 6D75
20D3: 2C93
20D4: 6EC1
20D5: 3003
20D6: 73DF
20D7: 35B7
20D8: 7760
20D9: 36CD
20DA: 78F5
20DB: 3A7E
20DC: 7C2B
20DD: 3FE8
20DE: 01A4
20DF: 437D
20E0: 0550
20E1: 44E2
20E2: 06B5
20E3: 486E
20E4: 0A30
20E5: 4D82
20E6: 0FA4
20E7: 5152
20E8: 137D
20E9: 5536
20EA: 14C4
20EB: 5694
20EC: 18E4
20ED: 5A4D
20EE: 1C71
20EF: 5E06
20F0: 2027
20F1: 63D4
20F2: 25F7
20F3: 6798
20F4: 29B7
20F5: 6B1A
20F6: 2D69
20F7: 6F6A
20F8: 3161
20F9: 7345
20FA: 3511
20FB: 773F
20FC: 3921
20FD: 7B7D
20FE: 3D39
20FF: 7F3B
2100: 4174
2101: 0334
2102: 4570
2103: 0730
2104: 4925
2105: 0B37
2106: 4D15
2107: 0F45
2108: 517B
2109: 1363
210A: 5510
210B: 1741
210C: 59AD
210D: 1B89
210E: 5DE4
210F: 1FD9
2110: 6031
2111: 2255
2112: 6464
2113: 264A
2114: 68AD
2115: 2A9E
2116: 6CC4
2117: 313C
2118: 7334
2119: 3555
211A: 7791
211B: 39FE
211C: 7A37
211D: 3C7C
211E: 7EB7
211F: 40F0
2120: 0527
2121: 4739
2122: 09F0
2123: 4BFC
2124: 0C28
2125: 4E61
2126: 10D0
2127: 52C4
2128: 1778
2129: 59AC
212A: 1BDB
212B: 5C08
212C: 1EEA
212D: 60B8
212E: 257E
212F: 679A
2130: 2826
2131: 6A41
2132: 2CF8
2133: 7178
2134: 33B7
2135: 75C2
2136: 3645
2137: 78F1
2138: 3D7C
2139: 7FE1
213A: 4015
213B: 02AC
213C: 4737
213D: 09A9
213E: 4A5F
213F: 0C81
2140: 5123
2141: 13BC
2142: 5423
2143: 16A9
2144: 5B3D
2145: 1DED
2146: 5E00
2147: 2084
2148: 6567
2149: 27F6
214A: 6851
214B: 2ACA
214C: 6FA1
214D: 300E
214E: 72EC
214F: 376C
2150: 783B
2151: 3A80
2152: 7F30
2153: 41DC
2154: 02B6
2155: 4708
2156: 0990
2157: 4AAC
2158: 0F7A
2159: 5185
215A: 1291
215B: 572D
215C: 1829
215D: 5AFC
215E: 1FAA
215F: 6070
2160: 2574
2161: 67FA
2162: 28B6
2163: 6D3D
2164: 2E25
2165: 70E1
2166: 3599
2167: 764E
2168: 3B71
2169: 7C65
216A: 3EDC
216B: 0384
216C: 44B0
216D: 0949
216E: 4A7C
216F: 0F10
2170: 5074
2171: 12C5
2172: 57F1
2173: 188E
2174: 5DB7
2175: 1E4C
2176: 6357
2177: 2460
2178: 6967
2179: 2A49
217A: 6F50
217B: 302C
217C: 7528
217D: 3631
217E: 7B70
217F: 3C21
2180: 0123
2181: 423C
2182: 0723
2183: 4829
2184: 0D3D
2185: 4E63
2186: 137A
2187: 546F
2188: 1940
2189: 5A6D
218A: 1F55
218B: 600D
218C: 25B4
218D: 669C
218E: 2BE3
218F: 6CC6
2190: 3035
2191: 7512
2192: 3675
2193: 7B1D
2194: 3CB0
2195: 0182
2196: 4290
2197: 0631
2198: 4B7C
2199: 0C40
219A: 51D0
219B: 12E8
219C: 5625
219D: 1B6E
219E: 5CA4
219F: 21B5
21A0: 6538
21A1: 267A
21A2: 6BBF
21A3: 2CF6
21A4: 7037
21A5: 352D
21A6: 7686
21A7: 3BC0
21A8: 7F66
21A9: 40BC
21AA: 0590
21AB: 4909
21AC: 0AA5
21AD: 4FCF
21AE: 137B
21AF: 54CE
21B0: 1874
21B1: 5D4C
21B2: 1EFF
21B3: 6208
21B4: 27E4
21B5: 68D9
21B6: 2C58
21B7: 71EC
21B8: 357A
21B9: 768E
21BA: 3A50
21BB: 7FB4
21BC: 432B
21BD: 04A8
21BE: 4870
21BF: 0DBD
21C0: 5131
21C1: 12B4
21C2: 5622
21C3: 1BFD
21C4: 5F25
21C5: 20ED
21C6: 6437
21C7: 2997
21C8: 6D61
21C9: 2EE0
21CA: 721E
21CB: 37A8
21CC: 7BAA
21CD: 3F12
21CE: 00E2
21CF: 4441
21D0: 083C
21D1: 4DF0
21D2: 1163
21D3: 52D2
21D4: 16B1
21D5: 5A19
21D6: 1FD8
21D7: 63C1
21D8: 2763
21D9: 68C0
21DA: 2C83
21DB: 7079
21DC: 3440
21DD: 79F8
21DE: 3DB1
21DF: 0166
21E0: 4520
21E1: 069A
21E2: 4A84
21E3: 0E6A
21E4: 522D
21E5: 17FE
21E6: 5B84
21E7: 1F5C
21E8: 6334
21E9: 2735
21EA: 68D1
21EB: 2C9E
21EC: 70B7
21ED: 345C
21EE: 7877
21EF: 3C10
21F0: 0027
21F1: 4582
21F2: 09C9
21F3: 4D92
21F4: 11B1
21F5: 550D
21F6: 1951
21F7: 5D77
21F8: 2171
21F9: 6545
21FA: 2919
21FB: 6D23
21FC: 3164
21FD: 753C
21FE: 3970
21FF: 7D39
2200: 413D
2201: 0521
2202: 4924
2203: 0D31
2204: 5121
2205: 156D
2206: 591D
2207: 1D04
2208: 616E
2209: 2560
220A: 6910
220B: 2D42
220C: 71A2
220D: 35DD
220E: 79E4
220F: 3DC2
2210: 003D
2211: 4406
2212: 0864
2213: 4C44
2214: 10E4
2215: 549D
2216: 18D1
2217: 5F36
2218: 2367
2219: 6744
221A: 2B97
221B: 6FE8
221C: 3237
221D: 7631
221E: 3AF0
221F: 7EF4
2220: 4538
2221: 0979
2222: 4DF0
2223: 11FC
2224: 5428
2225: 1864
2226: 5C9B
2227: 20C0
2228: 673A
2229: 2BC0
222A: 6FDE
222B: 3202
222C: 76B6
222D: 3AC9
222E: 0178
222F: 45F0
2230: 0827
2231: 4C5A
2232: 10E5
2233: 5709
2234: 1BAC
2235: 5FA9
2236: 2255
2237: 66E4
2238: 2D67
2239: 7191
223A: 347F
223B: 7899
223C: 3F33
223D: 03B4
223E: 4623
223F: 0AA1
2240: 512D
2241: 15F5
2242: 5820
2243: 1CBC
2244: 6337
2245: 27BE
2246: 6A11
2247: 2E82
2248: 7571
2249: 39F6
224A: 7CB3
224B: 40F4
224C: 07AB
224D: 4A08
224E: 0EB0
224F: 5554
2250: 1826
2251: 5C90
2252: 2330
2253: 67D4
2254: 2AAA
2255: 714D
2256: 35D1
2257: 78E5
2258: 3F60
2259: 03D2
225A: 4699
225B: 0D7E
225C: 5030
225D: 14E4
225E: 5BF0
225F: 1E74
2260: 6538
2261: 29FC
2262: 6CBB
2263: 3378
2264: 7664
2265: 3AE2
2266: 0196
2267: 4405
2268: 0B78
2269: 4E2C
226A: 12C4
226B: 5999
226C: 1CA8
226D: 6358
226E: 2630
226F: 6D05
2270: 3035
2271: 74C6
2272: 3BE3
2273: 7E9C
2274: 45A3
2275: 0848
2276: 4F43
2277: 1229
2278: 5934
2279: 1C04
227A: 631C
227B: 2621
227C: 6D64
227D: 3030
227E: 7731
227F: 3A2F
2280: 0131
2281: 447B
2282: 0B5A
2283: 4E57
2284: 1510
2285: 5825
2286: 1F15
2287: 6245
2288: 2971
2289: 6C64
228A: 3343
228B: 7659
228C: 3DE4
228D: 008D
228E: 47F1
228F: 0AC6
2290: 5027
2291: 1714
2292: 5A77
2293: 2158
2294: 64E4
2295: 2B8C
2296: 6EC0
2297: 3435
2298: 7B71
2299: 3E44
229A: 0582
229B: 48FE
229C: 0E64
229D: 556B
229E: 18B5
229F: 5FE7
22A0: 252D
22A1: 6835
22A2: 2FB4
22A3: 72FC
22A4: 3836
22A5: 7F66
22A6: 42CB
22A7: 0985
22A8: 4F6D
22A9: 12AA
22AA: 59C5
22AB: 1F4D
22AC: 62A2
22AD: 29D8
22AE: 6F75
22AF: 3299
22B0: 7874
22B1: 3F59
22B2: 02F9
22B3: 4816
22B4: 0FA1
22B5: 52C1
22B6: 1849
22B7: 5FA5
22B8: 2560
22B9: 688A
22BA: 2E50
22BB: 75AF
22BC: 3B21
22BD: 7EFD
22BE: 4435
22BF: 0BB4
22C0: 5120
22C1: 14B0
22C2: 5A3E
22C3: 21FD
22C4: 6726
22C5: 2AB4
22C6: 7050
22C7: 3784
22C8: 7D34
22C9: 40C2
22CA: 0642
22CB: 4DD8
22CC: 13A1
22CD: 5953
22CE: 1C95
22CF: 625B
22D0: 283B
22D1: 6F87
22D2: 3564
22D3: 78D5
22D4: 3EC1
22D5: 041E
22D6: 4BDF
22D7: 11B0
22D8: 5760
22D9: 1ACD
22DA: 60F4
22DB: 267A
22DC: 6C21
22DD: 33EE
22DE: 79A4
22DF: 3F11
22E0: 0531
22E1: 48F4
22E2: 0EA3
22E3: 5469
22E4: 1A4B
22E5: 61D9
22E6: 2787
22E7: 6D4C
22E8: 3367
22E9: 7931
22EA: 3CC9
22EB: 02CD
22EC: 48B4
22ED: 0E5C
22EE: 5463
22EF: 1A06
22F0: 6035
22F1: 27D2
22F2: 6DF5
22F3: 338E
22F4: 79F3
22F5: 3F74
22F6: 055F
22F7: 4B70
22F8: 1134
22F9: 5704
22FA: 1D02
22FB: 6328
22FC: 2964
22FD: 6F34
22FE: 353E
22FF: 7B75
2300: 4135
2301: 0775
2302: 4D3D
2303: 133C
2304: 593E
2305: 1F28
2306: 6550
2307: 2B0A
2308: 7172
2309: 3725
230A: 7D51
230B: 4341
230C: 09AD
230D: 4F96
230E: 15F5
230F: 5B95
2310: 2020
2311: 6602
2312: 2C79
2313: 724E
2314: 38B0
2315: 7E94
2316: 4490
2317: 0D35
2318: 5375
2319: 1956
231A: 5F83
231B: 25EC
231C: 6A23
231D: 3078
231E: 76A3
231F: 3CB9
2320: 0574
2321: 4B74
2322: 11BC
2323: 57F1
2324: 1C64
2325: 6261
2326: 2899
2327: 6ED1
2328: 3760
2329: 7DA9
232A: 43D5
232B: 0843
232C: 4EC1
232D: 14D3
232E: 5D7F
232F: 2387
2330: 6820
2331: 2E5D
2332: 7494
2333: 3D18
2334: 03A5
2335: 49DE
2336: 0E44
2337: 5480
2338: 1D67
2339: 638A
233A: 2805
233B: 6EB9
233C: 372C
233D: 7DD2
233E: 4204
233F: 08A2
2340: 513D
2341: 17A6
2342: 5C24
2343: 22A4
2344: 6B64
2345: 31BD
2346: 7611
2347: 3C96
2348: 0567
2349: 4BE4
234A: 1057
234B: 56C8
234C: 1FB7
234D: 644A
234E: 2AC9
234F: 735A
2350: 3821
2351: 7ED5
2352: 4771
2353: 0DCF
2354: 52A1
2355: 1B4D
2356: 61D9
2357: 26AB
2358: 6F34
2359: 35C4
235A: 7AD0
235B: 4360
235C: 0825
235D: 4EE7
235E: 17B5
235F: 5C35
2360: 253B
2361: 6BF3
2362: 30F0
2363: 7969
2364: 3E33
2365: 04E4
2366: 4D83
2367: 1251
2368: 5B6D
2369: 2065
236A: 66DC
236B: 2F84
236C: 74B0
236D: 3D49
236E: 027C
236F: 4B10
2370: 1074
2371: 56C5
2372: 1FF1
2373: 648E
2374: 2DB7
2375: 724C
2376: 3B57
2377: 0060
2378: 4967
2379: 0E49
237A: 5750
237B: 1C2C
237C: 6528
237D: 2A31
237E: 7370
237F: 3834
2380: 0138
2381: 463C
2382: 0F3B
2383: 5438
2384: 1D6A
2385: 6249
2386: 2B07
2387: 7000
2388: 3967
2389: 7E71
238A: 473F
238B: 0C79
238C: 55B3
238D: 1A94
238E: 63E3
238F: 28C1
2390: 702D
2391: 3955
2392: 7E60
2393: 475C
2394: 0CB7
2395: 559E
2396: 1AD1
2397: 6222
2398: 2B71
2399: 7056
239A: 39C7
239B: 7ED4
239C: 462B
239D: 0F68
239E: 54F0
239F: 1DF4
23A0: 6526
23A1: 2A70
23A2: 73F0
23A3: 38F4
23A4: 002A
23A5: 492D
23A6: 0E91
23A7: 5785
23A8: 1F79
23A9: 64A4
23AA: 2DCA
23AB: 7508
23AC: 3AE4
23AD: 03D2
23AE: 4B76
23AF: 10D5
23B0: 5820
23B1: 2142
23B2: 66F9
23B3: 2E0E
23B4: 77B0
23B5: 3CD4
23B6: 0410
23B7: 4DE9
23B8: 157D
23B9: 5A91
23BA: 2204
23BB: 6BA1
23BC: 3321
23BD: 78FD
23BE: 4020
23BF: 09B4
23C0: 5127
23C1: 16A6
23C2: 5E31
23C3: 27BA
23C4: 6F21
23C5: 34BE
23C6: 7C5C
23C7: 45C5
23C8: 0D75
23C9: 52E9
23CA: 1A5C
23CB: 638D
23CC: 2BA5
23CD: 7311
23CE: 38F9
23CF: 005E
23D0: 4831
23D1: 11DB
23D2: 5914
23D3: 1ECA
23D4: 66A1
23D5: 2E1E
23D6: 77C4
23D7: 3FCA
23D8: 0740
23D9: 4CD2
23DA: 1499
23DB: 5C7E
23DC: 2430
23DD: 6DE4
23DE: 35F0
23DF: 7D65
23E0: 4535
23E1: 0AE6
23E2: 52A3
23E3: 1A7C
23E4: 6223
23E5: 2BE8
23E6: 7383
23E7: 3B12
23E8: 034D
23E9: 4B2A
23EA: 10C5
23EB: 58CD
23EC: 20A5
23ED: 684F
23EE: 3075
23EF: 7855
23F0: 403D
23F1: 09DB
23F2: 51B0
23F3: 199C
23F4: 61E4
23F5: 2959
23F6: 7147
23F7: 396C
23F8: 0167
23F9: 4911
23FA: 1109
23FB: 596D
23FC: 2129
23FD: 693C
23FE: 312A
23FF: 7930
2400: 4174
2401: 093A
2402: 5136
2403: 197D
2404: 6128
2405: 2924
2406: 7104
2407: 3911
2408: 0178
2409: 4960
240A: 1110
240B: 595D
240C: 21A5
240D: 698E
240E: 31E3
240F: 79D4
2410: 4033
2411: 0810
2412: 5063
2413: 1811
2414: 60E4
2415: 288C
2416: 70DC
2417: 3B29
2418: 0334
2419: 4B44
241A: 139C
241B: 5BE4
241C: 222F
241D: 6A78
241E: 32FE
241F: 7A90
2420: 453A
2421: 0D7A
2422: 55A2
2423: 1DE9
2424: 642C
2425: 2C08
2426: 7483
2427: 3CCA
2428: 0761
2429: 4FB1
242A: 17D8
242B: 5E61
242C: 2680
242D: 6EDC
242E: 3962
242F: 019E
2430: 4874
2431: 1045
2432: 58F1
2433: 230E
2434: 6BB7
2435: 33CC
2436: 7A57
2437: 42E0
2438: 0D66
2439: 55BC
243A: 1C1F
243B: 64B8
243C: 2F64
243D: 77BC
243E: 3E22
243F: 06B0
2440: 5174
2441: 19BC
2442: 603E
2443: 28FD
2444: 7325
2445: 3BED
2446: 021E
2447: 4A84
2448: 1566
2449: 5DF7
244A: 245F
244B: 6CDA
244C: 37E4
244D: 7E0D
244E: 46F1
244F: 1146
2450: 5827
2451: 2094
2452: 6B77
2453: 33D8
2454: 7AEA
2455: 454D
2456: 0D90
2457: 5491
2458: 1F7C
2459: 67C0
245A: 2E82
245B: 7968
245C: 4064
245D: 08F4
245E: 53A3
245F: 1A35
2460: 6530
2461: 2DF4
2462: 74A2
2463: 3F76
2464: 062A
2465: 4EE8
2466: 1983
2467: 6056
2468: 2B34
2469: 7231
246A: 3ADF
246B: 05CD
246C: 4CB0
246D: 1755
246E: 5E75
246F: 2955
2470: 7023
2471: 38D0
2472: 03E3
2473: 4A89
2474: 15E8
2475: 5C0D
2476: 2752
2477: 6E70
2478: 3960
2479: 0045
247A: 4B09
247B: 1222
247C: 5D31
247D: 247D
247E: 6F33
247F: 3634
2480: 013A
2481: 4875
2482: 1332
2483: 5A3C
2484: 2536
2485: 6C28
2486: 371C
2487: 7E1C
2488: 4934
2489: 1076
248A: 5B55
248B: 2248
248C: 6DE4
248D: 349C
248E: 7FB0
248F: 46D2
2490: 1038
2491: 5B1A
2492: 2267
2493: 6D54
2494: 34AA
2495: 7F8A
2496: 4690
2497: 102A
2498: 5B64
2499: 2240
249A: 6D9E
249B: 34E4
249C: 7E2A
249D: 497A
249E: 10F0
249F: 5BE1
24A0: 253B
24A1: 6C35
24A2: 37A4
24A3: 7EF5
24A4: 4821
24A5: 132D
24A6: 5A95
24A7: 25C4
24A8: 6F67
24A9: 36B1
24AA: 019E
24AB: 4B69
24AC: 12B3
24AD: 5DD8
24AE: 2763
24AF: 6E81
24B0: 3850
24B1: 0350
24B2: 4AF1
24B3: 140E
24B4: 5FB0
24B5: 26A1
24B6: 7074
24B7: 3BE4
24B8: 0566
24B9: 4C8E
24BA: 1650
24BB: 61BD
24BC: 2B25
24BD: 72AE
24BE: 3C23
24BF: 07B4
24C0: 5133
24C1: 18B0
24C2: 6272
24C3: 2D84
24C4: 772B
24C5: 3EB8
24C6: 0850
24C7: 5384
24C8: 1D66
24C9: 64E0
24CA: 2E10
24CB: 79C4
24CC: 43AA
24CD: 0D5D
24CE: 54F1
24CF: 1E15
24D0: 6830
24D1: 3394
24D2: 7D62
24D3: 44D6
24D4: 0EE8
24D5: 584D
24D6: 23DE
24D7: 6DA4
24D8: 3766
24D9: 7ED7
24DA: 489F
24DB: 127A
24DC: 5C64
24DD: 27ED
24DE: 71B1
24DF: 3B66
24E0: 0527
24E1: 4CF4
24E2: 16B7
24E3: 6078
24E4: 2A6A
24E5: 7589
24E6: 3F95
24E7: 0944
24E8: 5367
24E9: 1D31
24EA: 64B4
24EB: 2E9A
24EC: 78A1
24ED: 424E
24EE: 0C64
24EF: 5679
24F0: 2010
24F1: 6BD4
24F2: 35E2
24F3: 7F96
24F4: 49E4
24F5: 135D
24F6: 5D51
24F7: 2776
24F8: 7167
24F9: 3B04
24FA: 0517
24FB: 4F28
24FC: 1966
24FD: 6304
24FE: 2D3F
24FF: 7720
2500: 4174
2501: 0B34
2502: 5522
2503: 1F38
2504: 6964
2505: 3324
2506: 7D1E
2507: 4745
2508: 1175
2509: 5B25
250A: 2554
250B: 6F4C
250C: 39B6
250D: 0396
250E: 4DBC
250F: 1795
2510: 603A
2511: 2A14
2512: 7462
2513: 3E4F
2514: 08AB
2515: 529A
2516: 1C90
2517: 6935
2518: 3375
2519: 7D56
251A: 4783
251B: 11EC
251C: 5A23
251D: 2478
251E: 6EFE
251F: 3891
2520: 0531
2521: 4F74
2522: 19A3
2523: 63E9
2524: 2C40
2525: 767A
2526: 4095
2527: 0AD6
2528: 5760
2529: 21C9
252A: 6BF4
252B: 340C
252C: 7EB6
252D: 48D6
252E: 1530
252F: 5F85
2530: 2835
2531: 7246
2532: 3CE3
2533: 091C
2534: 53A3
2535: 1DC8
2536: 6654
2537: 30DC
2538: 7D7B
2539: 4790
253A: 1050
253B: 5AAC
253C: 2736
253D: 71B8
253E: 3A70
253F: 04BC
2540: 513A
2541: 1BF5
2542: 6431
2543: 2EFD
2544: 7B20
2545: 45AC
2546: 0E02
2547: 588E
2548: 2538
2549: 6FA5
254A: 385E
254B: 02CC
254C: 4FB6
254D: 180F
254E: 62FF
254F: 2F42
2550: 7874
2551: 4285
2552: 0F71
2553: 59CE
2554: 22B7
2555: 6F0C
2556: 39D7
2557: 02A0
2558: 4F3A
2559: 1985
255A: 62D0
255B: 2F59
255C: 782B
255D: 42BD
255E: 0FA4
255F: 587D
2560: 2531
2561: 6FB5
2562: 38A7
2563: 0578
2564: 4E37
2565: 18F9
2566: 65DC
2567: 2E05
2568: 7B6D
2569: 442A
256A: 0EC5
256B: 5BCD
256C: 24B7
256D: 714D
256E: 3A7F
256F: 0701
2570: 5074
2571: 1AC6
2572: 67FF
2573: 3090
2574: 7DA1
2575: 460D
2576: 1346
2577: 5C60
2578: 2973
2579: 7200
257A: 3F04
257B: 082C
257C: 5530
257D: 1E34
257E: 6B3F
257F: 343B
2580: 0174
2581: 4A22
2582: 1738
2583: 6038
2584: 2D36
2585: 7628
2586: 4350
2587: 0C11
2588: 597C
2589: 2260
258A: 6F10
258B: 385D
258C: 05A5
258D: 4E8E
258E: 1BE3
258F: 64D4
2590: 3033
2591: 7D10
2592: 4630
2593: 1358
2594: 5CBC
2595: 299D
2596: 72D1
2597: 3E2B
2598: 0B70
2599: 5456
259A: 21DE
259B: 6A89
259C: 3621
259D: 037C
259E: 4CA3
259F: 19E1
25A0: 6550
25A1: 2E62
25A2: 7BB5
25A3: 44EE
25A4: 1030
25A5: 5D08
25A6: 26A2
25A7: 73D0
25A8: 3F7D
25A9: 08AB
25AA: 55C3
25AB: 2195
25AC: 6A9D
25AD: 37D2
25AE: 0365
25AF: 4CD5
25B0: 1827
25B1: 6541
25B2: 2EF1
25B3: 7A13
25B4: 47A0
25B5: 108D
25B6: 5C59
25B7: 29EB
25B8: 7534
25B9: 3E84
25BA: 0A50
25BB: 57A1
25BC: 2325
25BD: 6CAF
25BE: 3837
25BF: 05B0
25C0: 5174
25C1: 1AB6
25C2: 6631
25C3: 33AB
25C4: 7F21
25C5: 48BF
25C6: 141E
25C7: 61C5
25C8: 2D63
25C9: 76EC
25CA: 4244
25CB: 0FC5
25CC: 5BE4
25CD: 271C
25CE: 70B0
25CF: 3C5D
25D0: 0821
25D1: 5592
25D2: 2175
25D3: 6A9D
25D4: 36B6
25D5: 0218
25D6: 4FD9
25D7: 1BAB
25D8: 6734
25D9: 30D1
25DA: 7C9F
25DB: 482D
25DC: 1430
25DD: 61F5
25DE: 2DB5
25DF: 7935
25E0: 453A
25E1: 0EFA
25E2: 5AA2
25E3: 2669
25E4: 722C
25E5: 3FA1
25E6: 0BD0
25E7: 574A
25E8: 2362
25E9: 6F20
25EA: 38C2
25EB: 048A
25EC: 50B6
25ED: 1C52
25EE: 6867
25EF: 341B
25F0: 0074
25F1: 4DD7
25F2: 19E9
25F3: 65DD
25F4: 31B4
25F5: 7D41
25F6: 4951
25F7: 156B
25F8: 6160
25F9: 2D45
25FA: 791C
25FB: 4524
25FC: 1122
25FD: 5D38
25FE: 297E
25FF: 7575
2600: 4174
2601: 0D01
2602: 5938
2603: 2538
2604: 7136
2605: 3D28
2606: 0950
2607: 550C
2608: 2167
2609: 6D25
260A: 3951
260B: 050D
260C: 51A8
260D: 1D9C
260E: 69E2
260F: 35D2
2610: 0031
2611: 4C55
2612: 1863
2613: 6449
2614: 30AB
2615: 7C83
2616: 48D5
2617: 1765
2618: 6375
2619: 2F57
261A: 7B93
261B: 47E5
261C: 1233
261D: 5E7C
261E: 2AA9
261F: 76B5
2620: 4520
2621: 117A
2622: 5DF0
2623: 29E9
2624: 742C
2625: 4068
2626: 0CD0
2627: 58CB
2628: 277B
2629: 73B7
262A: 3FC4
262B: 0A05
262C: 56E4
262D: 22DC
262E: 7173
262F: 3D81
2630: 083D
2631: 545B
2632: 20F7
2633: 6F5D
2634: 3BA5
2635: 07DE
2636: 5210
2637: 1EF1
2638: 6D7C
2639: 3980
263A: 0450
263B: 50A9
263C: 1F2B
263D: 6BB2
263E: 3622
263F: 02A2
2640: 5135
2641: 1DAC
2642: 6870
2643: 34A9
2644: 032B
2645: 4FED
2646: 1A04
2647: 668D
2648: 3571
2649: 01A5
264A: 4C42
264B: 18D8
264C: 67AD
264D: 3213
264E: 7EF5
264F: 4D51
2650: 1874
2651: 6496
2652: 337F
2653: 7FD0
2654: 4AB4
2655: 1901
2656: 65D5
2657: 30BD
2658: 7F3A
2659: 4B85
265A: 16D0
265B: 654C
265C: 3064
265D: 7CFE
265E: 4BA2
265F: 1670
2660: 6522
2661: 31FC
2662: 7CB3
2663: 4B78
2664: 1664
2665: 62E4
2666: 319E
2667: 7C05
2668: 4B60
2669: 162D
266A: 62D5
266B: 31CD
266C: 7CB6
266D: 4B52
266E: 1673
266F: 651E
2670: 3074
2671: 7CC1
2672: 4BFF
2673: 16DD
2674: 65B0
2675: 3045
2676: 7F55
2677: 4A25
2678: 1971
2679: 6404
267A: 3303
267B: 7E39
267C: 4D64
267D: 1831
267E: 6735
267F: 3234
2680: 0130
2681: 4C26
2682: 1B70
2683: 6629
2684: 352B
2685: 006D
2686: 4F11
2687: 1A0B
2688: 6934
2689: 3464
268A: 035C
268B: 4E4C
268C: 1DB6
268D: 6890
268E: 37F9
268F: 02DB
2690: 5033
2691: 1F19
2692: 6A69
2693: 391D
2694: 04A0
2695: 538C
2696: 1EC2
2697: 6C2E
2698: 3B34
2699: 0655
269A: 5591
269B: 20FE
269C: 6E37
269D: 3D7C
269E: 08B7
269F: 57F0
26A0: 2523
26A1: 7074
26A2: 3FA9
26A3: 0AB3
26A4: 5840
26A5: 2768
26A6: 7291
26A7: 41D6
26A8: 0F60
26A9: 5AC0
26AA: 29DE
26AB: 7702
26AC: 42B6
26AD: 11C9
26AE: 5F78
26AF: 2AF0
26B0: 7806
26B1: 4740
26B2: 12F9
26B3: 6013
26B4: 2FB7
26B5: 7A18
26B6: 4869
26B7: 17EA
26B8: 6561
26B9: 30C5
26BA: 7E11
26BB: 4DBF
26BC: 1B21
26BD: 66FD
26BE: 3439
26BF: 03BB
26C0: 5174
26C1: 1CA1
26C2: 6A38
26C3: 39B8
26C4: 0764
26C5: 52A2
26C6: 201E
26C7: 6F86
26C8: 3D71
26C9: 08A8
26CA: 565F
26CB: 25DD
26CC: 73B1
26CD: 4111
26CE: 0CF5
26CF: 5A5B
26D0: 2820
26D1: 77D5
26D2: 4576
26D3: 10D2
26D4: 5EBD
26D5: 2C08
26D6: 7BC2
26D7: 49E5
26D8: 177B
26D9: 62C3
26DA: 30D0
26DB: 7E6C
26DC: 4C64
26DD: 1BF0
26DE: 69B1
26DF: 3766
26E0: 0527
26E1: 50FC
26E2: 1EA6
26E3: 6C78
26E4: 3A64
26E5: 09FF
26E6: 5785
26E7: 254C
26E8: 737A
26E9: 4120
26EA: 0CD4
26EB: 5ACD
26EC: 28A7
26ED: 7652
26EE: 447D
26EF: 1205
26F0: 6038
26F1: 2FD0
26F2: 7DE8
26F3: 4BD3
26F4: 19E4
26F5: 670D
26F6: 3564
26F7: 036D
26F8: 5171
26F9: 1F17
26FA: 6D15
26FB: 3B6D
26FC: 092D
26FD: 572E
26FE: 2570
26FF: 7334
2700: 4174
2701: 0F31
2702: 5D3F
2703: 2B32
2704: 7936
2705: 476D
2706: 1504
2707: 630A
2708: 3134
2709: 7F71
270A: 4D58
270B: 1B48
270C: 69E4
270D: 378E
270E: 05FF
270F: 53C0
2710: 2020
2711: 6E1D
2712: 3C30
2713: 0A51
2714: 58A1
2715: 268C
2716: 74D4
2717: 452C
2718: 137A
2719: 6142
271A: 2FD0
271B: 7DF9
271C: 4A2B
271D: 183D
271E: 66A4
271F: 34FD
2720: 0531
2721: 5335
2722: 21BF
2723: 6FEB
2724: 3C21
2725: 0A7F
2726: 5897
2727: 26D7
2728: 777B
2729: 45B2
272A: 13C4
272B: 6005
272C: 2EE4
272D: 7CD2
272E: 4D65
272F: 1B81
2730: 6827
2731: 365C
2732: 04F4
2733: 5518
2734: 23E4
2735: 71CC
2736: 3E5E
2737: 0CE1
2738: 5D34
2739: 2B96
273A: 7804
273B: 46AC
273C: 172D
273D: 65AF
273E: 3223
273F: 00F5
2740: 5120
2741: 1FBA
2742: 6C70
2743: 3AA9
2744: 0B2C
2745: 59A8
2746: 2650
2747: 748B
2748: 457B
2749: 13F7
274A: 6044
274B: 2EC5
274C: 7FE4
274D: 4C0A
274E: 1AF8
274F: 6B5C
2750: 3837
2751: 069D
2752: 5730
2753: 25D1
2754: 72A1
2755: 430C
2756: 11D4
2757: 5EE5
2758: 2F7D
2759: 7DCB
275A: 4A84
275B: 1B62
275C: 6864
275D: 36FC
275E: 07F0
275F: 5479
2760: 2535
2761: 73E7
2762: 40B7
2763: 1178
2764: 5E36
2765: 2CAD
2766: 7D98
2767: 4A44
2768: 1B78
2769: 6829
276A: 369E
276B: 07E8
276C: 54AA
276D: 2552
276E: 7262
276F: 4301
2770: 103C
2771: 5EB0
2772: 2FE3
2773: 7C92
2774: 4DB1
2775: 1A59
2776: 6B58
2777: 3800
2778: 0946
2779: 5610
277A: 2719
277B: 7423
277C: 4537
277D: 1378
277E: 6309
277F: 303A
2780: 0121
2781: 4E75
2782: 1F23
2783: 6C29
2784: 3D25
2785: 0A23
2786: 5B14
2787: 2845
2788: 797D
2789: 466B
278A: 1710
278B: 6459
278C: 35AC
278D: 0298
278E: 53B0
278F: 20D8
2790: 7035
2791: 4106
2792: 0E63
2793: 5F54
2794: 2CB2
2795: 7D88
2796: 4A90
2797: 1A26
2798: 6B71
2799: 384B
279A: 0984
279B: 56FF
279C: 2625
279D: 7771
279E: 44F0
279F: 15FD
27A0: 6535
27A1: 3279
27A2: 03BC
27A3: 50BD
27A4: 202B
27A5: 716B
27A6: 3ED0
27A7: 0FD1
27A8: 5F7C
27A9: 2CA0
27AA: 7DC3
27AB: 4D08
27AC: 1AE4
27AD: 6BCF
27AE: 3B65
27AF: 089C
27B0: 583A
27B1: 2946
27B2: 76BE
27B3: 465D
27B4: 17E4
27B5: 64F9
27B6: 3458
27B7: 05E0
27B8: 5534
27B9: 2292
27BA: 7211
27BB: 43A1
27BC: 1328
27BD: 60AE
27BE: 3070
27BF: 01B4
27C0: 5126
27C1: 1EB0
27C2: 6E70
27C3: 3FBE
27C4: 0F36
27C5: 5CB8
27C6: 2C1D
27C7: 7D87
27C8: 4D78
27C9: 1AEC
27CA: 6A5E
27CB: 3BCA
27CC: 0BE8
27CD: 5B5D
27CE: 28F1
27CF: 785B
27D0: 4830
27D1: 19D5
27D2: 6966
27D3: 36D8
27D4: 06A3
27D5: 5608
27D6: 27C4
27D7: 77A4
27D8: 4760
27D9: 14CC
27DA: 649F
27DB: 3463
27DC: 0464
27DD: 55F5
27DE: 25B1
27DF: 7566
27E0: 4574
27E1: 12F6
27E2: 62BC
27E3: 3278
27E4: 0225
27E5: 53FF
27E6: 239C
27E7: 735C
27E8: 4334
27E9: 1331
27EA: 60D1
27EB: 3086
27EC: 00A1
27ED: 5053
27EE: 2030
27EF: 701A
27F0: 4022
27F1: 11D0
27F2: 61E2
27F3: 31D3
27F4: 01E4
27F5: 510D
27F6: 2162
27F7: 716A
27F8: 417B
27F9: 1108
27FA: 6103
27FB: 316D
27FC: 0125
27FD: 512F
27FE: 2135
27FF: 7175
2800: 4135
2801: 1121
2802: 6124
2803: 313C
2804: 0127
2805: 5125
2806: 2115
2807: 7101
2808: 4134
2809: 116C
280A: 615E
280B: 310D
280C: 01A5
280D: 5191
280E: 21FC
280F: 7195
2810: 4030
2811: 101C
2812: 6062
2813: 3058
2814: 00A7
2815: 5099
2816: 20D9
2817: 732A
2818: 437A
2819: 1356
281A: 63DE
281B: 33AD
281C: 0264
281D: 5249
281E: 22B8
281F: 72F0
2820: 4526
2821: 1570
2822: 65F0
2823: 35F4
2824: 0437
2825: 542D
2826: 2491
2827: 7485
2828: 4767
2829: 17B1
282A: 67C2
282B: 360C
282C: 06AA
282D: 56DA
282E: 2975
282F: 79D5
2830: 4839
2831: 185A
2832: 68FE
2833: 3B08
2834: 0BA9
2835: 5BC8
2836: 2A5E
2837: 7AF1
2838: 4D34
2839: 1D8C
283A: 6C1E
283B: 3CED
283C: 0F30
283D: 5FB5
283E: 2E35
283F: 7EF5
2840: 5137
2841: 21B0
2842: 703E
2843: 40A9
2844: 1321
2845: 63BF
2846: 3250
2847: 028A
2848: 5572
2849: 25A5
284A: 7444
284B: 44C5
284C: 17A1
284D: 665D
284E: 36F8
284F: 0954
2850: 5838
2851: 2899
2852: 7B30
2853: 4BCA
2854: 1AAD
2855: 6D19
2856: 3DD8
2857: 0CE5
2858: 5F77
2859: 2FCC
285A: 7E82
285B: 516E
285C: 2031
285D: 70F1
285E: 43B1
285F: 1267
2860: 6574
2861: 35E6
2862: 04BC
2863: 5772
2864: 2630
2865: 76FE
2866: 49D0
2867: 1844
2868: 6B7A
2869: 3A21
286A: 0A90
286B: 5D98
286C: 2CAA
286D: 7F48
286E: 4E63
286F: 2100
2870: 7035
2871: 40D9
2872: 13B0
2873: 628E
2874: 35BD
2875: 0440
2876: 5752
2877: 266A
2878: 7978
2879: 4816
287A: 1B5E
287B: 6A6D
287C: 3D64
287D: 0C14
287E: 5F24
287F: 2E75
2880: 0126
2881: 5030
2882: 2331
2883: 7239
2884: 4537
2885: 1477
2886: 677A
2887: 366F
2888: 094B
2889: 5825
288A: 2B1B
288B: 7A0D
288C: 4D9B
288D: 1CDD
288E: 6FBA
288F: 3E95
2890: 100B
2891: 632B
2892: 3222
2893: 051D
2894: 54EF
2895: 27CD
2896: 76EF
2897: 481B
2898: 1B27
2899: 6A05
289A: 3DDD
289B: 0CAD
289C: 5E1B
289D: 313D
289E: 00ED
289F: 53B5
28A0: 2567
28A1: 742C
28A2: 47E9
28A3: 1698
28A4: 682A
28A5: 3B62
28A6: 0A82
28A7: 5DD1
28A8: 2F7C
28A9: 7EC0
28AA: 51C3
28AB: 2302
28AC: 72B1
28AD: 45C9
28AE: 1778
28AF: 66F1
28B0: 3831
28B1: 0B54
28B2: 5AE3
28B3: 2C09
28B4: 7FC0
28B5: 4EDA
28B6: 2055
28B7: 73F6
28B8: 4560
28B9: 14E0
28BA: 6622
28BB: 39B8
28BC: 0B2D
28BD: 5AB3
28BE: 2C23
28BF: 7F72
28C0: 5116
28C1: 20B0
28C2: 7233
28C3: 45BC
28C4: 1731
28C5: 66BE
28C6: 3815
28C7: 0BC5
28C8: 5D7D
28C9: 2CF1
28CA: 7E10
28CB: 51C5
28CC: 23A5
28CD: 750E
28CE: 44B0
28CF: 1657
28D0: 6831
28D1: 3B90
28D2: 0D7E
28D3: 5C9D
28D4: 2EB7
28D5: 0002 5390           PUSH 5390
28D7: 25B2
28D8: 7771
28D9: 46C9
28DA: 189C
28DB: 6A20
28DC: 3C34
28DD: 0FEF
28DE: 61BF
28DF: 3361
28E0: 0531
28E1: 54F6
28E2: 26A4
28E3: 7878
28E4: 4A20
28E5: 1DA1
28E6: 6FD0
28E7: 4151
28E8: 137C
28E9: 652C
28EA: 34C3
28EB: 06CD
28EC: 58B6
28ED: 2A52
28EE: 7C7F
28EF: 4E18
28F0: 2074
28F1: 73DD
28F2: 45F1
28F3: 178F
28F4: 69A0
28F5: 3B41
28F6: 0D49
28F7: 5F25
28F8: 3167
28F9: 030D
28FA: 551F
28FB: 273A
28FC: 7937
28FD: 4B7D
28FE: 1D23
28FF: 6F3C
2900: 4133
2901: 133B
2902: 6523
2903: 377D
2904: 092B
2905: 5B2B
2906: 2D50
2907: 7F01
2908: 5171
2909: 2366
290A: 7551
290B: 4754
290C: 19EA
290D: 6BDD
290E: 3DB0
290F: 0FE1
2910: 603C
2911: 3210
2912: 0430
2913: 564A
2914: 28A5
2915: 7A81
2916: 4CDC
2917: 2136
2918: 7334
2919: 4544
291A: 1782
291B: 69E8
291C: 3A64
291D: 0C7E
291E: 5EBF
291F: 30E3
2920: 0531
2921: 5767
2922: 29B5
2923: 7BF9
2924: 4C64
2925: 1E64
2926: 709E
2927: 4285
2928: 1771
2929: 69A9
292A: 3BD1
292B: 0C0F
292C: 5EAB
292D: 30CF
292E: 0571
292F: 5781
2930: 2831
2931: 7A15
2932: 4CFD
2933: 2108
2934: 73B6
2935: 45CC
2936: 165C
2937: 68F6
2938: 3D34
2939: 0F84
293A: 601E
293B: 32A9
293C: 0764
293D: 59B9
293E: 2A35
293F: 7CB6
2940: 513B
2941: 23A7
2942: 7431
2943: 46A9
2944: 1B21
2945: 6DA9
2946: 3E50
2947: 1092
2948: 657D
2949: 37F1
294A: 0858
294B: 5A8D
294C: 2FB4
294D: 000F 52F5 2756      RMEM 52F5 2756
2950: 783D
2951: 4A9A
2952: 1F65
2953: 71CE
2954: 42E4
2955: 1700
2956: 69D5
2957: 3AB1
2958: 0F75
2959: 61C9
295A: 3283
295B: 072D
295C: 5825
295D: 2AF3
295E: 7FB4
295F: 5035
2960: 2527
2961: 77E1
2962: 48BF
2963: 1D73
2964: 6E21
2965: 40FE
2966: 15DE
2967: 6620
2968: 3B67
2969: 0C2A
296A: 5EC5
296B: 3399
296C: 04AC
296D: 5938
296E: 2A42
296F: 7F00
2970: 503D
2971: 22DB
2972: 77E3
2973: 4877
2974: 1D9D
2975: 6E42
2976: 4345
2977: 1425
2978: 6967
2979: 3A11
297A: 0F11
297B: 6023
297C: 3520
297D: 067D
297E: 5B39
297F: 2C3B
2980: 0174
2981: 5222
2982: 2738
2983: 783C
2984: 4D30
2985: 1E6D
2986: 7303
2987: 4400
2988: 1971
2989: 6A68
298A: 3F43
298B: 100D
298C: 65B0
298D: 3692
298E: 0BB0
298F: 5CDD
2990: 3035
2991: 0503
2992: 5675
2993: 2B1D
2994: 7CAB
2995: 5183
2996: 22D3
2997: 7620
2998: 4B34
2999: 1C47
299A: 7195
299B: 42E8
299C: 162A
299D: 6B3D
299E: 3CB1
299F: 11B5
29A0: 6530
29A1: 367C
29A2: 0BBE
29A3: 5CF4
29A4: 302A
29A5: 056A
29A6: 56D0
29A7: 2BCD
29A8: 7F75
29A9: 50A9
29AA: 25DC
29AB: 7956
29AC: 4AE4
29AD: 1FDF
29AE: 7362
29AF: 449A
29B0: 183F
29B1: 6D50
29B2: 3EFE
29B3: 125D
29B4: 67B0
29B5: 38CC
29B6: 0C52
29B7: 61E9
29B8: 3571
29B9: 0696
29BA: 5A50
29BB: 2FAC
29BC: 032A
29BD: 54B9
29BE: 2870
29BF: 7DA5
29C0: 513B
29C1: 22A1
29C2: 7624
29C3: 4BB8
29C4: 1F36
29C5: 70B4
29C6: 4450
29C7: 1984
29C8: 6D66
29C9: 3EE0
29CA: 1210
29CB: 67DE
29CC: 3BA7
29CD: 0F1C
29CE: 60E4
29CF: 3441
29D0: 0831
29D1: 5D87
29D2: 3175
29D3: 02D9
29D4: 56E4
29D5: 2A08
29D6: 7FC6
29D7: 53A0
29D8: 2766
29D9: 78DC
29DA: 4C87
29DB: 2065
29DC: 7421
29DD: 49EF
29DE: 1DB5
29DF: 713B
29E0: 4574
29E1: 16B5
29E2: 6A91
29E3: 3E3D
29E4: 1237
29E5: 67F9
29E6: 3B91
29E7: 0F4C
29E8: 6366
29E9: 3726
29EA: 08D1
29EB: 5C9E
29EC: 30A1
29ED: 041D
29EE: 5878
29EF: 2C10
29F0: 0026
29F1: 55D0
29F2: 29B0
29F3: 7D91
29F4: 51A1
29F5: 254C
29F6: 7954
29F7: 4D76
29F8: 2134
29F9: 7501
29FA: 491F
29FB: 1D3A
29FC: 712A
29FD: 4573
29FE: 1954
29FF: 6D31
2A00: 413B
2A01: 1522
2A02: 693E
2A03: 3D59
2A04: 1133
2A05: 6528
2A06: 3903
2A07: 0D11
2A08: 6111
2A09: 3557
2A0A: 0945
2A0B: 5D44
2A0C: 31AA
2A0D: 058E
2A0E: 59EA
2A0F: 2DE1
2A10: 003C
2A11: 541C
2A12: 2863
2A13: 7C1D
2A14: 50B7
2A15: 2488
2A16: 78D5
2A17: 4F28
2A18: 2367
2A19: 7705
2A1A: 4B84
2A1B: 1FE2
2A1C: 7264
2A1D: 467F
2A1E: 1AB5
2A1F: 6EB5
2A20: 4535
2A21: 1935
2A22: 6DBB
2A23: 41F4
2A24: 1430
2A25: 686E
2A26: 3C98
2A27: 10C0
2A28: 677A
2A29: 3BFE
2A2A: 0F90
2A2B: 6219
2A2C: 36AC
2A2D: 0AD8
2A2E: 6162
2A2F: 3590
2A30: 0874
2A31: 5C54
2A32: 30E2
2A33: 0718
2A34: 5BE4
2A35: 2FCF
2A36: 0242
2A37: 56EC
2A38: 2D77
2A39: 018E
2A3A: 5450
2A3B: 28BE
2A3C: 7F30
2A3D: 53B2
2A3E: 2626
2A3F: 7AB0
2A40: 5127
2A41: 25F5
2A42: 7831
2A43: 4CB3
2A44: 2320
2A45: 77ED
2A46: 4A03
2A47: 1E8D
2A48: 7571
2A49: 49E9
2A4A: 1C46
2A4B: 70C8
2A4C: 47B7
2A4D: 1A5D
2A4E: 6EF1
2A4F: 4559
2A50: 183B
2A51: 6C9B
2A52: 4377
2A53: 179D
2A54: 6AB0
2A55: 4105
2A56: 15D5
2A57: 68E5
2A58: 3F63
2A59: 13C4
2A5A: 669C
2A5B: 3D61
2A5C: 106A
2A5D: 64BD
2A5E: 3BF0
2A5F: 0E50
2A60: 6522
2A61: 39F0
2A62: 0CA2
2A63: 6364
2A64: 3630
2A65: 0AE5
2A66: 6199
2A67: 344B
2A68: 0B73
2A69: 5E65
2A6A: 32D8
2A6B: 0988
2A6C: 5CB6
2A6D: 3358
2A6E: 0630
2A6F: 5D1D
2A70: 3035
2A71: 04C6
2A72: 5BB0
2A73: 2E9B
2A74: 05A5
2A75: 5841
2A76: 2F5C
2A77: 0260
2A78: 597A
2A79: 2C45
2A7A: 0319
2A7B: 5623
2A7C: 2D30
2A7D: 0032
2A7E: 5770
2A7F: 2A31
2A80: 013D
2A81: 5426
2A82: 2B22
2A83: 7E38
2A84: 5534
2A85: 282C
2A86: 7F19
2A87: 5217
2A88: 293A
2A89: 7C07
2A8A: 5345
2A8B: 265D
2A8C: 7DC1
2A8D: 50AF
2A8E: 27E5
2A8F: 7ADC
2A90: 503A
2A91: 2706
2A92: 7AA3
2A93: 5164
2A94: 24AB
2A95: 7B98
2A96: 4E90
2A97: 2423
2A98: 7B7D
2A99: 4E4B
2A9A: 2594
2A9B: 78AD
2A9C: 4E3D
2A9D: 2572
2A9E: 78A5
2A9F: 4FE7
2AA0: 2527
2AA1: 7870
2AA2: 4FBC
2AA3: 22FB
2AA4: 7864
2AA5: 4F64
2AA6: 229E
2AA7: 7985
2AA8: 4F63
2AA9: 22AD
2AAA: 79D1
2AAB: 4F19
2AAC: 22E4
2AAD: 79CA
2AAE: 4F71
2AAF: 2286
2AB0: 7874
2AB1: 4F5A
2AB2: 22FE
2AB3: 781E
2AB4: 4FA1
2AB5: 228D
2AB6: 7844
2AB7: 4FED
2AB8: 2571
2AB9: 78C5
2ABA: 4E1C
2ABB: 25A4
2ABC: 7B32
2ABD: 4EB4
2ABE: 243E
2ABF: 7BB2
2AC0: 5174
2AC1: 24A4
2AC2: 7A25
2AC3: 51BC
2AC4: 2736
2AC5: 7AB9
2AC6: 5015
2AC7: 2797
2AC8: 7D67
2AC9: 50A5
2ACA: 2656
2ACB: 7DC2
2ACC: 53B6
2ACD: 295D
2ACE: 7CE4
2ACF: 525D
2AD0: 2831
2AD1: 7FD5
2AD2: 5573
2AD3: 28D2
2AD4: 7EA9
2AD5: 541D
2AD6: 2BDC
2AD7: 01A0
2AD8: 576C
2AD9: 2A8B
2ADA: 00D0
2ADB: 562D
2ADC: 2C09
2ADD: 03FC
2ADE: 59BE
2ADF: 2F6C
2AE0: 0574
2AE1: 58E6
2AE2: 2EBD
2AE3: 047C
2AE4: 5A28
2AE5: 31E1
2AE6: 0795
2AE7: 5D57
2AE8: 3334
2AE9: 0937
2AEA: 5CDF
2AEB: 3282
2AEC: 08A9
2AED: 5E4E
2AEE: 3430
2AEF: 0A02
2AF0: 603C
2AF1: 37DC
2AF2: 0DF3
2AF3: 6395
2AF4: 39E4
2AF5: 0F42
2AF6: 655E
2AF7: 3B66
2AF8: 1171
2AF9: 6745
2AFA: 3D18
2AFB: 132C
2AFC: 6920
2AFD: 3F7D
2AFE: 1527
2AFF: 6B34
2B00: 4138
2B01: 1739
2B02: 6D23
2B03: 437D
2B04: 1930
2B05: 6F22
2B06: 4550
2B07: 1B01
2B08: 717D
2B09: 4773
2B0A: 1D59
2B0B: 7349
2B0C: 49A1
2B0D: 1FDD
2B0E: 75E4
2B0F: 4BDD
2B10: 2031
2B11: 7618
2B12: 4C30
2B13: 2253
2B14: 78AB
2B15: 4E9A
2B16: 2490
2B17: 7D29
2B18: 5375
2B19: 295C
2B1A: 7FD0
2B1B: 55E4
2B1C: 2A2A
2B1D: 003D
2B1E: 56B4
2B1F: 2CFC
2B20: 0527
2B21: 5B74
2B22: 31A2
2B23: 07EF
2B24: 5C25
2B25: 3274
2B26: 08DE
2B27: 5E85
2B28: 3734
2B29: 0D91
2B2A: 63D8
2B2B: 3808
2B2C: 0EB6
2B2D: 64D8
2B2E: 3D30
2B2F: 139C
2B30: 6827
2B31: 3E15
2B32: 14F1
2B33: 6D5D
2B34: 43B7
2B35: 19D9
2B36: 6E51
2B37: 44EC
2B38: 1D66
2B39: 7386
2B3A: 4811
2B3B: 1EBE
2B3C: 7721
2B3D: 4DFD
2B3E: 2225
2B3F: 78A5
2B40: 5174
2B41: 27BD
2B42: 7C35
2B43: 52AF
2B44: 2B21
2B45: 01E3
2B46: 5672
2B47: 2C90
2B48: 0564
2B49: 5B81
2B4A: 3055
2B4B: 06CC
2B4C: 5FB7
2B4D: 3409
2B4E: 0A95
2B4F: 6367
2B50: 3821
2B51: 0E9C
2B52: 677E
2B53: 3DCE
2B54: 126D
2B55: 6B39
2B56: 41D8
2B57: 16AC
2B58: 6F67
2B59: 4585
2B5A: 1A87
2B5B: 736C
2B5C: 4837
2B5D: 1EBD
2B5E: 77BC
2B5F: 4C7A
2B60: 253A
2B61: 7BF2
2B62: 50F0
2B63: 297C
2B64: 7E23
2B65: 54E2
2B66: 2DD0
2B67: 0244
2B68: 5B34
2B69: 3029
2B6A: 06D1
2B6B: 5F9B
2B6C: 34AD
2B6D: 0D4E
2B6E: 6278
2B6F: 3B55
2B70: 1020
2B71: 66DD
2B72: 3FE2
2B73: 1492
2B74: 6DAA
2B75: 4248
2B76: 1B10
2B77: 7077
2B78: 497B
2B79: 1E0A
2B7A: 771D
2B7B: 4C63
2B7C: 2564
2B7D: 7A7D
2B7E: 5314
2B7F: 2827
2B80: 013D
2B81: 5630
2B82: 2F34
2B83: 0470
2B84: 5D31
2B85: 323D
2B86: 0B50
2B87: 6003
2B88: 397B
2B89: 0E70
2B8A: 675E
2B8B: 3C59
2B8C: 15A5
2B8D: 6A94
2B8E: 43FE
2B8F: 18C6
2B90: 7074
2B91: 4914
2B92: 1E7E
2B93: 7759
2B94: 4CE4
2B95: 258E
2B96: 7AC2
2B97: 5230
2B98: 2B79
2B99: 0047
2B9A: 599C
2B9B: 2EE4
2B9C: 062A
2B9D: 5F7A
2B9E: 34F0
2B9F: 0DE6
2BA0: 6520
2BA1: 3A74
2BA2: 13A4
2BA3: 68E8
2BA4: 4021
2BA5: 197E
2BA6: 6ED0
2BA7: 47C9
2BA8: 1F7D
2BA9: 74AB
2BAA: 4DD5
2BAB: 254D
2BAC: 7AB0
2BAD: 53D5
2BAE: 2B75
2BAF: 00D5
2BB0: 5823
2BB1: 3154
2BB2: 06FC
2BB3: 5E11
2BB4: 37B7
2BB5: 0C81
2BB6: 6410
2BB7: 3DE4
2BB8: 157A
2BB9: 6A81
2BBA: 4250
2BBB: 1BB9
2BBC: 732C
2BBD: 48B8
2BBE: 2070
2BBF: 79B6
2BC0: 5135
2BC1: 26A7
2BC2: 7E26
2BC3: 57B8
2BC4: 2F20
2BC5: 04ED
2BC6: 5C03
2BC7: 3591
2BC8: 0D7B
2BC9: 62EB
2BCA: 3A55
2BCB: 138D
2BCC: 6BB0
2BCD: 4315
2BCE: 18E2
2BCF: 705A
2BD0: 483A
2BD1: 2190
2BD2: 7930
2BD3: 4ED4
2BD4: 26AA
2BD5: 7E4D
2BD6: 57C4
2BD7: 2FAD
2BD8: 0771
2BD9: 5C85
2BDA: 3493
2BDB: 0C68
2BDC: 642A
2BDD: 3DE9
2BDE: 15B5
2BDF: 6D67
2BE0: 4574
2BE1: 1AFA
2BE2: 72B6
2BE3: 4A3D
2BE4: 2230
2BE5: 7BE5
2BE6: 5395
2BE7: 2B05
2BE8: 0366
2BE9: 5B2A
2BEA: 30DF
2BEB: 0880
2BEC: 60E4
2BED: 3854
2BEE: 1063
2BEF: 6855
2BF0: 4032
2BF1: 19D4
2BF2: 71FC
2BF3: 4991
2BF4: 21AD
2BF5: 7943
2BF6: 5157
2BF7: 2925
2BF8: 0175
2BF9: 5915
2BFA: 3111
2BFB: 093F
2BFC: 6130
2BFD: 3973
2BFE: 1154
2BFF: 6931
2C00: 413B
2C01: 1922
2C02: 713E
2C03: 4949
2C04: 2117
2C05: 7934
2C06: 511E
2C07: 2904
2C08: 0177
2C09: 596A
2C0A: 3142
2C0B: 090D
2C0C: 618C
2C0D: 3998
2C0E: 11F1
2C0F: 69D1
2C10: 4025
2C11: 1800
2C12: 7071
2C13: 484F
2C14: 20B0
2C15: 7888
2C16: 50C2
2C17: 2B36
2C18: 03EB
2C19: 5B7C
2C1A: 339F
2C1B: 0BF8
2C1C: 6264
2C1D: 3A6E
2C1E: 12A4
2C1F: 6AF4
2C20: 453A
2C21: 1D71
2C22: 75F0
2C23: 4DF4
2C24: 242A
2C25: 7C2D
2C26: 5484
2C27: 2CCD
2C28: 0771
2C29: 5FE5
2C2A: 37DC
2C2B: 0E02
2C2C: 66A6
2C2D: 3EDF
2C2E: 1969
2C2F: 71D5
2C30: 483B
2C31: 2053
2C32: 78B0
2C33: 530A
2C34: 2BAC
2C35: 03CC
2C36: 5A44
2C37: 32A5
2C38: 0D75
2C39: 6595
2C3A: 3C00
2C3B: 14A8
2C3C: 6F25
2C3D: 47AF
2C3E: 1E23
2C3F: 76F5
2C40: 5120
2C41: 29BA
2C42: 0070
2C43: 58BF
2C44: 3321
2C45: 0BED
2C46: 6211
2C47: 3AC5
2C48: 1566
2C49: 6DE0
2C4A: 4451
2C4B: 1CC1
2C4C: 77A8
2C4D: 4E04
2C4E: 26B0
2C4F: 0153
2C50: 5821
2C51: 309B
2C52: 0B30
2C53: 63CD
2C54: 3AA8
2C55: 150C
2C56: 6DD3
2C57: 44A0
2C58: 1F34
2C59: 77D1
2C5A: 4E9F
2C5B: 292D
2C5C: 0033
2C5D: 58F2
2C5E: 33A2
2C5F: 0A7E
2C60: 6575
2C61: 3DB5
2C62: 14F0
2C63: 6F4E
2C64: 4625
2C65: 1EE9
2C66: 799C
2C67: 505C
2C68: 2B38
2C69: 0265
2C6A: 5AC4
2C6B: 3585
2C6C: 0CA1
2C6D: 674F
2C6E: 3E75
2C6F: 1955
2C70: 7030
2C71: 48DA
2C72: 23F5
2C73: 7A8E
2C74: 55AA
2C75: 2C0A
2C76: 0744
2C77: 5E25
2C78: 3967
2C79: 1000
2C7A: 6B15
2C7B: 4220
2C7C: 1D64
2C7D: 7429
2C7E: 4F3F
2C7F: 2675
2C80: 0136
2C81: 5830
2C82: 3370
2C83: 0A3C
2C84: 652A
2C85: 3C34
2C86: 171F
2C87: 6E0B
2C88: 4971
2C89: 2025
2C8A: 7B51
2C8B: 525F
2C8C: 2DAB
2C8D: 0488
2C8E: 5FFE
2C8F: 36D1
2C90: 1074
2C91: 6B14
2C92: 4264
2C93: 1D1D
2C94: 74B0
2C95: 4F85
2C96: 26D5
2C97: 0065
2C98: 5B79
2C99: 324A
2C9A: 0D9D
2C9B: 64E8
2C9C: 3E2A
2C9D: 1969
2C9E: 70FC
2C9F: 4BB5
2CA0: 2527
2CA1: 7C7A
2CA2: 57F0
2CA3: 2EE4
2CA4: 082B
2CA5: 6378
2CA6: 3AD0
2CA7: 15C8
2CA8: 6F75
2CA9: 46AE
2CAA: 21D5
2CAB: 7B4D
2CAC: 52A5
2CAD: 2D9D
2CAE: 077E
2CAF: 5E9A
2CB0: 3820
2CB1: 1350
2CB2: 6AB0
2CB3: 4409
2CB4: 1FAB
2CB5: 768D
2CB6: 5053
2CB7: 2BE4
2CB8: 0578
2CB9: 5C89
2CBA: 3650
2CBB: 11B9
2CBC: 6B2C
2CBD: 42B8
2CBE: 1C3D
2CBF: 77F5
2CC0: 5138
2CC1: 28B4
2CC2: 0224
2CC3: 5DB8
2CC4: 3736
2CC5: 0EE3
2CC6: 6850
2CC7: 43C5
2CC8: 1D40
2CC9: 74ED
2CCA: 4E55
2CCB: 298D
2CCC: 03A6
2CCD: 5D12
2CCE: 34FF
2CCF: 0E5E
2CD0: 6827
2CD1: 439D
2CD2: 1D75
2CD3: 74D1
2CD4: 4EA2
2CD5: 284D
2CD6: 03D8
2CD7: 5DA0
2CD8: 3766
2CD9: 0EC0
2CDA: 68D0
2CDB: 4261
2CDC: 1C2B
2CDD: 77F2
2CDE: 51BB
2CDF: 2B66
2CE0: 0574
2CE1: 5CF9
2CE2: 36B9
2CE3: 1076
2CE4: 6A21
2CE5: 45AD
2CE6: 1F99
2CE7: 7951
2CE8: 5334
2CE9: 2D28
2CEA: 04D9
2CEB: 5E8A
2CEC: 38AC
2CED: 1249
2CEE: 6C30
2CEF: 461D
2CF0: 2035
2CF1: 7BC3
2CF2: 55F5
2CF3: 2FDD
2CF4: 09B7
2CF5: 6342
2CF6: 3D5D
2CF7: 1760
2CF8: 7160
2CF9: 4B0D
2CFA: 2519
2CFB: 7F23
2CFC: 5923
2CFD: 337D
2CFE: 0D39
2CFF: 673B
2D00: 4120
2D01: 1B30
2D02: 7522
2D03: 4F38
2D04: 2937
2D05: 0339
2D06: 5D19
2D07: 370B
2D08: 1173
2D09: 6B25
2D0A: 4559
2D0B: 1F43
2D0C: 79E4
2D0D: 5394
2D0E: 2DE4
2D0F: 0799
2D10: 6074
2D11: 3A01
2D12: 1478
2D13: 6E52
2D14: 48B1
2D15: 228A
2D16: 7CD8
2D17: 596B
2D18: 3313
2D19: 0D4A
2D1A: 6785
2D1B: 41F9
2D1C: 1A37
2D1D: 7474
2D1E: 4EB4
2D1F: 28F0
2D20: 0540
2D21: 5F46
2D22: 39A9
2D23: 13F3
2D24: 6C25
2D25: 466E
2D26: 209F
2D27: 7AD7
2D28: 5734
2D29: 318D
2D2A: 0BD5
2D2B: 640C
2D2C: 3EA0
2D2D: 18CC
2D2E: 7565
2D2F: 4F94
2D30: 2826
2D31: 0241
2D32: 5CF5
2D33: 390F
2D34: 13B7
2D35: 6D3C
2D36: 4679
2D37: 20F1
2D38: 7D33
2D39: 5796
2D3A: 3050
2D3B: 0AAC
2D3C: 6764
2D3D: 41AA
2D3E: 1A31
2D3F: 74A7
2D40: 5139
2D41: 2BF9
2D42: 0470
2D43: 5EAE
2D44: 3B31
2D45: 15A3
2D46: 6E1E
2D47: 489C
2D48: 2534
2D49: 7FE1
2D4A: 5851
2D4B: 32D4
2D4C: 0FE5
2D4D: 685D
2D4E: 42B0
2D4F: 1F62
2D50: 783C
2D51: 529C
2D52: 2F7C
2D53: 09D8
2D54: 62E4
2D55: 3F19
2D56: 19D8
2D57: 72A0
2D58: 4F34
2D59: 29C7
2D5A: 0282
2D5B: 5F68
2D5C: 3821
2D5D: 12E7
2D5E: 6FB5
2D5F: 4835
2D60: 2532
2D61: 7FE7
2D62: 58BF
2D63: 3570
2D64: 0E64
2D65: 68C1
2D66: 4591
2D67: 1E4E
2D68: 7B71
2D69: 5465
2D6A: 2EF5
2D6B: 0B9F
2D6C: 64AD
2D6D: 4158
2D6E: 1A30
2D6F: 771C
2D70: 5027
2D71: 2A95
2D72: 07F3
2D73: 6098
2D74: 3DB6
2D75: 1659
2D76: 7351
2D77: 4C6C
2D78: 297A
2D79: 0209
2D7A: 5F09
2D7B: 386D
2D7C: 1536
2D7D: 6E38
2D7E: 4B36
2D7F: 2427
2D80: 0131
2D81: 5A26
2D82: 3738
2D83: 1034
2D84: 6D2A
2D85: 462A
2D86: 235C
2D87: 7C45
2D88: 596D
2D89: 326A
2D8A: 0F45
2D8B: 680D
2D8C: 45A0
2D8D: 1E92
2D8E: 7BFE
2D8F: 5492
2D90: 3020
2D91: 0D55
2D92: 6663
2D93: 4358
2D94: 1CA1
2D95: 79CD
2D96: 52D1
2D97: 2E2B
2D98: 0B6D
2D99: 6451
2D9A: 4198
2D9B: 1AE4
2D9C: 762A
2D9D: 537A
2D9E: 2CF0
2D9F: 09FD
2DA0: 6531
2DA1: 3E67
2DA2: 1BB5
2DA3: 74BD
2DA4: 5030
2DA5: 2D65
2DA6: 0691
2DA7: 63D1
2DA8: 3F34
2DA9: 18B2
2DAA: 75D9
2DAB: 5101
2DAC: 2AA8
2DAD: 079D
2DAE: 6378
2DAF: 3C90
2DB0: 1838
2DB1: 7545
2DB2: 4EB0
2DB3: 2A04
2DB4: 07AB
2DB5: 60D8
2DB6: 3C10
2DB7: 19F2
2DB8: 757D
2DB9: 4E91
2DBA: 2A18
2DBB: 07ED
2DBC: 633D
2DBD: 3CB2
2DBE: 1825
2DBF: 75A7
2DC0: 5174
2DC1: 2AA4
2DC2: 0625
2DC3: 63B8
2DC4: 3F37
2DC5: 18B9
2DC6: 745E
2DC7: 51E3
2DC8: 2D7D
2DC9: 06EB
2DCA: 6243
2DCB: 3FC4
2DCC: 1BA0
2DCD: 7718
2DCE: 5095
2DCF: 2C77
2DD0: 0831
2DD1: 6594
2DD2: 4173
2DD3: 1AD5
2DD4: 766E
2DD5: 5239
2DD6: 2FD8
2DD7: 0BAC
2DD8: 6767
2DD9: 4085
2DDA: 1C99
2DDB: 787E
2DDC: 5464
2DDD: 31FC
2DDE: 0DF0
2DDF: 6966
2DE0: 4535
2DE1: 1EFB
2DE2: 7AB4
2DE3: 5664
2DE4: 3264
2DE5: 0FEF
2DE6: 6B95
2DE7: 4744
2DE8: 2377
2DE9: 7F2D
2DEA: 5890
2DEB: 3484
2DEC: 10AA
2DED: 6C1D
2DEE: 4871
2DEF: 2455
2DF0: 0037
2DF1: 5DDA
2DF2: 39E6
2DF3: 1598
2DF4: 71E4
2DF5: 4D42
2DF6: 295E
2DF7: 0525
2DF8: 6167
2DF9: 3D0A
2DFA: 191D
2DFB: 7528
2DFC: 5164
2DFD: 2D29
2DFE: 0922
2DFF: 653A
2E00: 4124
2E01: 1D3C
2E02: 7933
2E03: 553C
2E04: 3128
2E05: 0D6D
2E06: 6919
2E07: 4516
2E08: 2178
2E09: 7D64
2E0A: 595E
2E0B: 3549
2E0C: 11EA
2E0D: 6DDD
2E0E: 49B0
2E0F: 25FC
2E10: 0020
2E11: 5C55
2E12: 3879
2E13: 144E
2E14: 70E4
2E15: 4C9F
2E16: 28D1
2E17: 072C
2E18: 637A
2E19: 3F4C
2E1A: 1B9E
2E1B: 77EA
2E1C: 526A
2E1D: 2E3D
2E1E: 0AF0
2E1F: 66C1
2E20: 453C
2E21: 2170
2E22: 7DF0
2E23: 59F2
2E24: 3427
2E25: 1068
2E26: 6C91
2E27: 48CB
2E28: 2734
2E29: 03AC
2E2A: 5FC3
2E2B: 3A4D
2E2C: 16B0
2E2D: 72D2
2E2E: 5130
2E2F: 2D8C
2E30: 083B
2E31: 6440
2E32: 40E2
2E33: 1F5D
2E34: 7BB7
2E35: 57C2
2E36: 3245
2E37: 0EF1
2E38: 6D7C
2E39: 49C9
2E3A: 2450
2E3B: 00AC
2E3C: 5F2A
2E3D: 3BB9
2E3E: 1670
2E3F: 72BD
2E40: 5131
2E41: 2DB4
2E42: 0826
2E43: 64A4
2E44: 4364
2E45: 1FAB
2E46: 7A1F
2E47: 5689
2E48: 357D
2E49: 11E4
2E4A: 6C57
2E4B: 48C8
2E4C: 27E4
2E4D: 0214
2E4E: 5EE3
2E4F: 3D15
2E50: 1820
2E51: 749A
2E52: 5330
2E53: 2FC4
2E54: 0AAB
2E55: 6918
2E56: 45C2
2E57: 20E5
2E58: 7F7A
2E59: 5BCA
2E5A: 3682
2E5B: 1579
2E5C: 702C
2E5D: 4CA6
2E5E: 2BF0
2E5F: 0661
2E60: 653C
2E61: 41F0
2E62: 1CF0
2E63: 7B7F
2E64: 5621
2E65: 32EC
2E66: 1193
2E67: 6C4D
2E68: 4B34
2E69: 2620
2E6A: 02C8
2E6B: 6199
2E6C: 3CA1
2E6D: 1B53
2E6E: 7674
2E6F: 5506
2E70: 3074
2E71: 0CC2
2E72: 6BF5
2E73: 468E
2E74: 25B0
2E75: 000D 5F51 3A6B 1970 OR 5F51 3A6B 1970
2E79: 7445
2E7A: 5315
2E7B: 2E2C
2E7C: 0D37
2E7D: 6829
2E7E: 477E
2E7F: 2251
2E80: 0123
2E81: 5C30
2E82: 3B23
2E83: 1629
2E84: 7540
2E85: 5028
2E86: 2F11
2E87: 0A16
2E88: 6960
2E89: 4400
2E8A: 235E
2E8B: 7E42
2E8C: 5DB6
2E8D: 3889
2E8E: 17F8
2E8F: 72B0
2E90: 5016
2E91: 2F10
2E92: 0A71
2E93: 695E
2E94: 44AC
2E95: 22EB
2E96: 7EE4
2E97: 5C2D
2E98: 3B7D
2E99: 1656
2E9A: 75D0
2E9B: 50E4
2E9C: 2E37
2E9D: 0D3D
2E9E: 68B1
2E9F: 47B5
2EA0: 2527
2EA1: 0074
2EA2: 5FBE
2EA3: 3AF9
2EA4: 183D
2EA5: 772D
2EA6: 5292
2EA7: 31C0
2EA8: 0F75
2EA9: 6AA6
2EAA: 49D8
2EAB: 274D
2EAC: 02AD
2EAD: 61D3
2EAE: 3F30
2EAF: 1A94
2EB0: 7874
2EB1: 5756
2EB2: 32FF
2EB3: 100B
2EB4: 6FA1
2EB5: 4A8D
2EB6: 285F
2EB7: 07EB
2EB8: 6534
2EB9: 4096
2EBA: 1E1F
2EBB: 7DA0
2EBC: 5B21
2EBD: 36FD
2EBE: 1424
2EBF: 73A7
2EC0: 513B
2EC1: 2CA5
2EC2: 0A39
2EC3: 69BE
2EC4: 4725
2EC5: 22A1
2EC6: 0050
2EC7: 5F8C
2EC8: 3D67
2EC9: 18E9
2ECA: 7651
2ECB: 55C3
2ECC: 33A0
2ECD: 1153
2ECE: 6CB0
2ECF: 4A15
2ED0: 281D
2ED1: 0781
2ED2: 6530
2ED3: 40D4
2ED4: 1EB7
2ED5: 7C4D
2ED6: 5BC2
2ED7: 39A4
2ED8: 177D
2ED9: 72CB
2EDA: 5099
2EDB: 2E63
2EDC: 0C23
2EDD: 6BB3
2EDE: 49F0
2EDF: 2735
2EE0: 0500
2EE1: 60FA
2EE2: 3EF0
2EE3: 1C64
2EE4: 7A2B
2EE5: 59F8
2EE6: 3782
2EE7: 1505
2EE8: 7363
2EE9: 5120
2EEA: 2CC3
2EEB: 0A99
2EEC: 68E4
2EED: 4654
2EEE: 2463
2EEF: 0255
2EF0: 6035
2EF1: 3FDB
2EF2: 1DB0
2EF3: 7B98
2EF4: 59A9
2EF5: 374F
2EF6: 1551
2EF7: 736B
2EF8: 517F
2EF9: 2F08
2EFA: 0D15
2EFB: 6B23
2EFC: 4930
2EFD: 277D
2EFE: 053F
2EFF: 6333
2F00: 4174
2F01: 1F21
2F02: 7D38
2F03: 5B38
2F04: 3964
2F05: 172E
2F06: 751F
2F07: 5313
2F08: 3171
2F09: 0F25
2F0A: 6D47
2F0B: 4B45
2F0C: 29AD
2F0D: 079E
2F0E: 65F8
2F0F: 4395
2F10: 2038
2F11: 7E1A
2F12: 5C7F
2F13: 3A56
2F14: 18B7
2F15: 76CD
2F16: 54C4
2F17: 352A
2F18: 137B
2F19: 7105
2F1A: 4F83
2F1B: 2DF9
2F1C: 0A21
2F1D: 6878
2F1E: 46A0
2F1F: 24B5
2F20: 0520
2F21: 637A
2F22: 41F0
2F23: 1FFE
2F24: 7C28
2F25: 5A64
2F26: 389D
2F27: 16C7
2F28: 773A
2F29: 55E5
2F2A: 3390
2F2B: 1039
2F2C: 6EAC
2F2D: 4CD8
2F2E: 2D30
2F2F: 0B97
2F30: 6831
2F31: 4654
2F32: 24F3
2F33: 0515
2F34: 63E4
2F35: 41C8
2F36: 1E48
2F37: 7CF1
2F38: 5D71
2F39: 3B8B
2F3A: 1814
2F3B: 76BE
2F3C: 5764
2F3D: 35A9
2F3E: 123F
2F3F: 70F5
2F40: 5120
2F41: 2FBD
2F42: 0C35
2F43: 6AFD
2F44: 4B21
2F45: 29AC
2F46: 0603
2F47: 6491
2F48: 4538
2F49: 23A5
2F4A: 0051
2F4B: 5EC3
2F4C: 3FA0
2F4D: 1C5D
2F4E: 7AE4
2F4F: 5B5D
2F50: 3831
2F51: 1687
2F52: 7775
2F53: 559D
2F54: 32AD
2F55: 131E
2F56: 7190
2F57: 4EA1
2F58: 2F71
2F59: 0DCB
2F5A: 6A83
2F5B: 4B68
2F5C: 2864
2F5D: 06FB
2F5E: 67BF
2F5F: 4479
2F60: 253D
2F61: 03F4
2F62: 60B7
2F63: 4178
2F64: 1E64
2F65: 7CF9
2F66: 5D9F
2F67: 3A05
2F68: 1B60
2F69: 782D
2F6A: 56D5
2F6B: 37CD
2F6C: 14AA
2F6D: 7552
2F6E: 5262
2F6F: 3301
2F70: 103C
2F71: 6E9B
2F72: 4FB0
2F73: 2CDD
2F74: 0D90
2F75: 6A45
2F76: 4B55
2F77: 2825
2F78: 097B
2F79: 6606
2F7A: 4715
2F7B: 242C
2F7C: 052A
2F7D: 627D
2F7E: 4324
2F7F: 203A
2F80: 0174
2F81: 5E21
2F82: 3F38
2F83: 1C38
2F84: 7D64
2F85: 5A3E
2F86: 3B1F
2F87: 1810
2F88: 7960
2F89: 566D
2F8A: 3710
2F8B: 145E
2F8C: 75A1
2F8D: 5298
2F8E: 33FD
2F8F: 10C6
2F90: 7074
2F91: 5100
2F92: 2E7E
2F93: 0F54
2F94: 6CAA
2F95: 4D9B
2F96: 2AD9
2F97: 0A31
2F98: 6B7D
2F99: 484B
2F9A: 2997
2F9B: 06A3
2F9C: 6640
2F9D: 4778
2F9E: 24B1
2F9F: 05E6
2FA0: 6520
2FA1: 4210
2FA2: 23BE
2FA3: 00F2
2FA4: 6036
2FA5: 4179
2FA6: 1E98
2FA7: 7FA0
2FA8: 5F56
2FA9: 3CA0
2FAA: 1DD1
2FAB: 7D0E
2FAC: 5AAC
2FAD: 3B4F
2FAE: 1B44
2FAF: 789D
2FB0: 583D
2FB1: 3946
2FB2: 16B0
2FB3: 7614
2FB4: 57B7
2FB5: 348D
2FB6: 1451
2FB7: 75A5
2FB8: 5567
2FB9: 3284
2FBA: 121E
2FBB: 73A9
2FBC: 533D
2FBD: 30FD
2FBE: 1032
2FBF: 71B0
2FC0: 5135
2FC1: 2EB6
2FC2: 0E38
2FC3: 6FFD
2FC4: 4F2D
2FC5: 2CA3
2FC6: 0C50
2FC7: 6D84
2FC8: 4D34
2FC9: 2AE6
2FCA: 0A5F
2FCB: 6BDB
2FCC: 4BA1
2FCD: 2B5D
2FCE: 08FF
2FCF: 685B
2FD0: 4874
2FD1: 2986
2FD2: 097F
2FD3: 66D0
2FD4: 46A1
2FD5: 264D
2FD6: 07C4
2FD7: 67B7
2FD8: 477B
2FD9: 24D5
2FDA: 0499
2FDB: 646E
2FDC: 4425
2FDD: 25F1
2FDE: 05F0
2FDF: 657C
2FE0: 4527
2FE1: 22F9
2FE2: 02B1
2FE3: 6273
2FE4: 4220
2FE5: 23A3
2FE6: 03D0
2FE7: 6305
2FE8: 435D
2FE9: 2331
2FEA: 0090
2FEB: 6084
2FEC: 40B7
2FED: 201D
2FEE: 0062
2FEF: 6014
2FF0: 403D
2FF1: 21DB
2FF2: 01F9
2FF3: 6193
2FF4: 41A3
2FF5: 2103
2FF6: 0110
2FF7: 6125
2FF8: 4140
2FF9: 210D
2FFA: 0115
2FFB: 616D
2FFC: 4137
2FFD: 2129
2FFE: 0135
2FFF: 6130
3000: 4124
3001: 2175
3002: 0133
3003: 6132
3004: 4132
3005: 2128
3006: 0150
3007: 6100
3008: 4179
3009: 2167
300A: 0151
300B: 6143
300C: 41AF
300D: 2190
300E: 01F5
300F: 61DB
3010: 4020
3011: 2055
3012: 0064
3013: 6052
3014: 40E4
3015: 2094
3016: 00DF
3017: 6330
3018: 4366
3019: 2305
301A: 0395
301B: 63EC
301C: 4237
301D: 2269
301E: 02F0
301F: 62F7
3020: 4538
3021: 257A
3022: 05B3
3023: 65F6
3024: 4437
3025: 242D
3026: 0489
3027: 64CA
3028: 4761
3029: 27B7
302A: 0790
302B: 661D
302C: 46A5
302D: 26C9
302E: 0978
302F: 69D9
3030: 4874
3031: 2854
3032: 08FE
3033: 6B19
3034: 4BE4
3035: 2BD9
3036: 0A58
3037: 6AE0
3038: 4D34
3039: 2D8A
303A: 0C13
303B: 6CA8
303C: 4F25
303D: 2FB3
303E: 0E70
303F: 6EA2
3040: 5135
3041: 31A1
3042: 1035
3043: 70AF
3044: 5337
3045: 33ED
3046: 1218
3047: 7280
3048: 5566
3049: 35E0
304A: 1410
304B: 74C1
304C: 57AB
304D: 3612
304E: 16FB
304F: 7915
3050: 5821
3051: 389B
3052: 1B63
3053: 7BDC
3054: 5AA2
3055: 3D08
3056: 1D9E
3057: 7CE5
3058: 5F34
3059: 3FF1
305A: 1E98
305B: 0168
305C: 6064
305D: 40FF
305E: 23B5
305F: 0274
3060: 6537
3061: 45FD
3062: 24F0
3063: 0778
3064: 663C
3065: 46F9
3066: 2995
3067: 084B
3068: 6B70
3069: 4A36
306A: 2A90
306B: 0D99
306C: 6CAB
306D: 4F1D
306E: 2E64
306F: 111D
3070: 7031
3071: 5095
3072: 33E7
3073: 1298
3074: 75B7
3075: 5459
3076: 371C
3077: 1625
3078: 7975
3079: 580B
307A: 3B14
307B: 1A6D
307C: 7D30
307D: 5C35
307E: 3F35
307F: 1E27
3080: 0131
3081: 6075
3082: 4339
3083: 222E
3084: 0564
3085: 6429
3086: 4715
3087: 260B
3088: 0967
3089: 6860
308A: 4B10
308B: 2A4B
308C: 0DAB
308D: 6C91
308E: 4FF9
308F: 2ED4
3090: 1033
3091: 7310
3092: 5230
3093: 3549
3094: 14AB
3095: 77CD
3096: 56C4
3097: 382D
3098: 1B71
3099: 7A05
309A: 5D9E
309B: 3CE2
309C: 1E36
309D: 0169
309E: 60B8
309F: 43BB
30A0: 2550
30A1: 0462
30A2: 67B5
30A3: 46EE
30A4: 2830
30A5: 0B08
30A6: 6A9E
30A7: 4DCA
30A8: 2F66
30A9: 0EB1
30AA: 71D8
30AB: 5362
30AC: 3290
30AD: 15CF
30AE: 777F
30AF: 5685
30B0: 383D
30B1: 1B56
30B2: 7AF1
30B3: 5C11
30B4: 3FE4
30B5: 1EE4
30B6: 0043
30B7: 63E9
30B8: 4575
30B9: 248B
30BA: 0614
30BB: 690B
30BC: 4B10
30BD: 2AB5
30BE: 0C35
30BF: 6FF5
30C0: 5138
30C1: 30B4
30C2: 1222
30C3: 75BA
30C4: 5721
30C5: 36ED
30C6: 1804
30C7: 7B97
30C8: 5D71
30C9: 3CE0
30CA: 1E43
30CB: 018D
30CC: 63AC
30CD: 4518
30CE: 24E2
30CF: 0650
30D0: 6874
30D1: 4B86
30D2: 2D75
30D3: 0CD8
30D4: 6EA9
30D5: 504D
30D6: 33C4
30D7: 15AA
30D8: 7734
30D9: 56C7
30DA: 3895
30DB: 1A2D
30DC: 7C34
30DD: 5FEF
30DE: 41BF
30DF: 2361
30E0: 0531
30E1: 64F6
30E2: 46A4
30E3: 2874
30E4: 0A2A
30E5: 6DEA
30E6: 4FD0
30E7: 315C
30E8: 137B
30E9: 7530
30EA: 5490
30EB: 368B
30EC: 18B6
30ED: 7A52
30EE: 5C7D
30EF: 3E55
30F0: 2020
30F1: 03DD
30F2: 65F5
30F3: 47DD
30F4: 29B6
30F5: 0B4C
30F6: 6D59
30F7: 4F6B
30F8: 313A
30F9: 1345
30FA: 7550
30FB: 570C
30FC: 3937
30FD: 1B7D
30FE: 7D29
30FF: 5F3A
3100: 4121
3101: 2375
3102: 0520
3103: 6728
3104: 4937
3105: 2B25
3106: 0D50
3107: 6F11
3108: 517C
3109: 3377
310A: 155F
310B: 7758
310C: 59A3
310D: 3B95
310E: 1DB0
310F: 7FC1
3110: 603C
3111: 4210
3112: 2430
3113: 0648
3114: 68AA
3115: 4A89
3116: 2CD5
3117: 1137
3118: 7373
3119: 5557
311A: 379F
311B: 19FA
311C: 7A30
311D: 5C75
311E: 3EFC
311F: 20B5
3120: 052D
3121: 677A
3122: 49A5
3123: 2BBD
3124: 0C27
3125: 6E6C
3126: 509E
3127: 3285
3128: 177C
3129: 79A0
312A: 5BD1
312B: 3C1F
312C: 1EE4
312D: 00DF
312E: 6579
312F: 4787
3130: 2830
3131: 0A46
3132: 6CB0
3133: 511E
3134: 33AC
3135: 15C4
3136: 7642
3137: 58F5
3138: 3D7D
3139: 1F8B
313A: 0017
313B: 62ED
313C: 472B
313D: 29AB
313E: 0A35
313F: 6CA7
3140: 513C
3141: 33B0
3142: 1431
3143: 76B9
3144: 5B6A
3145: 3DED
3146: 1E50
3147: 00B1
3148: 657C
3149: 47E0
314A: 2842
314B: 0AC8
314C: 6FE4
314D: 5014
314E: 32E3
314F: 1715
3150: 7835
3151: 5AD5
3152: 3F63
3153: 21C9
3154: 02A1
3155: 6708
3156: 49C0
3157: 2AE5
3158: 0F66
3159: 71CA
315A: 5293
315B: 3766
315C: 1864
315D: 7AFB
315E: 5FB1
315F: 4076
3160: 2531
3161: 07B5
3162: 68A4
3163: 4D72
3164: 2E64
3165: 10F4
3166: 759F
3167: 5650
3168: 3B66
3169: 1C65
316A: 7EC7
316B: 6388
316C: 44B7
316D: 2949
316E: 0A30
316F: 6F17
3170: 5038
3171: 32DA
3172: 17F3
3173: 7896
3174: 5DAD
3175: 3E43
3176: 2357
3177: 0425
3178: 696D
3179: 4A0A
317A: 2F05
317B: 103F
317C: 7564
317D: 562D
317E: 3B31
317F: 1C21
3180: 013C
3181: 627B
3182: 4755
3183: 2833
3184: 0D2B
3185: 6E3F
3186: 5304
3187: 340D
3188: 1911
3189: 7A76
318A: 5F5F
318B: 4058
318C: 25B0
318D: 0695
318E: 6B94
318F: 4CD0
3190: 3035
3191: 1506
3192: 7664
3193: 5B32
3194: 3C90
3195: 219F
3196: 02DF
3197: 6635
3198: 4B7D
3199: 2C46
319A: 1191
319B: 72E1
319C: 5664
319D: 3B54
319E: 1CA3
319F: 01F9
31A0: 6535
31A1: 467B
31A2: 2BB4
31A3: 0CE7
31A4: 7010
31A5: 5565
31A6: 3695
31A7: 1B85
31A8: 7F71
31A9: 60A4
31AA: 45C3
31AB: 2919
31AC: 0AE4
31AD: 6FD8
31AE: 537D
31AF: 3497
31B0: 1835
31B1: 7D5B
31B2: 5EFB
31B3: 4210
31B4: 27A1
31B5: 08C3
31B6: 6C44
31B7: 51A5
31B8: 357B
31B9: 1683
31BA: 7A50
31BB: 5FB9
31BC: 432C
31BD: 24B8
31BE: 0870
31BF: 6DB6
31C0: 513B
31C1: 32A3
31C2: 1635
31C3: 7BFD
31C4: 5F30
31C5: 40A2
31C6: 2407
31C7: 0980
31C8: 6D66
31C9: 4EF6
31CA: 3210
31CB: 17C2
31CC: 7BB2
31CD: 5F18
31CE: 40E2
31CF: 2415
31D0: 082D
31D1: 6D9A
31D2: 5165
31D3: 3293
31D4: 16E4
31D5: 7A4D
31D6: 5FF9
31D7: 43B1
31D8: 2734
31D9: 08D5
31DA: 6C82
31DB: 5062
31DC: 3420
31DD: 19E8
31DE: 7DB3
31DF: 6170
31E0: 4527
31E1: 26B5
31E2: 0AB1
31E3: 6E3D
31E4: 5237
31E5: 37E0
31E6: 1B91
31E7: 7F49
31E8: 6378
31E9: 4765
31EA: 28C7
31EB: 0C8C
31EC: 70B0
31ED: 5458
31EE: 3862
31EF: 1C13
31F0: 0035
31F1: 65D9
31F2: 49FC
31F3: 2DDD
31F4: 11AC
31F5: 7548
31F6: 5942
31F7: 3D60
31F8: 2134
31F9: 0512
31FA: 6918
31FB: 4D24
31FC: 3127
31FD: 1535
31FE: 7970
31FF: 5D36
3200: 4135
3201: 2526
3202: 0933
3203: 6D3C
3204: 5120
3205: 3528
3206: 1903
3207: 7D45
3208: 6171
3209: 457D
320A: 2953
320B: 0D44
320C: 71B0
320D: 5598
320E: 39F4
320F: 1DD9
3210: 002D
3211: 6455
3212: 4879
3213: 2C53
3214: 10B0
3215: 7482
3216: 5890
3217: 3F24
3218: 2334
3219: 0755
321A: 6B9F
321B: 4FE2
321C: 3228
321D: 1633
321E: 7AD5
321F: 5EFB
3220: 453B
3221: 2967
3222: 0DA4
3223: 71F5
3224: 5441
3225: 387E
3226: 1C9F
3227: 00D0
3228: 6760
3229: 4BAD
322A: 2FB4
322B: 121A
322C: 76A1
322D: 5ACE
322E: 4164
322F: 25FA
3230: 0800
3231: 6C47
3232: 50FF
3233: 370D
3234: 1BAD
3235: 7FCE
3236: 6251
3237: 46E9
3238: 2D34
3239: 11AC
323A: 7403
323B: 58A1
323C: 3F25
323D: 23B3
323E: 0634
323F: 6A33
3240: 5100
3241: 35BD
3242: 1835
3243: 7CFD
3244: 6321
3245: 47A0
3246: 2A12
3247: 0E84
3248: 757A
3249: 59EE
324A: 3C5D
324B: 20C8
324C: 07AA
324D: 6A09
324E: 4EB0
324F: 355A
3250: 1832
3251: 7CD5
3252: 6364
3253: 47D5
3254: 2AA1
3255: 114D
3256: 75D3
3257: 58AA
3258: 3F62
3259: 23C0
325A: 06D0
325B: 6D6E
325C: 502B
325D: 34F0
325E: 1BB5
325F: 7E35
3260: 6520
3261: 49FA
3262: 2CB5
3263: 137A
3264: 762C
3265: 5AE8
3266: 4182
3267: 2405
3268: 0B7C
3269: 6E20
326A: 52C2
326B: 3988
326C: 1CE4
326D: 0349
326E: 667F
326F: 4D55
3270: 302D
3271: 14DA
3272: 7BE5
3273: 5E8F
3274: 45E4
3275: 2848
3276: 0F51
3277: 7276
3278: 5960
3279: 3C45
327A: 2311
327B: 0623
327C: 6D20
327D: 507D
327E: 3727
327F: 1A30
3280: 0127
3281: 6421
3282: 4B7E
3283: 2E7D
3284: 1564
3285: 780F
3286: 5F15
3287: 4211
3288: 2963
3289: 0C60
328A: 7355
328B: 5643
328C: 3DE4
328D: 2089
328E: 07F8
328F: 6AD0
3290: 5027
3291: 3710
3292: 1A30
3293: 0149
3294: 64A5
3295: 4B81
3296: 2EDC
3297: 1465
3298: 7B66
3299: 5E4A
329A: 4593
329B: 28E6
329C: 0E64
329D: 757B
329E: 58B1
329F: 3FF6
32A0: 2531
32A1: 0866
32A2: 6FFC
32A3: 52BD
32A4: 3830
32A5: 1F65
32A6: 0295
32A7: 69D7
32A8: 4F71
32A9: 32E5
32AA: 19D9
32AB: 7F1E
32AC: 62E4
32AD: 49DC
32AE: 2F30
32AF: 129B
32B0: 7835
32B1: 5F47
32B2: 42E2
32B3: 2812
32B4: 0FB3
32B5: 7281
32B6: 5810
32B7: 3FEA
32B8: 2562
32B9: 0880
32BA: 6E02
32BB: 55AA
32BC: 3B36
32BD: 1EB2
32BE: 0427
32BF: 6BBB
32C0: 5174
32C1: 34A5
32C2: 1A31
32C3: 01A9
32C4: 672C
32C5: 4AED
32C6: 301C
32C7: 1780
32C8: 7D75
32C9: 60E1
32CA: 4659
32CB: 2DC3
32CC: 13A3
32CD: 795D
32CE: 5CFE
32CF: 425A
32D0: 2826
32D1: 0F81
32D2: 7578
32D3: 5893
32D4: 3EE4
32D5: 244D
32D6: 0BE9
32D7: 71AA
32D8: 5761
32D9: 3A85
32DA: 2098
32DB: 0668
32DC: 6C25
32DD: 53EF
32DE: 39F0
32DF: 1F62
32E0: 0535
32E1: 68E3
32E2: 4EB5
32E3: 346E
32E4: 1A64
32E5: 01E1
32E6: 6791
32E7: 4D55
32E8: 3364
32E9: 192C
32EA: 7CDE
32EB: 628A
32EC: 48E4
32ED: 2E48
32EE: 1460
32EF: 7A55
32F0: 603B
32F1: 47DB
32F2: 2DB0
32F3: 139C
32F4: 79E4
32F5: 5F4F
32F6: 4555
32F7: 2B64
32F8: 1177
32F9: 770D
32FA: 5D50
32FB: 4339
32FC: 292C
32FD: 0F2F
32FE: 753F
32FF: 5B20
3300: 4133
3301: 273D
3302: 0D70
3303: 7329
3304: 592C
3305: 3F28
3306: 2550
3307: 0B01
3308: 7171
3309: 576B
330A: 3D43
330B: 2348
330C: 09E4
330D: 6F8B
330E: 55F5
330F: 3BD2
3310: 2031
3311: 0601
3312: 6C71
3313: 5249
3314: 38AD
3315: 1E82
3316: 04DE
3317: 6D65
3318: 5360
3319: 394A
331A: 1FD0
331B: 05F4
331C: 6A2B
331D: 5068
331E: 36A2
331F: 1CB5
3320: 0527
3321: 6B7A
3322: 51A5
3323: 37E9
3324: 1C2C
3325: 0223
3326: 68F5
3327: 4ECB
3328: 377B
3329: 1DB7
332A: 03C4
332B: 6805
332C: 4EC1
332D: 34CE
332E: 1D7F
332F: 0380
3330: 6820
3331: 4E5D
3332: 349F
3333: 1D29
3334: 03B6
3335: 69C2
3336: 4E40
3337: 34EC
3338: 1D77
3339: 0384
333A: 681C
333B: 4EED
333C: 370D
333D: 1DAE
333E: 023C
333F: 68B4
3340: 513A
3341: 37B1
3342: 1D4D
3343: 0284
3344: 6B2B
3345: 51B8
3346: 3650
3347: 1C84
3348: 0566
3349: 6BE0
334A: 5010
334B: 36C2
334C: 1FAA
334D: 045D
334E: 6AF1
334F: 5315
3350: 383A
3351: 1E94
3352: 0762
3353: 6DCF
3354: 52AB
3355: 3B1A
3356: 2190
3357: 06B5
3358: 6F75
3359: 55D1
335A: 3A98
335B: 232D
335C: 0826
335D: 6EF8
335E: 57A4
335F: 3C62
3360: 2531
3361: 0BF0
3362: 70BE
3363: 593D
3364: 3E30
3365: 24FA
3366: 0D9F
3367: 7205
3368: 5B67
3369: 4031
336A: 26D5
336B: 0F88
336C: 74B4
336D: 5D1D
336E: 4262
336F: 2B1A
3370: 1037
3371: 76DE
3372: 5FB0
3373: 449B
3374: 2DA5
3375: 124E
3376: 7B55
3377: 6076
3378: 4934
3379: 2E12
337A: 1718
337B: 7C24
337C: 6527
337D: 4A35
337E: 3370
337F: 1839
3380: 013B
3381: 663A
3382: 4F3B
3383: 347D
3384: 1D28
3385: 0224
3386: 6B1B
3387: 5000
3388: 3934
3389: 1E71
338A: 0758
338B: 6C48
338C: 55BD
338D: 3ADD
338E: 23F8
338F: 08D4
3390: 7022
3391: 5910
3392: 3E30
3393: 275F
3394: 0CA1
3395: 7588
3396: 5ADE
3397: 4265
3398: 2B7C
3399: 1040
339A: 7982
339B: 5EE8
339C: 4664
339D: 2F7B
339E: 14BF
339F: 7DE7
33A0: 6574
33A1: 4A61
33A2: 33B8
33A3: 18F2
33A4: 0031
33A5: 697E
33A6: 4E91
33A7: 37CB
33A8: 1F70
33A9: 04B6
33AA: 6D90
33AB: 5502
33AC: 3AA2
33AD: 239D
33AE: 0B69
33AF: 7090
33B0: 5835
33B1: 4147
33B2: 26E3
33B3: 0E53
33B4: 77E4
33B5: 5C8D
33B6: 4462
33B7: 2DE4
33B8: 157D
33B9: 7A8B
33BA: 6250
33BB: 4BB9
33BC: 3336
33BD: 18B4
33BE: 0033
33BF: 69BE
33C0: 5138
33C1: 36B0
33C2: 1E23
33C3: 07FD
33C4: 6F20
33C5: 54A2
33C6: 3C07
33C7: 258B
33C8: 0D34
33C9: 72F1
33CA: 5A58
33CB: 43DF
33CC: 2BAB
33CD: 1308
33CE: 78F7
33CF: 605D
33D0: 4874
33D1: 3181
33D2: 1978
33D3: 7ED8
33D4: 66E4
33D5: 4E1B
33D6: 37D5
33D7: 1FA2
33D8: 0771
33D9: 6CD1
33DA: 5491
33DB: 3C79
33DC: 242D
33DD: 0DF2
33DE: 75BE
33DF: 5D35
33E0: 4535
33E1: 2AFB
33E2: 12B4
33E3: 7A3D
33E4: 6229
33E5: 4BE2
33E6: 3383
33E7: 1B56
33E8: 0338
33E9: 6B65
33EA: 50D1
33EB: 3883
33EC: 20A0
33ED: 081D
33EE: 7064
33EF: 581D
33F0: 4026
33F1: 29DA
33F2: 11E5
33F3: 799A
33F4: 61AC
33F5: 490D
33F6: 3144
33F7: 196D
33F8: 0171
33F9: 6945
33FA: 511C
33FB: 3928
33FC: 2125
33FD: 092B
33FE: 7135
33FF: 5926
3400: 4174
3401: 292C
3402: 113F
3403: 7928
3404: 6164
3405: 492E
3406: 3111
3407: 190B
3408: 0134
3409: 696A
340A: 5153
340B: 394E
340C: 21A5
340D: 098E
340E: 71F9
340F: 59DA
3410: 403A
3411: 2814
3412: 107C
3413: 7851
3414: 60BD
3415: 48CD
3416: 30C3
3417: 1B20
3418: 0371
3419: 6B05
341A: 5391
341B: 3BAD
341C: 2237
341D: 0A71
341E: 72B9
341F: 5AE3
3420: 4531
3421: 2D67
3422: 15F0
3423: 7DF2
3424: 6422
3425: 4C2D
3426: 349C
3427: 1CCC
3428: 0773
3429: 6FAD
342A: 57C4
342B: 3E4D
342C: 26AC
342D: 0EC8
342E: 797E
342F: 6191
3430: 4826
3431: 3050
3432: 18F4
3433: 030E
3434: 6BE4
3435: 53C2
3436: 3A56
3437: 22A5
3438: 0D72
3439: 7580
343A: 5C15
343B: 44B9
343C: 2F64
343D: 17BC
343E: 7E32
343F: 66BA
3440: 5122
3441: 39B0
3442: 2070
3443: 08A4
3444: 732B
3445: 5BB8
3446: 4250
3447: 2A92
3448: 157C
3449: 7DE0
344A: 6442
344B: 4CC8
344C: 37E4
344D: 1E09
344E: 06F8
344F: 7150
3450: 5874
3451: 4087
3452: 2B7F
3453: 13DE
3454: 7AAF
3455: 654D
3456: 4DC7
3457: 34A4
3458: 1F78
3459: 07C9
345A: 6E83
345B: 592D
345C: 4021
345D: 28F3
345E: 13B4
345F: 7A3B
3460: 6551
3461: 4DFB
3462: 34BF
3463: 1F6F
3464: 0630
3465: 6EE5
3466: 59F5
3467: 4056
3468: 2B7B
3469: 1230
346A: 7AC4
346B: 6585
346C: 4CCB
346D: 3769
346E: 1E62
346F: 091A
3470: 7024
3471: 58DC
3472: 43F3
3473: 2A9C
3474: 15A8
3475: 7C0D
3476: 6779
3477: 4E76
3478: 3978
3479: 2004
347A: 0B1E
347B: 7229
347C: 5DB1
347D: 4409
347E: 2F38
347F: 1630
3480: 0174
3481: 683B
3482: 5331
3483: 3A2F
3484: 2536
3485: 0C22
3486: 7707
3487: 5E45
3488: 4964
3489: 3064
348A: 1B44
348B: 0245
348C: 6DE4
348D: 548E
348E: 3FFC
348F: 26DA
3490: 1024
3491: 7B10
3492: 6263
3493: 4D1D
3494: 34A0
3495: 1F82
3496: 06C7
3497: 702B
3498: 5B63
3499: 4244
349A: 2D82
349B: 14E9
349C: 7E64
349D: 6969
349E: 50BF
349F: 3BB5
34A0: 2520
34A1: 0C7D
34A2: 77B5
34A3: 5EBD
34A4: 482A
34A5: 3362
34A6: 1A82
34A7: 05D1
34A8: 6F7C
34A9: 56E5
34AA: 41D1
34AB: 2B03
34AC: 12A0
34AD: 7D9D
34AE: 677C
34AF: 4E90
34B0: 3835
34B1: 2351
34B2: 0AE3
34B3: 745D
34B4: 5FB0
34B5: 46C2
34B6: 3010
34B7: 1BF1
34B8: 057C
34B9: 6C80
34BA: 5650
34BB: 41A0
34BC: 2B2B
34BD: 12A8
34BE: 7C24
34BF: 67BD
34C0: 5174
34C1: 38BA
34C2: 2236
34C3: 0DFD
34C4: 7725
34C5: 5EED
34C6: 4803
34C7: 3388
34C8: 1D75
34C9: 04E9
34CA: 6E5C
34CB: 598D
34CC: 43A7
34CD: 2D1C
34CE: 14E6
34CF: 7E50
34D0: 687A
34D1: 53D5
34D2: 3D30
34D3: 24FC
34D4: 0EE4
34D5: 781E
34D6: 63D9
34D7: 4DA2
34D8: 377A
34D9: 1E85
34DA: 089E
34DB: 7268
34DC: 5C25
34DD: 47EF
34DE: 31B2
34DF: 1B6C
34E0: 0574
34E1: 6CE7
34E2: 56B5
34E3: 407C
34E4: 2A20
34E5: 15FE
34E6: 7FD0
34E7: 6907
34E8: 5340
34E9: 3D37
34EA: 24D5
34EB: 0E8C
34EC: 78B7
34ED: 6248
34EE: 4C62
34EF: 3610
34F0: 2074
34F1: 0BE3
34F2: 75F1
34F3: 5F88
34F4: 49A8
34F5: 3359
34F6: 1D10
34F7: 0744
34F8: 7177
34F9: 5B06
34FA: 4515
34FB: 2F3E
34FC: 1937
34FD: 037F
34FE: 6D7C
34FF: 5775
3500: 4136
3501: 2B20
3502: 1524
3503: 7F7D
3504: 6920
3505: 5324
3506: 3D16
3507: 2703
3508: 1171
3509: 7B77
350A: 6555
350B: 4F43
350C: 39B0
350D: 23DD
350E: 0DF8
350F: 77D4
3510: 603A
3511: 4A11
3512: 3467
3513: 1E4F
3514: 08AD
3515: 7299
3516: 5CD9
3517: 492B
3518: 3373
3519: 1D05
351A: 0798
351B: 71EC
351C: 5A37
351D: 443D
351E: 2EB3
351F: 18E7
3520: 053B
3521: 6F66
3522: 59A3
3523: 43F8
3524: 2C20
3525: 162D
3526: 0084
3527: 6ACD
3528: 577D
3529: 41B6
352A: 2B90
352B: 1402
352C: 7EB1
352D: 68C9
352E: 5530
352F: 3F94
3530: 283A
3531: 1251
3532: 7CB0
3533: 690A
3534: 53B6
3535: 3DC4
3536: 2644
3537: 10F1
3538: 7D71
3539: 678B
353A: 5050
353B: 3AEF
353C: 2708
353D: 11BC
353E: 7A39
353F: 64A7
3540: 5174
3541: 3BBA
3542: 2436
3543: 0EFD
3544: 7B0C
3545: 65A2
3546: 4E02
3547: 3897
3548: 257D
3549: 0FE7
354A: 785C
354B: 62C8
354C: 4FE4
354D: 3830
354E: 22FF
354F: 0F5B
3550: 7827
3551: 6281
3552: 4F75
3553: 39CF
3554: 22E5
3555: 0F4D
3556: 7990
3557: 6284
3558: 4F78
3559: 39C9
355A: 22D0
355B: 0F63
355C: 782B
355D: 62F3
355E: 4FFD
355F: 3865
3560: 253D
3561: 0FE7
3562: 78B1
3563: 6569
3564: 4E21
3565: 38FE
3566: 25D0
3567: 0E4E
3568: 7B71
3569: 6420
356A: 4EC0
356B: 3BCD
356C: 24AB
356D: 1148
356E: 7A64
356F: 6754
3570: 5076
3571: 3A9B
3572: 2795
3573: 1093
3574: 7DAB
3575: 665F
3576: 5344
3577: 3C6D
3578: 2911
3579: 1216
357A: 7F1F
357B: 6838
357C: 5530
357D: 3E35
357E: 2B5D
357F: 1401
3580: 0126
3581: 6A3A
3582: 5720
3583: 4034
3584: 2D27
3585: 162C
3586: 031C
3587: 6C45
3588: 5957
3589: 4264
358A: 2F46
358B: 1848
358C: 0518
358D: 6EA4
358E: 5BFF
358F: 44C0
3590: 3074
3591: 1D06
3592: 0664
3593: 735C
3594: 5CAA
3595: 4989
3596: 3290
3597: 1E24
3598: 0B60
3599: 7405
359A: 6184
359B: 4AE5
359C: 3621
359D: 233D
359E: 0CB5
359F: 79FB
35A0: 6520
35A1: 4E67
35A2: 3BB1
35A3: 24F3
35A4: 1027
35A5: 7D68
35A6: 66D0
35A7: 53D1
35A8: 3F7B
35A9: 28E5
35AA: 15D1
35AB: 014D
35AC: 6AAA
35AD: 57DC
35AE: 4364
35AF: 2C80
35B0: 1826
35B1: 0554
35B2: 6EFC
35B3: 5A5D
35B4: 47A7
35B5: 30CC
35B6: 1C46
35B7: 09E0
35B8: 7534
35B9: 5E92
35BA: 4A18
35BB: 37A4
35BC: 2327
35BD: 0CB5
35BE: 7870
35BF: 65B9
35C0: 513B
35C1: 3ABA
35C2: 263B
35C3: 13AE
35C4: 7F64
35C5: 68A1
35C6: 5419
35C7: 418E
35C8: 2D71
35C9: 16A5
35CA: 0259
35CB: 6FD9
35CC: 5BE4
35CD: 4715
35CE: 30F1
35CF: 1C46
35D0: 083A
35D1: 75D2
35D2: 6164
35D3: 4A9D
35D4: 36A6
35D5: 2208
35D6: 0FD5
35D7: 7BAB
35D8: 6734
35D9: 50D3
35DA: 3C99
35DB: 287E
35DC: 142D
35DD: 01E9
35DE: 6DB5
35DF: 5971
35E0: 4574
35E1: 2EFC
35E2: 1ABE
35E3: 063D
35E4: 7235
35E5: 5FF8
35E6: 4B99
35E7: 3751
35E8: 2371
35E9: 0F65
35EA: 78C3
35EB: 6482
35EC: 50A9
35ED: 3C58
35EE: 2830
35EF: 1401
35F0: 003D
35F1: 6DD8
35F2: 59F5
35F3: 45D3
35F4: 31E4
35F5: 1D0D
35F6: 097C
35F7: 756C
35F8: 6173
35F9: 4D0D
35FA: 3904
35FB: 256D
35FC: 1134
35FD: 7D32
35FE: 6925
35FF: 5527
3600: 4127
3601: 2D75
3602: 1939
3603: 0533
3604: 7164
3605: 5D39
3606: 4918
3607: 3517
3608: 217B
3609: 0D70
360A: 7957
360B: 6545
360C: 51E4
360D: 3D89
360E: 29F8
360F: 15D0
3610: 0074
3611: 6C1A
3612: 5860
3613: 4458
3614: 30AA
3615: 1C84
3616: 08DE
3617: 7722
3618: 6334
3619: 4F51
361A: 3B9F
361B: 27AD
361C: 1230
361D: 7E75
361E: 6AB5
361F: 56B5
3620: 4527
3621: 317A
3622: 1DA5
3623: 09E9
3624: 742C
3625: 6021
3626: 4CD0
3627: 38D2
3628: 277C
3629: 13AC
362A: 7FDC
362B: 6A08
362C: 56E4
362D: 42DB
362E: 3179
362F: 1D87
3630: 0831
3631: 7453
3632: 60FC
3633: 4F14
3634: 3BA1
3635: 27DE
3636: 1210
3637: 7EE9
3638: 6D7D
3639: 5982
363A: 4418
363B: 30B9
363C: 1F64
363D: 0BA9
363E: 7638
363F: 62B0
3640: 5174
3641: 3DA5
3642: 2831
3643: 14A9
3644: 032C
3645: 6FED
3646: 5A16
3647: 4690
3648: 3566
3649: 21F1
364A: 0C58
364B: 78C8
364C: 67B6
364D: 525D
364E: 3EF9
364F: 2D5B
3650: 1820
3651: 049A
3652: 7330
3653: 5FC9
3654: 4AAC
3655: 3908
3656: 2590
3657: 10A6
3658: 7F75
3659: 6BD3
365A: 5695
365B: 452D
365C: 3030
365D: 1CF2
365E: 0BF0
365F: 7661
3660: 653C
3661: 51F0
3662: 3CF0
3663: 2B73
3664: 162B
3665: 02FF
3666: 7184
3667: 5C4D
3668: 4B3A
3669: 3640
366A: 22DE
366B: 1182
366C: 7CB6
366D: 6B49
366E: 5678
366F: 4570
3670: 3027
3671: 1CDA
3672: 0BE5
3673: 7689
3674: 65AC
3675: 5020
3676: 3F64
3677: 2A77
3678: 197B
3679: 0415
367A: 7319
367B: 5E2E
367C: 4D25
367D: 3831
367E: 2770
367F: 1216
3680: 0135
3681: 6C23
3682: 5B35
3683: 4627
3684: 3502
3685: 2024
3686: 0F02
3687: 7A00
3688: 6972
3689: 5469
368A: 4359
368B: 2E48
368C: 1DB7
368D: 08DD
368E: 77E3
368F: 62D9
3690: 503B
3691: 3F02
3692: 2A7C
3693: 1944
3694: 04E4
3695: 7389
3696: 5EC2
3697: 4C2C
3698: 3B72
3699: 2651
369A: 15D0
369B: 00EC
369C: 6E36
369D: 5D72
369E: 48A5
369F: 37FB
36A0: 2530
36A1: 1035
36A2: 7FA9
36A3: 6AF2
36A4: 5831
36A5: 472D
36A6: 3291
36A7: 21CB
36A8: 0F70
36A9: 7AE5
36AA: 69DC
36AB: 5704
36AC: 42A3
36AD: 31D5
36AE: 1F64
36AF: 0AD5
36B0: 7820
36B1: 675D
36B2: 52F5
36B3: 405D
36B4: 2FB0
36B5: 1AD8
36B6: 085E
36B7: 77EB
36B8: 6571
36B9: 5089
36BA: 3E5C
36BB: 2DED
36BC: 1B33
36BD: 06B5
36BE: 7439
36BF: 63B6
36C0: 513C
36C1: 3CF5
36C2: 2A23
36C3: 19B8
36C4: 0721
36C5: 72A0
36C6: 6003
36C7: 4FC5
36C8: 3D60
36C9: 28EA
36CA: 1610
36CB: 05CA
36CC: 73A1
36CD: 6109
36CE: 4CB0
36CF: 3A57
36D0: 2826
36D1: 179C
36D2: 0577
36D3: 70D5
36D4: 5EB0
36D5: 4C08
36D6: 3BC2
36D7: 29E5
36D8: 1760
36D9: 02CA
36DA: 70D0
36DB: 5E79
36DC: 4C2C
36DD: 3BF8
36DE: 29F0
36DF: 1766
36E0: 053B
36E1: 70E0
36E2: 5EA4
36E3: 4C75
36E4: 3A68
36E5: 29AD
36E6: 1792
36E7: 0550
36E8: 7360
36E9: 6165
36EA: 4CD4
36EB: 3A84
36EC: 28A9
36ED: 1650
36EE: 0475
36EF: 7207
36F0: 6074
36F1: 4FC1
36F2: 3DFF
36F3: 2BDD
36F4: 19B0
36F5: 0745
36F6: 7555
36F7: 6325
36F8: 517A
36F9: 3F0A
36FA: 2D02
36FB: 1B39
36FC: 092C
36FD: 7773
36FE: 6555
36FF: 533B
3700: 413B
3701: 2F27
3702: 1D24
3703: 0B35
3704: 7941
3705: 673E
3706: 551F
3707: 4310
3708: 3160
3709: 1F6D
370A: 0D3D
370B: 7B79
370C: 69B6
370D: 5792
370E: 45E0
370F: 33DC
3710: 2037
3711: 0E14
3712: 7C7C
3713: 6A1D
3714: 5887
3715: 468C
3716: 34C6
3717: 2520
3718: 1256
3719: 0171
371A: 6F98
371B: 5DE8
371C: 4A64
371D: 387E
371E: 26B1
371F: 14E3
3720: 0531
3721: 7335
3722: 61B9
3723: 4FEE
3724: 3C64
3725: 2A6C
3726: 18D0
3727: 06C9
3728: 777D
3729: 65B1
372A: 53C4
372B: 4001
372C: 2EA1
372D: 1C9D
372E: 0D67
372F: 7B9C
3730: 6830
3731: 5650
3732: 44E2
3733: 355D
3734: 23AC
3735: 11C8
3736: 7E42
3737: 6CE0
3738: 5D3A
3739: 4BC5
373A: 3850
373B: 2694
373C: 172B
373D: 05A8
373E: 7270
373F: 60B3
3740: 513D
3741: 3FBB
3742: 2C34
3743: 1AFD
3744: 0B30
3745: 79A5
3746: 6615
3747: 54C5
3748: 4577
3749: 33EA
374A: 2052
374B: 0EDA
374C: 7FA1
374D: 6C1F
374E: 5ABD
374F: 4B50
3750: 383A
3751: 2696
3752: 1762
3753: 05C8
3754: 72B7
3755: 6319
3756: 51D5
3757: 3EA1
3758: 2F34
3759: 1DD7
375A: 0A95
375B: 7B60
375C: 6825
375D: 56F4
375E: 47BE
375F: 3466
3760: 2574
3761: 13FA
3762: 00B6
3763: 713D
3764: 5E25
3765: 4CAD
3766: 3D83
3767: 2A48
3768: 1B75
3769: 0829
376A: 76DC
376B: 67CD
376C: 54A7
376D: 455C
376E: 327D
376F: 2305
3770: 1078
3771: 7E95
3772: 6FF1
3773: 5C93
3774: 4DA0
3775: 3A0D
3776: 2B51
3777: 1869
3778: 0960
3779: 760D
377A: 671F
377B: 5438
377C: 4523
377D: 3235
377E: 2370
377F: 102C
3780: 013B
3781: 6E20
3782: 5F70
3783: 4C39
3784: 3D2B
3785: 2A23
3786: 1B57
3787: 0811
3788: 7934
3789: 6676
378A: 5745
378B: 445E
378C: 35B4
378D: 2298
378E: 13F3
378F: 00C1
3790: 7074
3791: 6101
3792: 4E78
3793: 3F58
3794: 2CE4
3795: 1D8F
3796: 0AC2
3797: 7A2A
3798: 6B7F
3799: 5840
379A: 499E
379B: 36AD
379C: 2634
379D: 1774
379E: 04B5
379F: 75F6
37A0: 6531
37A1: 5266
37A2: 43F0
37A3: 30F2
37A4: 2022
37A5: 112D
37A6: 7E84
37A7: 6FC4
37A8: 5F76
37A9: 4CA9
37AA: 3DD5
37AB: 2D1E
37AC: 1AE4
37AD: 0BDC
37AE: 7B7E
37AF: 6891
37B0: 5874
37B1: 4956
37B2: 36F8
37B3: 261C
37B4: 17AD
37B5: 04DF
37B6: 7443
37B7: 65A5
37B8: 5563
37B9: 428C
37BA: 321C
37BB: 23A1
37BC: 1364
37BD: 00AD
37BE: 7022
37BF: 61BA
37C0: 5122
37C1: 3EB0
37C2: 2E70
37C3: 1FA8
37C4: 0F37
37C5: 7CA8
37C6: 6C16
37C7: 5D90
37C8: 4D78
37C9: 3AA5
37CA: 2A44
37CB: 1BC2
37CC: 0BE4
37CD: 7B04
37CE: 68FF
37CF: 5840
37D0: 4826
37D1: 39D5
37D2: 2961
37D3: 16C8
37D4: 06A1
37D5: 761E
37D6: 67C4
37D7: 57E9
37D8: 4734
37D9: 34D1
37DA: 2498
37DB: 1468
37DC: 0464
37DD: 75FB
37DE: 65B9
37DF: 5567
37E0: 4531
37E1: 32F3
37E2: 22BC
37E3: 1274
37E4: 0221
37E5: 73FE
37E6: 63D0
37E7: 5356
37E8: 4371
37E9: 3320
37EA: 20DD
37EB: 10CD
37EC: 00B0
37ED: 7052
37EE: 6030
37EF: 5019
37F0: 403D
37F1: 31DE
37F2: 21F5
37F3: 11DD
37F4: 01B1
37F5: 715E
37F6: 6159
37F7: 516B
37F8: 4173
37F9: 3145
37FA: 2104
37FB: 1125
37FC: 0121
37FD: 717D
37FE: 6134
37FF: 5130
3800: 4136
3801: 3127
3802: 2139
3803: 112E
3804: 0164
3805: 712C
3806: 6103
3807: 5145
3808: 4175
3809: 3125
380A: 2143
380B: 1145
380C: 01A1
380D: 7191
380E: 61E4
380F: 51D0
3810: 4026
3811: 305B
3812: 2030
3813: 101D
3814: 0085
3815: 70CD
3816: 60C0
3817: 5324
3818: 4367
3819: 3356
381A: 2391
381B: 13EA
381C: 0221
381D: 726A
381E: 62B1
381F: 52EC
3820: 4574
3821: 3579
3822: 25B5
3823: 15FC
3824: 0420
3825: 747E
3826: 64D0
3827: 54CB
3828: 477B
3829: 37B7
382A: 27C4
382B: 1605
382C: 06E4
382D: 76DC
382E: 697E
382F: 5991
3830: 4874
3831: 3846
3832: 28FF
3833: 1B08
3834: 0BB0
3835: 7BC5
3836: 6A1C
3837: 5AA5
3838: 4D75
3839: 3D8B
383A: 2C14
383B: 1CED
383C: 0F30
383D: 7FB5
383E: 6E35
383F: 5EA7
3840: 5131
3841: 41F5
3842: 3039
3843: 20AE
3844: 1364
3845: 03AC
3846: 721E
3847: 62C5
3848: 5575
3849: 45E9
384A: 3453
384B: 24C2
384C: 17B2
384D: 0618
384E: 76B0
384F: 6941
3850: 583B
3851: 48D5
3852: 3B64
3853: 2BD5
3854: 1AA1
3855: 0D4D
3856: 7DD5
3857: 6CA4
3858: 5F67
3859: 4FD1
385A: 3EDE
385B: 3108
385C: 202A
385D: 10F2
385E: 03A2
385F: 7261
3860: 653C
3861: 5590
3862: 44A3
3863: 3772
3864: 2631
3865: 16F9
3866: 0998
3867: 7821
3868: 6B71
3869: 5A24
386A: 4AC3
386B: 3D99
386C: 2CD0
386D: 1F69
386E: 0E62
386F: 011A
3870: 7024
3871: 60DC
3872: 53F3
3873: 429C
3874: 35A8
3875: 240D
3876: 1773
3877: 0664
3878: 7962
3879: 6800
387A: 5B50
387B: 4A0C
387C: 3D28
387D: 2C3E
387E: 1F3F
387F: 0E23
3880: 0131
3881: 70F6
3882: 6311
3883: 5229
3884: 4564
3885: 3439
3886: 2718
3887: 1600
3888: 0934
3889: 7867
388A: 6B51
388B: 5A4E
388C: 4DAF
388D: 3CDD
388E: 2FFF
388F: 1ED3
3890: 1074
3891: 0301
3892: 7278
3893: 6554
3894: 54B7
3895: 47CD
3896: 36D1
3897: 2829
3898: 1B77
3899: 0A4A
389A: 7D86
389B: 6CE8
389C: 5E68
389D: 513D
389E: 40A4
389F: 33FD
38A0: 2531
38A1: 1467
38A2: 07B5
38A3: 76BD
38A4: 682D
38A5: 5B7E
38A6: 4AD0
38A7: 3DC4
38A8: 2F34
38A9: 1EB6
38AA: 11DD
38AB: 030C
38AC: 72A8
38AD: 65D1
38AE: 5730
38AF: 4681
38B0: 3835
38B1: 2B57
38B2: 1AFC
38B3: 0C18
38B4: 7FE8
38B5: 6E8D
38B6: 6051
38B7: 53A5
38B8: 4577
38B9: 348D
38BA: 2611
38BB: 19A4
38BC: 0B36
38BD: 7AF1
38BE: 6C70
38BF: 5FB4
38C0: 513A
38C1: 40B1
38C2: 3270
38C3: 25BC
38C4: 1764
38C5: 06AF
38C6: 7802
38C7: 6B8A
38C8: 5D7F
38C9: 4CE0
38CA: 3E5E
38CB: 318D
38CC: 23A8
38CD: 151C
38CE: 04FE
38CF: 7641
38D0: 6831
38D1: 5B87
38D2: 4D7E
38D3: 3C93
38D4: 2EE4
38D5: 204D
38D6: 13F9
38D7: 05B1
38D8: 7734
38D9: 66C9
38DA: 589F
38DB: 4A62
38DC: 3C2F
38DD: 2FEE
38DE: 21F0
38DF: 1379
38E0: 053D
38E1: 74FE
38E2: 66B5
38E3: 583D
38E4: 4A30
38E5: 3DE5
38E6: 2F99
38E7: 2156
38E8: 1334
38E9: 0536
38EA: 74C0
38EB: 668C
38EC: 58A7
38ED: 4A58
38EE: 3C30
38EF: 2E02
38F0: 2035
38F1: 13C6
38F2: 05B0
38F3: 7788
38F4: 69B7
38F5: 5B48
38F6: 4D54
38F7: 3F25
38F8: 3179
38F9: 2310
38FA: 1513
38FB: 0725
38FC: 7964
38FD: 6B30
38FE: 5D3F
38FF: 4F27
3900: 4131
3901: 3375
3902: 2522
3903: 1738
3904: 0927
3905: 7B28
3906: 6D1E
3907: 5F11
3908: 5178
3909: 437C
390A: 3510
390B: 2759
390C: 19AC
390D: 0B9C
390E: 7DFE
390F: 6F95
3910: 6020
3911: 521D
3912: 4475
3913: 361D
3914: 28A7
3915: 1A8C
3916: 0CDD
3917: 0135
3918: 7334
3919: 6551
391A: 579F
391B: 49AD
391C: 3A30
391D: 2C75
391E: 1EB5
391F: 10B5
3920: 0523
3921: 7770
3922: 69A3
3923: 5BE9
3924: 4C6A
3925: 3E09
3926: 3087
3927: 22C0
3928: 1767
3929: 09B1
392A: 7BBD
392B: 6C39
392C: 5EB6
392D: 50D2
392E: 4560
392F: 379C
3930: 2837
3931: 1A54
3932: 0CFC
3933: 015D
3934: 7387
3935: 65CC
3936: 5646
3937: 48E0
3938: 3D7C
3939: 2FB1
393A: 2018
393B: 12A4
393C: 0737
393D: 79FD
393E: 6A24
393F: 5CA0
3940: 513A
3941: 43BB
3942: 3435
3943: 26B1
3944: 1B64
3945: 0DBE
3946: 7E1C
3947: 708A
3948: 6564
3949: 57E0
394A: 4843
394B: 3A8D
394C: 2FA0
394D: 2018
394E: 12F5
394F: 0745
3950: 7831
3951: 6A87
3952: 5F30
3953: 51C8
3954: 42AA
3955: 3709
3956: 29D5
3957: 1AB7
3958: 0F73
3959: 01D7
395A: 729F
395B: 6778
395C: 582A
395D: 4AF9
395E: 3FF0
395F: 3061
3960: 253B
3961: 17B5
3962: 08A4
3963: 7D75
3964: 6E21
3965: 60AD
3966: 559E
3967: 464A
3968: 3B66
3969: 2C31
396A: 1ED8
396B: 13C1
396C: 04E4
396D: 795F
396E: 6A65
396F: 5F01
3970: 5074
3971: 42C1
3972: 37F8
3973: 2898
3974: 1DE4
3975: 0E4B
3976: 0359
3977: 7477
3978: 6971
3979: 5A03
397A: 4F1C
397B: 4024
397C: 3521
397D: 262E
397E: 1B70
397F: 0C34
3980: 0126
3981: 7230
3982: 6770
3983: 583C
3984: 4D28
3985: 3E21
3986: 3350
3987: 2404
3988: 1966
3989: 0A6A
398A: 7F45
398B: 7043
398C: 65A0
398D: 56DD
398E: 4BE4
398F: 3CDA
3990: 3074
3991: 2519
3992: 1679
3993: 0B5A
3994: 7CAC
3995: 7199
3996: 6290
3997: 563C
3998: 4B7B
3999: 3C50
399A: 3182
399B: 22AD
399C: 1634
399D: 0B7C
399E: 7CA4
399F: 71FD
39A0: 657A
39A1: 5610
39A2: 4BBE
39A3: 3CF2
39A4: 3036
39A5: 2579
39A6: 1698
39A7: 0BA0
39A8: 7F67
39A9: 70AA
39AA: 65C5
39AB: 5919
39AC: 4AAC
39AD: 3FB7
39AE: 3346
39AF: 2494
39B0: 1821
39B1: 0D59
39B2: 7EE4
39B3: 725D
39B4: 6788
39B5: 58C2
39B6: 4C53
39B7: 41EE
39B8: 3594
39B9: 26BC
39BA: 1A1F
39BB: 0FB8
39BC: 0364
39BD: 74BC
39BE: 6822
39BF: 5DB0
39C0: 5174
39C1: 42BC
39C2: 363E
39C3: 2BFD
39C4: 1F25
39C5: 10ED
39C6: 0417
39C7: 7997
39C8: 6D7D
39C9: 5EE1
39CA: 5210
39CB: 47C2
39CC: 3BA2
39CD: 2F5D
39CE: 20E2
39CF: 145A
39D0: 083B
39D1: 7D98
39D2: 7163
39D3: 629D
39D4: 56B0
39D5: 4A05
39D6: 3FD1
39D7: 33B1
39D8: 2734
39D9: 18C6
39DA: 0C9F
39DB: 0063
39DC: 7430
39DD: 69EF
39DE: 5DBF
39DF: 5179
39E0: 4574
39E1: 36E1
39E2: 2AB8
39E3: 1E78
39E4: 1264
39E5: 07E9
39E6: 7B9F
39E7: 6F4A
39E8: 6366
39E9: 5765
39EA: 48C4
39EB: 3C82
39EC: 30E4
39ED: 2449
39EE: 1878
39EF: 0C10
39F0: 0074
39F1: 75C3
39F2: 69F1
39F3: 5D88
39F4: 51A8
39F5: 4559
39F6: 391E
39F7: 2D0F
39F8: 211E
39F9: 1531
39FA: 0918
39FB: 7D28
39FC: 7164
39FD: 653B
39FE: 593C
39FF: 4D3A
3A00: 413B
3A01: 3527
3A02: 2970
3A03: 1D32
3A04: 1122
3A05: 056D
3A06: 7904
3A07: 6D0D
3A08: 617D
3A09: 5576
3A0A: 4910
3A0B: 3D5F
3A0C: 31AB
3A0D: 2592
3A0E: 19FD
3A0F: 0D95
3A10: 003D
3A11: 7406
3A12: 6830
3A13: 5C5C
3A14: 50E4
3A15: 4481
3A16: 38D1
3A17: 2F37
3A18: 2373
3A19: 1740
3A1A: 0BD0
3A1B: 7FE0
3A1C: 722B
3A1D: 666E
3A1E: 5AB1
3A1F: 4EFC
3A20: 4537
3A21: 3935
3A22: 2DB4
3A23: 21F8
3A24: 1434
3A25: 0864
3A26: 7C93
3A27: 70D1
3A28: 677D
3A29: 5BAB
3A2A: 4FD7
3A2B: 424D
3A2C: 36A5
3A2D: 2A9D
3A2E: 2137
3A2F: 15DF
3A30: 0873
3A31: 7C15
3A32: 70E3
3A33: 6704
3A34: 5BA9
3A35: 4FCF
3A36: 425F
3A37: 36E9
3A38: 2D3A
3A39: 21E1
3A3A: 1415
3A3B: 08AC
3A3C: 7F37
3A3D: 73A9
3A3E: 6655
3A3F: 5AA6
3A40: 513B
3A41: 45A0
3A42: 3824
3A43: 2CB5
3A44: 234E
3A45: 179B
3A46: 0A11
3A47: 7E90
3A48: 7578
3A49: 69F1
3A4A: 5C10
3A4B: 50E1
3A4C: 47AB
3A4D: 3A1E
3A4E: 2EFB
3A4F: 25B7
3A50: 180D
3A51: 0C9A
3A52: 0365
3A53: 779D
3A54: 6AA5
3A55: 611F
3A56: 55D5
3A57: 48E5
3A58: 3F7D
3A59: 33CB
3A5A: 26D0
3A5B: 1D6C
3A5C: 1064
3A5D: 04FA
3A5E: 7BA2
3A5F: 6E7C
3A60: 6530
3A61: 59B5
3A62: 4CBF
3A63: 437B
3A64: 3664
3A65: 2AFF
3A66: 219F
3A67: 144A
3A68: 0B79
3A69: 7E36
3A6A: 7290
3A6B: 6999
3A6C: 5CAC
3A6D: 535C
3A6E: 4664
3A6F: 3D55
3A70: 3037
3A71: 24DA
3A72: 1BFE
3A73: 0E89
3A74: 05B6
3A75: 7842
3A76: 6F5C
3A77: 6225
3A78: 5960
3A79: 4C0D
3A7A: 4315
3A7B: 366D
3A7C: 2D20
3A7D: 2032
3A7E: 173F
3A7F: 0A27
3A80: 0174
3A81: 7421
3A82: 6B3F
3A83: 5E7D
3A84: 5530
3A85: 4825
3A86: 3F15
3A87: 3245
3A88: 2962
3A89: 1C64
3A8A: 1345
3A8B: 0641
3A8C: 7DB0
3A8D: 70D3
3A8E: 679A
3A8F: 5ABF
3A90: 5000
3A91: 471D
3A92: 3A75
3A93: 311D
3A94: 24A2
3A95: 1B81
3A96: 0EDF
3A97: 042A
3A98: 7B66
3A99: 6E05
3A9A: 659F
3A9B: 58EB
3A9C: 4E64
3A9D: 4569
3A9E: 38B8
3A9F: 2FFC
3AA0: 2527
3AA1: 1835
3AA2: 0FA2
3AA3: 02F2
3AA4: 782B
3AA5: 6F60
3AA6: 62D0
3AA7: 59CC
3AA8: 4F67
3AA9: 42E5
3AAA: 39D1
3AAB: 2F4D
3AAC: 22A8
3AAD: 19DC
3AAE: 0F62
3AAF: 0292
3AB0: 7831
3AB1: 6F15
3AB2: 62FD
3AB3: 5812
3AB4: 4FB7
3AB5: 42CC
3AB6: 3859
3AB7: 2FE6
3AB8: 2534
3AB9: 1881
3ABA: 0E15
3ABB: 05BD
3ABC: 7B2D
3ABD: 6EBE
3ABE: 6424
3ABF: 5BBC
3AC0: 513A
3AC1: 44B2
3AC2: 3A70
3AC3: 31A9
3AC4: 272C
3AC5: 1AA8
3AC6: 1050
3AC7: 078B
3AC8: 7D61
3AC9: 70E8
3ACA: 6652
3ACB: 5DC8
3ACC: 53B6
3ACD: 495D
3ACE: 3CB7
3ACF: 320D
3AD0: 2873
3AD1: 1FDB
3AD2: 1514
3AD3: 08D8
3AD4: 7EA5
3AD5: 741E
3AD6: 6BC4
3AD7: 61C0
3AD8: 5767
3AD9: 4ACA
3ADA: 4085
3ADB: 3679
3ADC: 2C2C
3ADD: 2399
3ADE: 19A7
3ADF: 0F70
3AE0: 0527
3AE1: 78E1
3AE2: 6EDA
3AE3: 644B
3AE4: 5A25
3AE5: 51F8
3AE6: 479C
3AE7: 3D51
3AE8: 3334
3AE9: 2909
3AEA: 1CDF
3AEB: 128E
3AEC: 08AF
3AED: 7EBD
3AEE: 7449
3AEF: 6A1A
3AF0: 6021
3AF1: 5795
3AF2: 4DF1
3AF3: 438F
3AF4: 39A1
3AF5: 2F0D
3AF6: 2559
3AF7: 1B6B
3AF8: 1134
3AF9: 0704
3AFA: 7D50
3AFB: 732A
3AFC: 6936
3AFD: 5F34
3AFE: 5534
3AFF: 4B75
3B00: 413B
3B01: 3733
3B02: 2D70
3B03: 232F
3B04: 192B
3B05: 0F22
3B06: 051D
3B07: 7B16
3B08: 7134
3B09: 6771
3B0A: 5D58
3B0B: 534C
3B0C: 49B0
3B0D: 3FDD
3B0E: 35F3
3B0F: 2BDA
3B10: 203A
3B11: 1601
3B12: 0C62
3B13: 0252
3B14: 78A8
3B15: 6ECD
3B16: 64C4
3B17: 5D2D
3B18: 5371
3B19: 4905
3B1A: 3F94
3B1B: 35E2
3B1C: 2A2B
3B1D: 206F
3B1E: 16F0
3B1F: 0CE1
3B20: 053B
3B21: 7B35
3B22: 71A4
3B23: 67F5
3B24: 5C21
3B25: 522D
3B26: 4886
3B27: 3EC4
3B28: 3761
3B29: 2DA9
3B2A: 23C4
3B2B: 1843
3B2C: 0ECE
3B2D: 04B7
3B2E: 7D44
3B2F: 739D
3B30: 6831
3B31: 5E15
3B32: 54F6
3B33: 4D11
3B34: 43AB
3B35: 39C2
3B36: 2E42
3B37: 24A5
3B38: 1D7B
3B39: 1383
3B3A: 0850
3B3B: 7EB9
3B3C: 772C
3B3D: 6DB4
3B3E: 6223
3B3F: 58F5
3B40: 5126
3B41: 47BA
3B42: 3C3F
3B43: 32B0
3B44: 2B64
3B45: 21A4
3B46: 1603
3B47: 0CC5
3B48: 0575
3B49: 7BA5
3B4A: 705C
3B4B: 66CC
3B4C: 5FB6
3B4D: 541A
3B4E: 4AF5
3B4F: 4315
3B50: 3839
3B51: 2E9A
3B52: 2763
3B53: 1DDC
3B54: 12AD
3B55: 0B0E
3B56: 0190
3B57: 76A1
3B58: 6F71
3B59: 65D5
3B5A: 5A99
3B5B: 536E
3B5C: 4830
3B5D: 3EF4
3B5E: 37BE
3B5F: 2C72
3B60: 2574
3B61: 1BF4
3B62: 10F0
3B63: 093A
3B64: 7E69
3B65: 74AA
3B66: 6DD0
3B67: 6256
3B68: 5B6D
3B69: 5028
3B6A: 46D2
3B6B: 3F82
3B6C: 34A8
3B6D: 2D13
3B6E: 2214
3B6F: 1B10
3B70: 1035
3B71: 06C6
3B72: 7FE4
3B73: 74F8
3B74: 6DB7
3B75: 6242
3B76: 5B45
3B77: 5071
3B78: 497C
3B79: 3E61
3B7A: 3707
3B7B: 2C28
3B7C: 2537
3B7D: 1A29
3B7E: 135A
3B7F: 0803
3B80: 0135
3B81: 7620
3B82: 6F3C
3B83: 6429
3B84: 5D64
3B85: 5209
3B86: 4B1F
3B87: 400A
3B88: 3966
3B89: 2EF3
3B8A: 2769
3B8B: 1C42
3B8C: 15B1
3B8D: 0ADD
3B8E: 03E3
3B8F: 78C1
3B90: 7035
3B91: 691B
3B92: 5E74
3B93: 571D
3B94: 4CA6
3B95: 4588
3B96: 3AD6
3B97: 322A
3B98: 2B66
3B99: 2040
3B9A: 19D0
3B9B: 0EF9
3B9C: 062C
3B9D: 7F78
3B9E: 74F0
3B9F: 6DF1
3BA0: 653B
3BA1: 5A7A
3BA2: 53A2
3BA3: 48BD
3BA4: 4030
3BA5: 3962
3BA6: 2ED0
3BA7: 27D1
3BA8: 1F7C
3BA9: 14A0
3BAA: 0D90
3BAB: 051B
3BAC: 7AA5
3BAD: 73C8
3BAE: 6B7C
3BAF: 6081
3BB0: 586F
3BB1: 5115
3BB2: 46F9
3BB3: 3E09
3BB4: 37E4
3BB5: 2CC5
3BB6: 2451
3BB7: 1DF6
3BB8: 1534
3BB9: 0A84
3BBA: 0250
3BBB: 7BA1
3BBC: 7325
3BBD: 68AF
3BBE: 6037
3BBF: 59B0
3BC0: 5174
3BC1: 46F2
3BC2: 3E63
3BC3: 37ED
3BC4: 2F63
3BC5: 24ED
3BC6: 1C13
3BC7: 1584
3BC8: 0D66
3BC9: 02F3
3BCA: 7A55
3BCB: 73C9
3BCC: 6BE4
3BCD: 6314
3BCE: 58FE
3BCF: 5041
3BD0: 483B
3BD1: 41D5
3BD2: 3979
3BD3: 2EC9
3BD4: 26EA
3BD5: 1E4D
3BD6: 1790
3BD7: 0F84
3BD8: 0772
3BD9: 7CC3
3BDA: 7499
3BDB: 6C75
3BDC: 6421
3BDD: 5DF9
3BDE: 55F0
3BDF: 4D61
3BE0: 453B
3BE1: 3AB5
3BE2: 32A4
3BE3: 2A75
3BE4: 2221
3BE5: 1BAD
3BE6: 1387
3BE7: 0B44
3BE8: 0378
3BE9: 7B29
3BEA: 7090
3BEB: 6883
3BEC: 60A1
3BED: 585C
3BEE: 5062
3BEF: 4855
3BF0: 4020
3BF1: 39DD
3BF2: 31F5
3BF3: 29DD
3BF4: 21A0
3BF5: 1942
3BF6: 115F
3BF7: 0977
3BF8: 0138
3BF9: 7945
3BFA: 7104
3BFB: 6925
3BFC: 6121
3BFD: 592F
3BFE: 5135
3BFF: 4975
3C00: 413D
3C01: 3926
3C02: 3170
3C03: 293C
3C04: 2164
3C05: 193F
3C06: 1105
3C07: 090B
3C08: 017A
3C09: 796C
3C0A: 715E
3C0B: 694A
3C0C: 61E4
3C0D: 5995
3C0E: 51FF
3C0F: 49C0
3C10: 4026
3C11: 3812
3C12: 307C
3C13: 285C
3C14: 20B7
3C15: 189E
3C16: 1090
3C17: 0B32
3C18: 037C
3C19: 7B4C
3C1A: 7393
3C1B: 6BE5
3C1C: 6264
3C1D: 5A73
3C1E: 52B5
3C1F: 4AE3
3C20: 4531
3C21: 3D67
3C22: 35F0
3C23: 2DEE
3C24: 2421
3C25: 1C68
3C26: 149D
3C27: 0CD6
3C28: 0734
3C29: 7FB1
3C2A: 77DF
3C2B: 6E4D
3C2C: 66B6
3C2D: 5EC8
3C2E: 597E
3C2F: 51D5
3C30: 483B
3C31: 4040
3C32: 38E4
3C33: 335D
3C34: 2BAB
3C35: 23CB
3C36: 1A10
3C37: 12F6
3C38: 0D75
3C39: 058B
3C3A: 7C14
3C3B: 74E3
3C3C: 6F4E
3C3D: 67D7
3C3E: 5E04
3C3F: 56BD
3C40: 5131
3C41: 49F5
3C42: 4036
3C43: 38B1
3C44: 332B
3C45: 2BA2
3C46: 2202
3C47: 1AC5
3C48: 157B
3C49: 0DE3
3C4A: 0410
3C4B: 7CD9
3C4C: 77AC
3C4D: 6E14
3C4E: 66E3
3C4F: 6115
3C50: 5826
3C51: 509A
3C52: 4B7F
3C53: 43D0
3C54: 3AE4
3C55: 3504
3C56: 2DC3
3C57: 24E5
3C58: 1F75
3C59: 1785
3C5A: 0E9C
3C5B: 096C
3C5C: 0036
3C5D: 78FA
3C5E: 73B5
3C5F: 6A35
3C60: 6539
3C61: 5DFA
3C62: 54A3
3C63: 4F7C
3C64: 462D
3C65: 3EEE
3C66: 39D0
3C67: 3041
3C68: 2B71
3C69: 2235
3C6A: 1AD9
3C6B: 158E
3C6C: 0CB0
3C6D: 0754
3C6E: 7E7E
3C6F: 7912
3C70: 7074
3C71: 68C1
3C72: 63F8
3C73: 5A98
3C74: 55E4
3C75: 4C43
3C76: 4745
3C77: 3E68
3C78: 3976
3C79: 3000
3C7A: 2B02
3C7B: 226D
3C7C: 1D63
3C7D: 146C
3C7E: 0F77
3C7F: 067B
3C80: 0151
3C81: 7826
3C82: 733F
3C83: 6A28
3C84: 6530
3C85: 5C25
3C86: 5774
3C87: 4E12
3C88: 4971
3C89: 4076
3C8A: 3B44
3C8B: 3228
3C8C: 2DB2
3C8D: 249C
3C8E: 1FE5
3C8F: 16D9
3C90: 1020
3C91: 0B7F
3C92: 0246
3C93: 7D5C
3C94: 74B1
3C95: 6F81
3C96: 66C4
3C97: 6065
3C98: 5B58
3C99: 524A
3C9A: 4D93
3C9B: 44E6
3C9C: 3EC6
3C9D: 3944
3C9E: 30BF
3C9F: 2BE0
3CA0: 2574
3CA1: 1C74
3CA2: 17A2
3CA3: 0EF8
3CA4: 0864
3CA5: 0364
3CA6: 7A9E
3CA7: 7585
3CA8: 6F75
3CA9: 66E5
3CAA: 61D7
3CAB: 5B1F
3CAC: 52AD
3CAD: 4DD9
3CAE: 4730
3CAF: 3E9A
3CB0: 3832
3CB1: 3315
3CB2: 2AE2
3CB3: 2412
3CB4: 1FAB
3CB5: 16C0
3CB6: 1043
3CB7: 0BA5
3CB8: 0560
3CB9: 7C8D
3CBA: 7611
3CBB: 71B9
3CBC: 6B64
3CBD: 62BE
3CBE: 5C3F
3CBF: 57BB
3CC0: 5120
3CC1: 48A7
3CC2: 423F
3CC3: 3DB1
3CC4: 3764
3CC5: 2EB9
3CC6: 2818
3CC7: 2380
3CC8: 1D34
3CC9: 14E1
3CCA: 0E5F
3CCB: 09C2
3CCC: 03B6
3CCD: 7D5D
3CCE: 74E4
3CCF: 6E5A
3CD0: 6874
3CD1: 6381
3CD2: 5D78
3CD3: 54D8
3CD4: 4EE4
3CD5: 481B
3CD6: 43D1
3CD7: 3DB0
3CD8: 3778
3CD9: 2ED1
3CDA: 28DE
3CDB: 2207
3CDC: 1C4E
3CDD: 17C9
3CDE: 11B8
3CDF: 0B70
3CE0: 0574
3CE1: 7CF3
3CE2: 76BC
3CE3: 7072
3CE4: 6A2B
3CE5: 65FF
3CE6: 5FD0
3CE7: 594A
3CE8: 5372
3CE9: 4D65
3CEA: 44C4
3CEB: 3E85
3CEC: 38AD
3CED: 324E
3CEE: 2C30
3CEF: 2607
3CF0: 203B
3CF1: 1BDA
3CF2: 15FD
3CF3: 0FDD
3CF4: 09AD
3CF5: 035E
3CF6: 7D10
3CF7: 7764
3CF8: 7134
3CF9: 6B09
3CFA: 6511
3CFB: 5F3F
3CFC: 5923
3CFD: 5338
3CFE: 4D70
3CFF: 4738
3D00: 413B
3D01: 3B26
3D02: 3531
3D03: 2F34
3D04: 2927
3D05: 236D
3D06: 1D14
3D07: 1700
3D08: 1164
3D09: 0B6C
3D0A: 0553
3D0B: 7F59
3D0C: 79AD
3D0D: 7393
3D0E: 6DF7
3D0F: 6795
3D10: 6020
3D11: 5A1D
3D12: 5475
3D13: 4E1D
3D14: 48AA
3D15: 4298
3D16: 3CDD
3D17: 3927
3D18: 3371
3D19: 2D57
3D1A: 27D0
3D1B: 21AA
3D1C: 1A70
3D1D: 143A
3D1E: 0EFE
3D1F: 0890
3D20: 053A
3D21: 7F7A
3D22: 79A2
3D23: 73E9
3D24: 6C2C
3D25: 6609
3D26: 6095
3D27: 5AC4
3D28: 5767
3D29: 51B1
3D2A: 4BB5
3D2B: 441E
3D2C: 3EAB
3D2D: 38C8
3D2E: 3564
3D2F: 2F9D
3D30: 285E
3D31: 2263
3D32: 1CF1
3D33: 1908
3D34: 13A8
3D35: 0DD9
3D36: 0610
3D37: 00C9
3D38: 7D7B
3D39: 7786
3D3A: 701B
3D3B: 6A4D
3D3C: 671D
3D3D: 61B2
3D3E: 5A25
3D3F: 54F5
3D40: 5135
3D41: 4BA7
3D42: 4435
3D43: 3EFD
3D44: 3B2D
3D45: 35A3
3D46: 2E50
3D47: 2884
3D48: 2534
3D49: 1FE2
3D4A: 1842
3D4B: 12C4
3D4C: 0FA0
3D4D: 085D
3D4E: 02FF
3D4F: 7F53
3D50: 7874
3D51: 7287
3D52: 6F7F
3D53: 69D2
3D54: 62A9
3D55: 5F1E
3D56: 5990
3D57: 52B1
3D58: 4F7C
3D59: 49C4
3D5A: 4284
3D5B: 3F2D
3D5C: 3827
3D5D: 32F2
3D5E: 2FBE
3D5F: 2861
3D60: 2526
3D61: 1FFA
3D62: 18BC
3D63: 153D
3D64: 0E30
3D65: 08E5
3D66: 0595
3D67: 7E05
3D68: 7B70
3D69: 742A
3D6A: 6EDF
3D6B: 6B9F
3D6C: 64E4
3D6D: 6149
3D6E: 5A7F
3D6F: 5755
3D70: 5020
3D71: 4ADD
3D72: 47F5
3D73: 40DD
3D74: 3DB2
3D75: 364C
3D76: 3345
3D77: 2C69
3D78: 2960
3D79: 224B
3D7A: 1F7A
3D7B: 1847
3D7C: 1510
3D7D: 0E35
3D7E: 0B35
3D7F: 0475
3D80: 0132
3D81: 7A39
3D82: 773F
3D83: 7032
3D84: 6D36
3D85: 666D
3D86: 631F
3D87: 5C03
3D88: 5934
3D89: 5271
3D8A: 4F58
3D8B: 4844
3D8C: 45B7
3D8D: 3EDD
3D8E: 3BE2
3D8F: 34DA
3D90: 303B
3D91: 2D18
3D92: 2630
3D93: 2354
3D94: 1CB7
3D95: 19CD
3D96: 12D1
3D97: 0E65
3D98: 0B78
3D99: 0444
3D9A: 0182
3D9B: 7AEA
3D9C: 7621
3D9D: 733D
3D9E: 6CBD
3D9F: 69FA
3DA0: 6527
3DA1: 5E74
3DA2: 5BB9
3DA3: 54FE
3DA4: 5064
3DA5: 4D69
3DA6: 4695
3DA7: 43D5
3DA8: 3F7D
3DA9: 38A6
3DAA: 35C4
3DAB: 3104
3DAC: 2AAA
3DAD: 27DA
3DAE: 2330
3DAF: 1C94
3DB0: 1874
3DB1: 1512
3DB2: 0EBA
3DB3: 0A5A
3DB4: 07E4
3DB5: 00DE
3DB6: 7C49
3DB7: 79E8
3DB8: 7576
3DB9: 6E8A
3DBA: 6A1C
3DBB: 67E3
3DBC: 6341
3DBD: 5CB3
3DBE: 583F
3DBF: 55A7
3DC0: 5120
3DC1: 4ABD
3DC2: 4654
3DC3: 43B8
3DC4: 3F25
3DC5: 38BE
3DC6: 3404
3DC7: 31E0
3DC8: 2D67
3DC9: 26EA
3DCA: 2245
3DCB: 1FD9
3DCC: 1BAC
3DCD: 1779
3DCE: 10E7
3DCF: 0C50
3DD0: 0827
3DD1: 0581
3DD2: 011A
3DD3: 7AEB
3DD4: 76A5
3DD5: 7218
3DD6: 6FDC
3DD7: 6BB1
3DD8: 6734
3DD9: 60E9
3DDA: 5C9F
3DDB: 586E
3DDC: 542F
3DDD: 511E
3DDE: 4D89
3DDF: 497A
3DE0: 4521
3DE1: 3EB5
3DE2: 3AB1
3DE3: 366F
3DE4: 3221
3DE5: 2FAD
3DE6: 2B99
3DE7: 274B
3DE8: 2334
3DE9: 1F24
3DEA: 1890
3DEB: 148A
3DEC: 10B6
3DED: 0C54
3DEE: 0874
3DEF: 0455
3DF0: 003B
3DF1: 7DD3
3DF2: 79B0
3DF3: 758F
3DF4: 71AB
3DF5: 6D42
3DF6: 695D
3DF7: 6576
3DF8: 6134
3DF9: 5D11
3DFA: 5918
3DFB: 552C
3DFC: 5130
3DFD: 4D7D
3DFE: 4933
3DFF: 453A
3E00: 413A
3E01: 3D21
3E02: 3922
3E03: 3532
3E04: 3128
3E05: 2D6D
3E06: 2904
3E07: 250D
3E08: 2171
3E09: 1D25
3E0A: 1954
3E0B: 1542
3E0C: 11AB
3E0D: 0D8F
3E0E: 09B0
3E0F: 05C1
3E10: 003B
3E11: 7C55
3E12: 7864
3E13: 7455
3E14: 70A1
3E15: 6CCD
3E16: 68C6
3E17: 6724
3E18: 6361
3E19: 5F49
3E1A: 5B84
3E1B: 57A3
3E1C: 524E
3E1D: 4E17
3E1E: 4A84
3E1F: 46FD
3E20: 4531
3E21: 4135
3E22: 3DB6
3E23: 39F1
3E24: 342B
3E25: 3062
3E26: 2C82
3E27: 2885
3E28: 277B
3E29: 23A3
3E2A: 1F90
3E2B: 1A19
3E2C: 16AC
3E2D: 12D4
3E2E: 1163
3E2F: 0DD5
3E30: 0826
3E31: 045A
3E32: 00FF
3E33: 7F10
3E34: 7BE4
3E35: 77C4
3E36: 7243
3E37: 6EA5
3E38: 6D75
3E39: 69C5
3E3A: 641C
3E3B: 60AC
3E3C: 5F36
3E3D: 5BBA
3E3E: 5635
3E3F: 52F5
3E40: 5139
3E41: 4DBA
3E42: 4823
3E43: 44BC
3E44: 432D
3E45: 3FAE
3E46: 3A50
3E47: 3681
3E48: 3571
3E49: 31F5
3E4A: 2C59
3E4B: 28CE
3E4C: 27B0
3E4D: 2214
3E4E: 1EFE
3E4F: 1D52
3E50: 1874
3E51: 1481
3E52: 1378
3E53: 0FD8
3E54: 0AE4
3E55: 0903
3E56: 05C5
3E57: 00A8
3E58: 7F76
3E59: 7BC0
3E5A: 7682
3E5B: 752D
3E5C: 7063
3E5D: 6CAC
3E5E: 6BE1
3E5F: 6632
3E60: 657A
3E61: 6190
3E62: 5CBE
3E63: 5B72
3E64: 5636
3E65: 52F9
3E66: 5198
3E67: 4C21
3E68: 4B71
3E69: 4624
3E6A: 42C3
3E6B: 4199
3E6C: 3CC1
3E6D: 3B4E
3E6E: 367F
3E6F: 3500
3E70: 3020
3E71: 2CDD
3E72: 2B94
3E73: 268A
3E74: 25A1
3E75: 205E
3E76: 1F44
3E77: 1A0F
3E78: 1942
3E79: 1404
3E7A: 1305
3E7B: 0E21
3E7C: 0D30
3E7D: 087D
3E7E: 071C
3E7F: 023A
3E80: 0137
3E81: 7C3E
3E82: 7BD0
3E83: 7604
3E84: 752B
3E85: 7038
3E86: 6F50
3E87: 6A04
3E88: 6966
3E89: 6460
3E8A: 6310
3E8B: 5E44
3E8C: 5DAA
3E8D: 58DD
3E8E: 57F1
3E8F: 5295
3E90: 5033
3E91: 4F07
3E92: 4A79
3E93: 4959
3E94: 44E4
3E95: 4382
3E96: 3ED6
3E97: 3C65
3E98: 3B66
3E99: 364A
3E9A: 359F
3E9B: 30E0
3E9C: 2E37
3E9D: 2D3D
3E9E: 28A4
3E9F: 27FD
3EA0: 2535
3EA1: 2061
3EA2: 1FF0
3EA3: 1AFE
3EA4: 182B
3EA5: 1763
3EA6: 1284
3EA7: 11D7
3EA8: 0F7B
3EA9: 0AA9
3EAA: 0990
3EAB: 0719
3EAC: 02AC
3EAD: 01D8
3EAE: 7F30
3EAF: 7A91
3EB0: 783B
3EB1: 775A
3EB2: 72E2
3EB3: 705D
3EB4: 6FB0
3EB5: 6AC2
3EB6: 6810
3EB7: 67F1
3EB8: 657C
3EB9: 6080
3EBA: 5E50
3EBB: 5DBB
3EBC: 5B25
3EBD: 56A8
3EBE: 543C
3EBF: 53A1
3EC0: 517A
3EC1: 4CDF
3EC2: 4A5A
3EC3: 4989
3EC4: 472C
3EC5: 42A8
3EC6: 4050
3EC7: 3F83
3EC8: 3D78
3EC9: 38EA
3ECA: 365F
3ECB: 35DF
3ECC: 33E4
3ECD: 3112
3ECE: 2CF6
3ECF: 2A15
3ED0: 2820
3ED1: 279D
3ED2: 2579
3ED3: 20CE
3ED4: 1EE4
3ED5: 1C1F
3ED6: 1BDF
3ED7: 19AA
3ED8: 1779
3ED9: 1285
3EDA: 1099
3EDB: 0E7E
3EDC: 0C64
3EDD: 0BFC
3EDE: 09F0
3EDF: 0779
3EE0: 0535
3EE1: 00E7
3EE2: 7EB7
3EE3: 7C78
3EE4: 7A64
3EE5: 79E0
3EE6: 779F
3EE7: 7556
3EE8: 7375
3EE9: 712C
3EEA: 6CD3
3EEB: 6ACD
3EEC: 68A0
3EED: 6658
3EEE: 6460
3EEF: 621C
3EF0: 6037
3EF1: 5FC1
3EF2: 5DF9
3EF3: 5B93
3EF4: 59A3
3EF5: 570D
3EF6: 5551
3EF7: 5325
3EF8: 5133
3EF9: 4F4F
3EFA: 4D57
3EFB: 4B6D
3EFC: 4937
3EFD: 4724
3EFE: 453D
3EFF: 4337
3F00: 413B
3F01: 3F39
3F02: 3D7E
3F03: 3B58
3F04: 392A
3F05: 3722
3F06: 3502
3F07: 3311
3F08: 317C
3F09: 2F00
3F0A: 2D43
3F0B: 2B42
3F0C: 29B1
3F0D: 2789
3F0E: 25F8
3F0F: 23B1
3F10: 2023
3F11: 1E10
3F12: 1C63
3F13: 1A49
3F14: 18CE
3F15: 16BB
3F16: 14D1
3F17: 1530
3F18: 1378
3F19: 1151
3F1A: 0FD0
3F1B: 0DC1
3F1C: 0A2B
3F1D: 087E
3F1E: 06BB
3F1F: 0415
3F20: 050D
3F21: 037A
3F22: 01A5
3F23: 7FBD
3F24: 7C25
3F25: 7A7F
3F26: 7895
3F27: 7685
3F28: 777D
3F29: 75AB
3F2A: 7390
3F2B: 700C
3F2C: 6EE4
3F2D: 6CDA
3F2E: 6D62
3F2F: 6B9C
3F30: 6830
3F31: 6615
3F32: 64FF
3F33: 651B
3F34: 63E4
3F35: 61DF
3F36: 5E5F
3F37: 5CEA
3F38: 5D79
3F39: 5B96
3F3A: 5850
3F3B: 56B9
3F3C: 572C
3F3D: 55BC
3F3E: 5224
3F3F: 50F5
3F40: 5137
3F41: 4FBA
3F42: 4C3E
3F43: 4AA9
3F44: 4B36
3F45: 49A2
3F46: 461C
3F47: 44C5
3F48: 4560
3F49: 43ED
3F4A: 4055
3F4B: 3E8D
3F4C: 3FA0
3F4D: 3C12
3F4E: 3AFF
3F4F: 3B47
3F50: 3874
3F51: 3681
3F52: 377F
3F53: 359D
3F54: 32B0
3F55: 3305
3F56: 31D5
3F57: 2EE5
3F58: 2F62
3F59: 2DC4
3F5A: 2A85
3F5B: 2B61
3F5C: 2830
3F5D: 26B3
3F5E: 27DA
3F5F: 241F
3F60: 2500
3F61: 23FD
3F62: 20B5
3F63: 213D
3F64: 1E22
3F65: 1CE1
3F66: 1D9F
3F67: 1A4A
3F68: 1B66
3F69: 1865
3F6A: 16DF
3F6B: 178B
3F6C: 14E4
3F6D: 1549
3F6E: 1278
3F6F: 131C
3F70: 1027
3F71: 0E95
3F72: 0FE2
3F73: 0C92
3F74: 0DAB
3F75: 0A40
3F76: 0B10
3F77: 086C
3F78: 0967
3F79: 0645
3F7A: 0711
3F7B: 046D
3F7C: 0528
3F7D: 023C
3F7E: 0322
3F7F: 0032
3F80: 0131
3F81: 7E75
3F82: 7F3D
3F83: 7C32
3F84: 7D37
3F85: 7A2C
3F86: 7B19
3F87: 7806
3F88: 7934
3F89: 7661
3F8A: 7755
3F8B: 745D
3F8C: 75AD
3F8D: 729E
3F8E: 73E4
3F8F: 70DC
3F90: 703A
3F91: 7112
3F92: 6E30
3F93: 6F5C
3F94: 6CE4
3F95: 6DCA
3F96: 6A9B
3F97: 6A62
3F98: 6B34
3F99: 6856
3F9A: 6989
3F9B: 66E0
3F9C: 6626
3F9D: 6772
3F9E: 64BC
3F9F: 65BB
3FA0: 6551
3FA1: 627B
3FA2: 63BF
3FA3: 60EF
3FA4: 6030
3FA5: 6165
3FA6: 5EF4
3FA7: 5FC0
3FA8: 5F75
3FA9: 5CB6
3FAA: 5DC4
3FAB: 5D68
3FAC: 5AB7
3FAD: 5BD2
3FAE: 5B65
3FAF: 5881
3FB0: 583C
3FB1: 593F
3FB2: 56C6
3FB3: 561C
3FB4: 57B1
3FB5: 54C1
3FB6: 5444
3FB7: 55A5
3FB8: 5558
3FB9: 528A
3FBA: 5213
3FBB: 53A6
3FBC: 53C6
3FBD: 5084
3FBE: 503F
3FBF: 51A0
3FC0: 5174
3FC1: 4EB4
3FC2: 4E22
3FC3: 4FB8
3FC4: 4F64
3FC5: 4CA4
3FC6: 4C1E
3FC7: 4DC5
3FC8: 4D75
3FC9: 4AA5
3FCA: 4A57
3FCB: 4BDF
3FCC: 4BAD
3FCD: 4B19
3FCE: 48B0
3FCF: 485A
3FD0: 4832
3FD1: 49D5
3FD2: 4962
3FD3: 46D2
3FD4: 46AB
3FD5: 4600
3FD6: 47C3
3FD7: 47E5
3FD8: 4760
3FD9: 44CD
3FDA: 4491
3FDB: 4479
3FDC: 4464
3FDD: 45FE
3FDE: 45BF
3FDF: 457B
3FE0: 4520
3FE1: 42E7
3FE2: 42BF
3FE3: 4271
3FE4: 4264
3FE5: 43F9
3FE6: 4398
3FE7: 4340
3FE8: 4334
3FE9: 4321
3FEA: 40DF
3FEB: 4082
3FEC: 40B6
3FED: 401D
3FEE: 4064
3FEF: 401A
3FF0: 4074
3FF1: 41C1
3FF2: 41F8
3FF3: 4198
3FF4: 41E4
3FF5: 415B
3FF6: 4151
3FF7: 4170
3FF8: 4178
3FF9: 4111
3FFA: 415E
3FFB: 4147
3FFC: 414E
3FFD: 4109
3FFE: 4138
3FFF: 4130
4000: 4174
4001: 4133
4002: 413C
4003: 4132
4004: 412B
4005: 413F
4006: 4150
4007: 410A
4008: 4172
4009: 4125
400A: 4144
400B: 4145
400C: 41AD
400D: 418E
400E: 41B0
400F: 41C7
4010: 403B
4011: 401A
4012: 407D
4013: 401D
4014: 40AD
4015: 409E
4016: 4090
4017: 4324
4018: 4334
4019: 4349
401A: 4391
401B: 43FF
401C: 4223
401D: 4278
401E: 42F0
401F: 42F8
4020: 453B
4021: 4566
4022: 45B1
4023: 45F4
4024: 4427
4025: 442D
4026: 4494
4027: 44C0
4028: 4764
4029: 47AC
402A: 47D3
402B: 4619
402C: 46AD
402D: 46D3
402E: 4977
402F: 49D5
4030: 4820
4031: 485D
4032: 48F5
4033: 4B5D
4034: 4BAA
4035: 4BD8
4036: 4A5D
4037: 4AE7
4038: 4D71
4039: 4D97
403A: 4C50
403B: 4CEA
403C: 4F70
403D: 4FFA
403E: 4E7E
403F: 4ED0
4040: 513A
4041: 51BA
4042: 5022
4043: 50A9
4044: 532C
4045: 53C9
4046: 5215
4047: 5284
4048: 5567
4049: 55F1
404A: 5435
404B: 54DE
404C: 57AB
404D: 5608
404E: 56E4
404F: 595D
4050: 5850
4051: 5882
4052: 5B75
4053: 5BCE
4054: 5AB0
4055: 5D67
4056: 5DE6
4057: 5CA4
4058: 5F61
4059: 5FC9
405A: 5E84
405B: 612D
405C: 6008
405D: 60F2
405E: 63B3
405F: 627E
4060: 65D4
4061: 65CC
4062: 64BF
4063: 6768
4064: 6664
4065: 66EC
4066: 6982
4067: 6840
4068: 6B34
4069: 6A2C
406A: 6ADE
406B: 6DCD
406C: 6CA5
406D: 6F1D
406E: 6E77
406F: 7107
4070: 703D
4071: 70D1
4072: 73B0
4073: 7292
4074: 75A2
4075: 740D
4076: 7742
4077: 766A
4078: 797B
4079: 7808
407A: 7B03
407B: 7A6D
407C: 7D30
407D: 7C35
407E: 7F31
407F: 7E21
4080: 0174
4081: 0036
4082: 033F
4083: 0233
4084: 0530
4085: 043F
4086: 071F
4087: 0609
4088: 0934
4089: 0871
408A: 0B58
408B: 0A48
408C: 0DE4
408D: 0C99
408E: 0FFF
408F: 0EDA
4090: 1026
4091: 1355
4092: 1264
4093: 1552
4094: 14E4
4095: 1799
4096: 16D8
4097: 1820
4098: 1B34
4099: 1A53
409A: 1D91
409B: 1CF8
409C: 1E28
409D: 2169
409E: 20FE
409F: 239F
40A0: 255E
40A1: 2441
40A2: 27B8
40A3: 26F8
40A4: 2864
40A5: 2B6B
40A6: 2A9C
40A7: 2DCA
40A8: 2F7B
40A9: 2EB7
40AA: 3190
40AB: 3302
40AC: 32A2
40AD: 359D
40AE: 3764
40AF: 369D
40B0: 383D
40B1: 3B46
40B2: 3AB0
40B3: 3C0F
40B4: 3FAB
40B5: 3EC2
40B6: 405D
40B7: 43A5
40B8: 457D
40B9: 4496
40BA: 4650
40BB: 49AC
40BC: 4B64
40BD: 4AB1
40BE: 4C31
40BF: 4FA7
40C0: 5133
40C1: 50B0
40C2: 5270
40C3: 55B0
40C4: 572B
40C5: 56BE
40C6: 5811
40C7: 5B8C
40C8: 5D77
40C9: 5CA5
40CA: 5E54
40CB: 61C8
40CC: 63B4
40CD: 6514
40CE: 64F3
40CF: 6641
40D0: 683D
40D1: 6B9B
40D2: 6D77
40D3: 6C9D
40D4: 6EA5
40D5: 704D
40D6: 7397
40D7: 75E8
40D8: 7733
40D9: 7685
40DA: 7883
40DB: 7A74
40DC: 7C29
40DD: 7FFF
40DE: 01BF
40DF: 0379
40E0: 057A
40E1: 0490
40E2: 06BE
40E3: 0872
40E4: 0A36
40E5: 0DF9
40E6: 0F98
40E7: 1121
40E8: 1371
40E9: 1524
40EA: 14C3
40EB: 1699
40EC: 18C1
40ED: 1A4E
40EE: 1C7F
40EF: 1E00
40F0: 2020
40F1: 23DD
40F2: 2594
40F3: 278A
40F4: 29A1
40F5: 2B5E
40F6: 2D44
40F7: 2F0F
40F8: 3142
40F9: 3304
40FA: 3505
40FB: 3721
40FC: 3930
40FD: 3B7D
40FE: 3D1C
40FF: 3F3A
4100: 4137
4101: 433E
4102: 45D3
4103: 4704
4104: 492B
4105: 4B38
4106: 4D50
4107: 4F04
4108: 5166
4109: 5360
410A: 5510
410B: 5744
410C: 59AA
410D: 5BDD
410E: 5DF1
410F: 5F95
4110: 6033
4111: 6207
4112: 6479
4113: 6659
4114: 68E4
4115: 6A82
4116: 6CD6
4117: 7165
4118: 7366
4119: 754A
411A: 779F
411B: 79E0
411C: 7A37
411D: 7C3D
411E: 7EA4
411F: 00FD
4120: 0535
4121: 0761
4122: 09F0
4123: 0BFE
4124: 0C2B
4125: 0E63
4126: 1084
4127: 12D7
4128: 177B
4129: 19A9
412A: 1B90
412B: 1C19
412C: 1EAC
412D: 20D8
412E: 2530
412F: 2791
4130: 283B
4131: 2A5A
4132: 2CE2
4133: 315D
4134: 33B0
4135: 35C2
4136: 3610
4137: 38F1
4138: 3D7C
4139: 3F80
413A: 4050
413B: 42BB
413C: 4725
413D: 49A8
413E: 4A3C
413F: 4CA1
4140: 517A
4141: 53DF
4142: 545A
4143: 5689
4144: 5B2C
4145: 5DA8
4146: 5E50
4147: 6083
4148: 6578
4149: 67EA
414A: 685F
414B: 6ADF
414C: 6FE4
414D: 7012
414E: 72F6
414F: 7715
4150: 7820
4151: 7A9D
4152: 7F79
4153: 01CE
4154: 02E4
4155: 071F
4156: 09DF
4157: 0AAA
4158: 0F79
4159: 1185
415A: 1299
415B: 177E
415C: 1864
415D: 1AFC
415E: 1FF0
415F: 2079
4160: 2535
4161: 27E7
4162: 28B7
4163: 2D78
4164: 2E64
4165: 30E0
4166: 359F
4167: 3656
4168: 3B75
4169: 3C2C
416A: 3ED3
416B: 43CD
416C: 44A0
416D: 4958
416E: 4A60
416F: 4F1C
4170: 5037
4171: 52C1
4172: 57F9
4173: 5893
4174: 5DA3
4175: 5E0D
4176: 6344
4177: 646D
4178: 6971
4179: 6A45
417A: 6F1E
417B: 7038
417C: 7529
417D: 763F
417E: 7B35
417F: 7C27
4180: 0174
4181: 0272
4182: 0761
4183: 0865
4184: 0D63
4185: 0E63
4186: 1375
4187: 140B
4188: 197B
4189: 1A77
418A: 1F44
418B: 2045
418C: 25C1
418D: 268E
418E: 2BFF
418F: 2CC0
4190: 3020
4191: 351D
4192: 3614
4193: 3B4A
4194: 3CA1
4195: 419E
4196: 42C4
4197: 4654
4198: 4B42
4199: 4C44
419A: 5185
419B: 52E1
419C: 5630
419D: 5B3D
419E: 5C91
419F: 61FB
41A0: 6520
41A1: 6670
41A2: 6BB3
41A3: 6CF5
41A4: 7025
41A5: 7560
41A6: 7692
41A7: 7BC0
41A8: 7F66
41A9: 0055
41AA: 05E9
41AB: 0902
41AC: 0AB1
41AD: 0F9D
41AE: 1371
41AF: 1487
41B0: 1831
41B1: 1D15
41B2: 1EF9
41B3: 2213
41B4: 27E4
41B5: 28D9
41B6: 2C58
41B7: 31E0
41B8: 3534
41B9: 3684
41BA: 3A1E
41BB: 3FB9
41BC: 4321
41BD: 44BE
41BE: 4838
41BF: 4DB4
41C0: 5139
41C1: 52B7
41C2: 5635
41C3: 5BAF
41C4: 5F64
41C5: 60B9
41C6: 641F
41C7: 69C5
41C8: 6D75
41C9: 6EA5
41CA: 7257
41CB: 77DF
41CC: 7BAD
41CD: 7F19
41CE: 00B0
41CF: 045A
41D0: 0832
41D1: 0DD5
41D2: 1162
41D3: 12D2
41D4: 16AB
41D5: 1A00
41D6: 1FC3
41D7: 23E5
41D8: 2760
41D9: 28CD
41DA: 2C91
41DB: 3079
41DC: 3464
41DD: 39FE
41DE: 3DBF
41DF: 417B
41E0: 4520
41E1: 46E7
41E2: 4ABF
41E3: 4E71
41E4: 5264
41E5: 57F9
41E6: 5B98
41E7: 5F40
41E8: 6334
41E9: 6721
41EA: 68DF
41EB: 6C82
41EC: 70B6
41ED: 741D
41EE: 7864
41EF: 7C1A
41F0: 0074
41F1: 05C1
41F2: 09F8
41F3: 0D98
41F4: 11E4
41F5: 155B
41F6: 1951
41F7: 1D70
41F8: 2178
41F9: 2511
41FA: 295E
41FB: 2D6D
41FC: 3164
41FD: 3504
41FE: 393F
41FF: 3D20
4200: 4174
4201: 453B
4202: 493F
4203: 4D29
4204: 512D
4205: 552E
4206: 5915
4207: 5D45
4208: 6160
4209: 656D
420A: 6955
420B: 6D0D
420C: 71AA
420D: 7588
420E: 79FD
420F: 7DD7
4210: 0031
4211: 0407
4212: 0830
4213: 0C1A
4214: 10F6
4215: 14DF
4216: 1897
4217: 1F65
4218: 237D
4219: 2756
421A: 2BD0
421B: 2FEE
421C: 3225
421D: 366F
421E: 3AA6
421F: 3EF0
4220: 4530
4221: 4935
4222: 4DB9
4223: 51F3
4224: 5430
4225: 5862
4226: 5CD0
4227: 60D1
4228: 677C
4229: 6BA0
422A: 6F90
422B: 7202
422C: 76B6
422D: 7ADF
422E: 0137
422F: 0586
4230: 0874
4231: 0C45
4232: 10F5
4233: 1719
4234: 1BA1
4235: 1FDE
4236: 2244
4237: 26E4
4238: 2D78
4239: 31CB
423A: 3475
423B: 38A3
423C: 3F2B
423D: 43AF
423E: 4624
423F: 4ABD
4240: 5150
4241: 55B0
4242: 5831
4243: 5CAE
4244: 6330
4245: 67C8
4246: 6A03
4247: 6E8A
4248: 7561
4249: 79F1
424A: 7C58
424B: 00A7
424C: 0792
424D: 0A1C
424E: 0EE5
424F: 1559
4250: 1820
4251: 1CD5
4252: 235C
4253: 27D2
4254: 2AA7
4255: 3106
4256: 3530
4257: 389C
4258: 3F7B
4259: 43D0
425A: 46D0
425B: 4D6C
425C: 5036
425D: 54F8
425E: 5BF0
425F: 5E7C
4260: 653A
4261: 69B5
4262: 6CB1
4263: 733D
4264: 7623
4265: 7AFF
4266: 0199
4267: 0441
4268: 0B34
4269: 0E2A
426A: 12D6
426B: 19CD
426C: 1CB6
426D: 2352
426E: 267F
426F: 2D18
4270: 3027
4271: 3495
4272: 3BE4
4273: 3E95
4274: 45A5
4275: 4859
4276: 4F10
4277: 5266
4278: 597B
4279: 5C0B
427A: 6304
427B: 663F
427C: 6D2B
427D: 7031
427E: 7770
427F: 7A21
4280: 013C
4281: 0430
4282: 0B70
4283: 0E39
4284: 152B
4285: 1822
4286: 1F02
4287: 2245
4288: 2960
4289: 2C6A
428A: 3310
428B: 3659
428C: 3DAC
428D: 4098
428E: 47B0
428F: 4AC3
4290: 5035
4291: 5700
4292: 5A7C
4293: 6149
4294: 64EA
4295: 6BE7
4296: 6EBA
4297: 7411
4298: 7B7C
4299: 7E40
429A: 05D0
429B: 08EB
429C: 0E28
429D: 1572
429E: 18BF
429F: 1FE7
42A0: 2574
42A1: 287A
42A2: 2FB6
42A3: 32BD
42A4: 3830
42A5: 3F65
42A6: 4299
42A7: 49D6
42A8: 4F34
42A9: 52B7
42AA: 59DF
42AB: 5F02
42AC: 62A9
42AD: 699D
42AE: 6F79
42AF: 7286
42B0: 7874
42B1: 7F54
42B2: 02B0
42B3: 0811
42B4: 0FA5
42B5: 12DF
42B6: 1857
42B7: 1FE0
42B8: 2534
42B9: 2888
42BA: 2E1F
42BB: 35BE
42BC: 3B25
42BD: 3EB4
42BE: 4433
42BF: 4BF5
42C0: 5130
42C1: 54B0
42C2: 5A20
42C3: 61B4
42C4: 6727
42C5: 6AB9
42C6: 7019
42C7: 778B
42C8: 7D73
42C9: 00A5
42CA: 0651
42CB: 0D8D
42CC: 13E3
42CD: 1950
42CE: 1CB7
42CF: 2215
42D0: 2827
42D1: 2F8C
42D2: 357D
42D3: 38DF
42D4: 3EAB
42D5: 4401
42D6: 4B9E
42D7: 51C0
42D8: 577A
42D9: 5ACA
42DA: 6082
42DB: 6679
42DC: 6C2C
42DD: 7399
42DE: 79B5
42DF: 7F74
42E0: 0527
42E1: 08E1
42E2: 0ED4
42E3: 146A
42E4: 1A21
42E5: 21FE
42E6: 2784
42E7: 2D2F
42E8: 3342
42E9: 3924
42EA: 3CC5
42EB: 4281
42EC: 48B0
42ED: 4E1D
42EE: 545C
42EF: 5A1A
42F0: 6037
42F1: 67DE
42F2: 6D12
42F3: 73A4
42F4: 79AB
42F5: 7F58
42F6: 0510
42F7: 0B64
42F8: 1166
42F9: 1700
42FA: 1D50
42FB: 2324
42FC: 292A
42FD: 2F7D
42FE: 3531
42FF: 3B75
4300: 4133
4301: 4727
4302: 4D39
4303: 5339
4304: 5964
4305: 5F22
4306: 6516
4307: 6B45
4308: 7166
4309: 776A
430A: 7D5F
430B: 0340
430C: 09B7
430D: 0FDD
430E: 15E4
430F: 1BDD
4310: 2035
4311: 2601
4312: 2C30
4313: 325E
4314: 38AB
4315: 3E83
4316: 44C4
4317: 4D37
4318: 537B
4319: 5949
431A: 5FD0
431B: 65F9
431C: 6A2C
431D: 7078
431E: 76F0
431F: 7CF1
4320: 053B
4321: 0B7A
4322: 11A2
4323: 17BD
4324: 1C30
4325: 2262
4326: 28D0
4327: 2ED1
4328: 377C
4329: 3DA0
432A: 4390
432B: 481B
432C: 4EA5
432D: 54C8
432E: 5D7C
432F: 6381
4330: 687A
4331: 6E3F
4332: 749A
4333: 7D29
4334: 03AC
4335: 09C8
4336: 0E10
4337: 14E3
4338: 1D78
4339: 238A
433A: 281F
433B: 2EBF
433C: 3764
433D: 3DB2
433E: 4236
433F: 48F5
4340: 5120
4341: 57BD
4342: 5C39
4343: 62AE
4344: 6B64
4345: 71BF
4346: 761F
4347: 7C8A
4348: 0579
4349: 0BA5
434A: 1059
434B: 16DE
434C: 1FE4
434D: 241C
434E: 2AB0
434F: 3359
4350: 3835
4351: 3E87
4352: 4777
4353: 4DD8
4354: 52E4
4355: 5B00
4356: 61DF
4357: 66B6
4358: 6F75
4359: 75CC
435A: 7A93
435B: 032D
435C: 0820
435D: 0EF8
435E: 17A0
435F: 1C7C
4360: 2537
4361: 2BE1
4362: 30B9
4363: 3973
4364: 3E23
4365: 44AD
4366: 4D84
4367: 524D
4368: 5B71
4369: 6065
436A: 66DE
436B: 6F98
436C: 74A9
436D: 7D5F
436E: 0275
436F: 0B07
4370: 1074
4371: 1692
4372: 1FA9
4373: 24DA
4374: 2DEA
4375: 3228
4376: 3B5E
4377: 406A
4378: 4966
4379: 4E11
437A: 5718
437B: 5C49
437C: 6521
437D: 6A3C
437E: 7323
437F: 7821
4380: 0150
4381: 0622
4382: 0F35
4383: 142E
4384: 1D30
4385: 2247
4386: 2B26
4387: 3004
4388: 3961
4389: 3E69
438A: 4744
438B: 4C0D
438C: 5588
438D: 5A92
438E: 63F3
438F: 68DE
4390: 70D4
4391: 792C
4392: 7E7F
4393: 0748
4394: 0CE4
4395: 158C
4396: 1AC2
4397: 2220
4398: 2B34
4399: 304C
439A: 399E
439B: 3EAD
439C: 4625
439D: 4F3D
439E: 54B7
439F: 5DE7
43A0: 653D
43A1: 6A71
43A2: 73F0
43A3: 78F2
43A4: 0022
43A5: 092D
43A6: 0E82
43A7: 17CA
43A8: 1F7B
43A9: 24A8
43AA: 2DC3
43AB: 354D
43AC: 3AB0
43AD: 43D5
43AE: 4B71
43AF: 5081
43B0: 5874
43B1: 6156
43B2: 66FF
43B3: 6E13
43B4: 77B0
43B5: 7CDF
43B6: 045F
43B7: 0DE9
43B8: 1534
43B9: 1A91
43BA: 2218
43BB: 2BA8
43BC: 3364
43BD: 38B9
43BE: 403F
43BF: 49BA
43C0: 5126
43C1: 56F5
43C2: 5E24
43C3: 67B2
43C4: 6F64
43C5: 74B9
43C6: 7C18
43C7: 0580
43C8: 0D34
43C9: 12F3
43CA: 1A51
43CB: 23D8
43CC: 2BA8
43CD: 3309
43CE: 38BE
43CF: 403F
43D0: 485E
43D1: 51A1
43D2: 5978
43D3: 5ED8
43D4: 66E4
43D5: 6E0B
43D6: 77DC
43D7: 7FAA
43D8: 077B
43D9: 0CD7
43DA: 14D0
43DB: 1C62
43DC: 2422
43DD: 2DBD
43DE: 35A4
43DF: 3D7D
43E0: 453D
43E1: 4AE6
43E2: 52F0
43E3: 5A6F
43E4: 622B
43E5: 6BE2
43E6: 739D
43E7: 7B05
43E8: 037D
43E9: 0B36
43EA: 1090
43EB: 188C
43EC: 20E4
43ED: 2851
43EE: 3071
43EF: 3807
43F0: 4033
43F1: 49D0
43F2: 51B0
43F3: 5990
43F4: 61AB
43F5: 695E
43F6: 7151
43F7: 796C
43F8: 0177
43F9: 0945
43FA: 1114
43FB: 1928
43FC: 2134
43FD: 2934
43FE: 3133
43FF: 3921
4400: 413D
4401: 493B
4402: 5137
4403: 597D
4404: 6125
4405: 696D
4406: 7157
4407: 794F
4408: 0133
4409: 0925
440A: 1143
440B: 1954
440C: 21A9
440D: 299F
440E: 31FF
440F: 39D9
4410: 407A
4411: 4870
4412: 507E
4413: 5852
4414: 60B6
4415: 6899
4416: 70D8
4417: 7B41
4418: 0363
4419: 0B40
441A: 1383
441B: 1BF9
441C: 2241
441D: 2A4B
441E: 32B1
441F: 3AE0
4420: 4538
4421: 4D61
4422: 5504
4423: 5DC9
4424: 642C
4425: 6C64
4426: 7483
4427: 7C85
4428: 0762
4429: 0FA4
442A: 17C5
442B: 1E01
442C: 26B0
442D: 2E9D
442E: 3973
442F: 419A
4430: 483A
4431: 5041
4432: 58F1
4433: 6314
4434: 6BAA
4435: 73DE
4436: 7A10
4437: 02EC
4438: 0D7A
4439: 1586
443A: 1C02
443B: 24A8
443C: 2F20
443D: 37B4
443E: 3E32
443F: 46B9
4440: 5131
4441: 59F5
4442: 6022
4443: 68B4
4444: 7327
4445: 7BA5
4446: 0215
4447: 0A96
4448: 1535
4449: 1DA5
444A: 2410
444B: 2CFD
444C: 37AD
444D: 3E11
444E: 46F5
444F: 5146
4450: 5874
4451: 609A
4452: 6B76
4453: 739D
4454: 7AA3
4455: 0502
4456: 0DDC
4457: 14A1
4458: 1F34
4459: 27C4
445A: 2E9E
445B: 3969
445C: 4064
445D: 48ED
445E: 53BC
445F: 5A74
4460: 6520
4461: 6DFC
4462: 74BE
4463: 7F68
4464: 0629
4465: 0EAD
4466: 1993
4467: 204A
4468: 2B7D
4469: 322B
446A: 3AC3
446B: 45CD
446C: 4CB7
446D: 5748
446E: 5E62
446F: 6907
4470: 703B
4471: 78C0
4472: 03FE
4473: 0A99
4474: 15E4
4475: 1C54
4476: 275F
4477: 2E70
4478: 3938
4479: 4045
447A: 4B11
447B: 5223
447C: 5D20
447D: 647D
447E: 6F24
447F: 763D
4480: 0131
4481: 0875
4482: 1327
4483: 1A3C
4484: 2528
4485: 2C21
4486: 3703
4487: 3E45
4488: 4975
4489: 5077
448A: 5B55
448B: 620D
448C: 6DA5
448D: 7499
448E: 7FFF
448F: 06C7
4490: 103A
4491: 1B10
4492: 2274
4493: 2D1D
4494: 34B3
4495: 3F84
4496: 46C4
4497: 502D
4498: 5B34
4499: 6251
449A: 6D9F
449B: 74FD
449C: 7E25
449D: 0967
449E: 10B5
449F: 1BE6
44A0: 2578
44A1: 2C35
44A2: 37A2
44A3: 3EE8
44A4: 4826
44A5: 5364
44A6: 5A95
44A7: 65D6
44A8: 6F38
44A9: 76E5
44AA: 01C3
44AB: 0B0C
44AC: 12B4
44AD: 1DCD
44AE: 2778
44AF: 2E9C
44B0: 3826
44B1: 4350
44B2: 4AE3
44B3: 5451
44B4: 5FE4
44B5: 66C8
44B6: 705D
44B7: 7BE0
44B8: 0566
44B9: 0C84
44BA: 161C
44BB: 21A9
44BC: 2B37
44BD: 32F1
44BE: 3C70
44BF: 47BA
44C0: 5124
44C1: 58B4
44C2: 623C
44C3: 6DAE
44C4: 7768
44C5: 7EED
44C6: 0814
44C7: 138C
44C8: 1D78
44C9: 24EC
44CA: 2E44
44CB: 39C5
44CC: 43AD
44CD: 4D08
44CE: 54FD
44CF: 5E15
44D0: 6837
44D1: 7387
44D2: 7D69
44D3: 04CE
44D4: 0EB0
44D5: 180C
44D6: 23DC
44D7: 2DB6
44D8: 3738
44D9: 3E85
44DA: 4895
44DB: 5261
44DC: 5C21
44DD: 67EF
44DE: 71B9
44DF: 7B60
44E0: 0539
44E1: 0CB8
44E2: 16E1
44E3: 202C
44E4: 2A71
44E5: 35A1
44E6: 3FD0
44E7: 4944
44E8: 537A
44E9: 5D21
44EA: 6490
44EB: 6E98
44EC: 78AA
44ED: 0252
44EE: 0C72
44EF: 1601
44F0: 2035
44F1: 2BDC
44F2: 35FE
44F3: 3F94
44F4: 49B1
44F5: 5340
44F6: 5D1E
44F7: 6700
44F8: 7178
44F9: 7B00
44FA: 0511
44FB: 0F3B
44FC: 1921
44FD: 2342
44FE: 2D16
44FF: 3720
4500: 4139
4501: 4B37
4502: 553C
4503: 5F34
4504: 692A
4505: 732A
4506: 7D50
4507: 0704
4508: 1166
4509: 1B6A
450A: 2545
450B: 2F43
450C: 39A0
450D: 43DD
450E: 4DF9
450F: 57DB
4510: 6074
4511: 6A01
4512: 7478
4513: 7E58
4514: 08E4
4515: 1289
4516: 1CD1
4517: 2937
4518: 337F
4519: 3D4B
451A: 4795
451B: 51FE
451C: 5A37
451D: 647E
451E: 6E87
451F: 78FC
4520: 0520
4521: 0F7D
4522: 19BF
4523: 23E8
4524: 2C30
4525: 362D
4526: 4091
4527: 4A85
4528: 5767
4529: 61AA
452A: 6BC5
452B: 741F
452C: 7EA7
452D: 08D8
452E: 1530
452F: 1F9A
4530: 2832
4531: 3215
4532: 3CFC
4533: 4914
4534: 53A3
4535: 5DC5
4536: 6644
4537: 70A9
4538: 7D34
4539: 079C
453A: 101F
453B: 1AB8
453C: 2764
453D: 31B5
453E: 3A31
453F: 44A3
4540: 5131
4541: 5BF5
4542: 6432
4543: 6EB8
4544: 7B27
4545: 05A2
4546: 0E1D
4547: 1880
4548: 2534
4549: 2FED
454A: 385F
454B: 42DD
454C: 4FA1
454D: 5811
454E: 62F5
454F: 6F46
4550: 7827
4551: 0299
4552: 0F69
4553: 199D
4554: 22A8
4555: 2F02
4556: 39C3
4557: 42B1
4558: 4F34
4559: 59C4
455A: 629E
455B: 6F69
455C: 7864
455D: 02FC
455E: 0FA2
455F: 1870
4560: 2574
4561: 2FF3
4562: 38A5
4563: 4570
4564: 4E26
4565: 58E1
4566: 6599
4567: 6E4B
4568: 7B73
4569: 0465
456A: 0ED1
456B: 1B9F
456C: 24AB
456D: 3148
456E: 3A7E
456F: 4711
4570: 5074
4571: 5ADC
4572: 67FE
4573: 70DD
4574: 7DB0
4575: 0645
4576: 1355
4577: 1C25
4578: 2970
4579: 3204
457A: 3F02
457B: 4826
457C: 552A
457D: 5E38
457E: 6B23
457F: 7426
4580: 017A
4581: 0A52
4582: 1736
4583: 2032
4584: 2D36
4585: 363A
4586: 4311
4587: 4C17
4588: 5970
4589: 6201
458A: 6F52
458B: 784C
458C: 05A7
458D: 0E96
458E: 1B8F
458F: 24F3
4590: 3021
4591: 3D18
4592: 4672
4593: 5351
4594: 5CAD
4595: 6983
4596: 72D7
4597: 7E65
4598: 0B75
4599: 1457
459A: 219F
459B: 2AF8
459C: 362A
459D: 4379
459E: 4CF0
459F: 59FC
45A0: 653A
45A1: 6E35
45A2: 7BA4
45A3: 04F5
45A4: 1021
45A5: 1D2D
45A6: 2694
45A7: 33C4
45A8: 3F66
45A9: 48AE
45AA: 55DE
45AB: 6108
45AC: 6AB7
45AD: 77CE
45AE: 034E
45AF: 0CAC
45B0: 183B
45B1: 2540
45B2: 2EB0
45B3: 3A1E
45B4: 47A5
45B5: 50C3
45B6: 5C17
45B7: 69F1
45B8: 7534
45B9: 7E96
45BA: 0A15
45BB: 17A8
45BC: 2329
45BD: 2CFD
45BE: 3824
45BF: 45BA
45C0: 5174
45C1: 5AB3
45C2: 6639
45C3: 73B3
45C4: 7F20
45C5: 08ED
45C6: 1409
45C7: 218A
45C8: 2D61
45C9: 36F7
45CA: 4210
45CB: 4FDA
45CC: 5BA5
45CD: 6704
45CE: 70BE
45CF: 7C15
45D0: 0874
45D1: 15BD
45D2: 217F
45D3: 2ACA
45D4: 36A1
45D5: 421B
45D6: 4FD5
45D7: 5BB7
45D8: 6738
45D9: 7085
45DA: 7C89
45DB: 0862
45DC: 1431
45DD: 21BD
45DE: 2DB4
45DF: 397A
45E0: 4574
45E1: 4EE1
45E2: 5AB8
45E3: 6674
45E4: 722A
45E5: 7FE6
45E6: 0BD0
45E7: 175C
45E8: 237B
45E9: 2F30
45EA: 3890
45EB: 4485
45EC: 50A1
45ED: 5C5C
45EE: 6862
45EF: 7455
45F0: 0038
45F1: 0DDA
45F2: 19E7
45F3: 25DD
45F4: 31A3
45F5: 3D5F
45F6: 495F
45F7: 5572
45F8: 6178
45F9: 6D0C
45FA: 791E
45FB: 052A
45FC: 1164
45FD: 1D34
45FE: 293E
45FF: 3575
4600: 4120
4601: 4D3D
4602: 5935
4603: 657D
4604: 7120
4605: 7D24
4606: 0903
4607: 1511
4608: 2175
4609: 2D6B
460A: 3953
460B: 4548
460C: 51EA
460D: 5DFE
460E: 69E2
460F: 75C0
4610: 003A
4611: 0C7E
4612: 1879
4613: 2453
4614: 30B2
4615: 3C88
4616: 48C3
4617: 5731
4618: 637D
4619: 6F42
461A: 7B91
461B: 07F9
461C: 1221
461D: 1E0C
461E: 2A80
461F: 36F4
4620: 453A
4621: 517C
4622: 5DB3
4623: 69F6
4624: 7421
4625: 0069
4626: 0CD0
4627: 18C4
4628: 277A
4629: 33A1
462A: 3F90
462B: 4A01
462C: 56AB
462D: 62CE
462E: 7164
462F: 7DBC
4630: 0800
4631: 145D
4632: 20F5
4633: 2F5D
4634: 3BA3
4635: 47DF
4636: 525F
4637: 5EF2
4638: 6D78
4639: 798C
463A: 041E
463B: 10AA
463C: 1F64
463D: 2BB4
463E: 3623
463F: 42F5
4640: 5133
4641: 5DB0
4642: 6824
4643: 74A9
4644: 032D
4645: 0FA3
4646: 1A17
4647: 26C5
4648: 3578
4649: 41EA
464A: 4C45
464B: 58C9
464C: 67A1
464D: 720F
464E: 7EBE
464F: 0D15
4650: 1874
4651: 24B1
4652: 3379
4653: 3FD9
4654: 4AE4
4655: 5924
4656: 6590
4657: 70A8
4658: 7F71
4659: 0BCB
465A: 1684
465B: 2564
465C: 302B
465D: 3CF3
465E: 4BF0
465F: 5661
4660: 653C
4661: 71F0
4662: 7CA2
4663: 0B78
4664: 1664
4665: 22EC
4666: 3182
4667: 3C40
4668: 4B34
4669: 5602
466A: 62C2
466B: 7198
466C: 7CA1
466D: 0B4E
466E: 1630
466F: 2511
4670: 303B
4671: 3CC2
4672: 4BFE
4673: 56DD
4674: 65AC
4675: 7048
4676: 7F42
4677: 0A60
4678: 192B
4679: 2466
467A: 3302
467B: 3E38
467C: 4D2A
467D: 5859
467E: 6727
467F: 7234
4680: 013D
4681: 0C21
4682: 1B54
4683: 2635
4684: 352D
4685: 4029
4686: 4F15
4687: 5A60
4688: 6971
4689: 7464
468A: 0344
468B: 0E48
468C: 1DAA
468D: 28FD
468E: 3796
468F: 42C1
4690: 5035
4691: 5F17
4692: 6A7C
4693: 7958
4694: 04B0
4695: 1365
4696: 1EE4
4697: 2C2D
4698: 3B71
4699: 4605
469A: 5584
469B: 60EC
469C: 6E26
469D: 7D71
469E: 08B5
469F: 17E1
46A0: 2574
46A1: 3066
46A2: 3FB5
46A3: 4AF8
46A4: 5829
46A5: 677E
46A6: 72D0
46A7: 01C4
46A8: 0F64
46A9: 1AB5
46AA: 29C2
46AB: 3702
46AC: 42B4
46AD: 51CF
46AE: 5F79
46AF: 6A94
46B0: 7820
46B1: 0750
46B2: 12B0
46B3: 201B
46B4: 2FAB
46B5: 3ADF
46B6: 4810
46B7: 57F0
46B8: 6567
46B9: 7080
46BA: 7E50
46BB: 0DAC
46BC: 1B37
46BD: 26FD
46BE: 3431
46BF: 43F5
46C0: 5123
46C1: 5CA7
46C2: 6A39
46C3: 79A9
46C4: 072D
46C5: 12A3
46C6: 2017
46C7: 2FC5
46C8: 3D67
46C9: 48F0
46CA: 5642
46CB: 65CB
46CC: 73A5
46CD: 011E
46CE: 0CF5
46CF: 1A15
46D0: 2836
46D1: 3780
46D2: 4564
46D3: 509D
46D4: 5EAD
46D5: 6C1E
46D6: 7B90
46D7: 09B0
46D8: 177A
46D9: 22C3
46DA: 309F
46DB: 3E7F
46DC: 4C30
46DD: 5BE8
46DE: 69BE
46DF: 7774
46E0: 0520
46E1: 10F0
46E2: 1EBC
46E3: 2C64
46E4: 3A64
46E5: 49EF
46E6: 579C
46E7: 6544
46E8: 737A
46E9: 012E
46EA: 0C9E
46EB: 1ACD
46EC: 28E4
46ED: 366D
46EE: 4475
46EF: 5207
46F0: 603C
46F1: 6FD4
46F2: 7DE0
46F3: 0B8E
46F4: 19E4
46F5: 2754
46F6: 355F
46F7: 4370
46F8: 5134
46F9: 5F16
46FA: 6D18
46FB: 7B22
46FC: 0931
46FD: 1731
46FE: 2534
46FF: 3375
4700: 4101
4701: 4F06
4702: 5D15
4703: 6B7D
4704: 792D
4705: 0739
4706: 1550
4707: 2304
4708: 3167
4709: 3F25
470A: 4D51
470B: 5B0D
470C: 69B3
470D: 778F
470E: 05F9
470F: 13C1
4710: 203D
4711: 2E1B
4712: 3C77
4713: 4A1D
4714: 58B7
4715: 6698
4716: 74C2
4717: 0523
4718: 1375
4719: 2146
471A: 2F95
471B: 3DA3
471C: 4A6A
471D: 5833
471E: 66DD
471F: 74F0
4720: 0539
4721: 1365
4722: 21A4
4723: 2FE4
4724: 3C64
4725: 4A61
4726: 5891
4727: 66CB
4728: 7760
4729: 05A0
472A: 13C2
472B: 2003
472C: 2EBF
472D: 3CE9
472E: 4D78
472F: 5B90
4730: 6874
4731: 7659
4732: 04F1
4733: 1513
4734: 23B0
4735: 31C8
4736: 3E42
4737: 4CEB
4738: 5D34
4739: 6B96
473A: 7815
473B: 06A8
473C: 1729
473D: 25AE
473E: 3270
473F: 40A1
4740: 513B
4741: 5FF5
4742: 6C38
4743: 7ABC
4744: 0B32
4745: 19A8
4746: 2650
4747: 3494
4748: 4561
4749: 53EC
474A: 6044
474B: 6EC8
474C: 7FE4
474D: 0C1C
474E: 1AB0
474F: 2B57
4750: 383D
4751: 4681
4752: 5730
4753: 65D2
4754: 72A2
4755: 034D
4756: 11C7
4757: 1EA0
4758: 2F75
4759: 3DD7
475A: 4AD0
475B: 5B6F
475C: 6831
475D: 76E9
475E: 07F0
475F: 1474
4760: 2524
4761: 33E5
4762: 40B5
4763: 517C
4764: 5E36
4765: 6CFE
4766: 7DD0
4767: 0A4A
4768: 1B60
4769: 282D
476A: 36D5
476B: 479F
476C: 54B3
476D: 6554
476E: 7263
476F: 0310
4770: 1074
4771: 1ED3
4772: 2FE5
4773: 3C93
4774: 4DA7
4775: 5A59
4776: 6B59
4777: 786A
4778: 097A
4779: 1604
477A: 271C
477B: 3463
477C: 4564
477D: 527D
477E: 6319
477F: 7021
4780: 0174
4781: 0E3C
4782: 1F23
4783: 2C71
4784: 3D64
4785: 4A25
4786: 5B1F
4787: 6812
4788: 7971
4789: 0673
478A: 1755
478B: 245F
478C: 35E8
478D: 42DD
478E: 53E3
478F: 60D4
4790: 7030
4791: 0155
4792: 0E64
4793: 1F55
4794: 2CA5
4795: 3D99
4796: 4A90
4797: 5A2C
4798: 6B60
4799: 7805
479A: 0999
479B: 16FE
479C: 2664
479D: 3772
479E: 44A5
479F: 55E1
47A0: 6574
47A1: 727A
47A2: 03B6
47A3: 10BD
47A4: 202B
47A5: 3164
47A6: 3E9C
47A7: 4F8B
47A8: 5F13
47A9: 6CA9
47AA: 7DD1
47AB: 0D03
47AC: 1AB0
47AD: 2BD8
47AE: 3B62
47AF: 489B
47B0: 5827
47B1: 6961
47B2: 76F8
47B3: 0618
47B4: 17E4
47B5: 24C1
47B6: 3451
47B7: 45EB
47B8: 5560
47B9: 6280
47BA: 7202
47BB: 03A3
47BC: 1364
47BD: 20AE
47BE: 3035
47BF: 41B0
47C0: 5139
47C1: 5EA6
47C2: 6E70
47C3: 7FA9
47C4: 0F2B
47C5: 1CED
47C6: 2C18
47C7: 3D84
47C8: 4D62
47C9: 5AE0
47CA: 6A10
47CB: 7BDC
47CC: 0BB1
47CD: 1B14
47CE: 28E4
47CF: 3850
47D0: 4874
47D1: 5994
47D2: 6930
47D3: 76DF
47D4: 06AD
47D5: 1619
47D6: 2790
47D7: 37AA
47D8: 4772
47D9: 5485
47DA: 6487
47DB: 7468
47DC: 0425
47DD: 15EF
47DE: 25F0
47DF: 3577
47E0: 4521
47E1: 52E1
47E2: 62F0
47E3: 727C
47E4: 0234
47E5: 13FD
47E6: 2395
47E7: 3344
47E8: 4366
47E9: 5336
47EA: 6090
47EB: 7082
47EC: 00B0
47ED: 1055
47EE: 2075
47EF: 3007
47F0: 4023
47F1: 51DC
47F2: 61E3
47F3: 7198
47F4: 01E4
47F5: 114B
47F6: 2145
47F7: 316B
47F8: 4177
47F9: 5111
47FA: 6119
47FB: 7122
47FC: 012A
47FD: 113C
47FE: 213C
47FF: 317B
4800: 4174
4801: 5175
4802: 6119
4803: 7129
4804: 0164
4805: 1124
4806: 2103
4807: 3145
4808: 417B
4809: 5163
480A: 6156
480B: 710D
480C: 01A6
480D: 1188
480E: 21E4
480F: 3195
4810: 403C
4811: 5014
4812: 6060
4813: 704D
4814: 00AD
4815: 1081
4816: 20C9
4817: 3365
4818: 4372
4819: 5350
481A: 639C
481B: 73E1
481C: 0264
481D: 1272
481E: 22B6
481F: 32B5
4820: 453B
4821: 557C
4822: 65BC
4823: 75B3
4824: 044F
4825: 1461
4826: 2499
4827: 34D1
4828: 4734
4829: 57A9
482A: 67D1
482B: 7603
482C: 06B0
482D: 16D8
482E: 2962
482F: 399B
4830: 4803
4831: 5861
4832: 68F8
4833: 7B18
4834: 0BE4
4835: 1BC1
4836: 2A51
4837: 3AEB
4838: 4D60
4839: 5D80
483A: 6C02
483B: 7CA3
483C: 0F64
483D: 1FAE
483E: 2E35
483F: 3EB0
4840: 5139
4841: 61A6
4842: 7070
4843: 00A9
4844: 132B
4845: 23ED
4846: 3218
4847: 4284
4848: 5562
4849: 65E0
484A: 7410
484B: 04DC
484C: 17B1
484D: 2614
484E: 36E4
484F: 4950
4850: 5874
4851: 6894
4852: 7B30
4853: 0BDF
4854: 1AAD
4855: 2D19
4856: 3D90
4857: 4CAA
4858: 5F72
4859: 6F85
485A: 7E87
485B: 1168
485C: 2025
485D: 30EF
485E: 43FE
485F: 5235
4860: 6574
4861: 75DC
4862: 04A4
4863: 173D
4864: 262D
4865: 36FE
4866: 49D0
4867: 5849
4868: 6B7D
4869: 7A31
486A: 0A90
486B: 1D8C
486C: 2CAA
486D: 3F59
486E: 4E30
486F: 6105
4870: 7026
4871: 00DA
4872: 13F4
4873: 2288
4874: 35A7
4875: 4444
4876: 575E
4877: 6662
4878: 7934
4879: 0804
487A: 1B50
487B: 2A2F
487C: 3D36
487D: 4C34
487E: 5F37
487F: 6E3D
4880: 0120
4881: 1075
4882: 233C
4883: 3234
4884: 4523
4885: 5425
4886: 6704
4887: 764B
4888: 0917
4889: 1866
488A: 2B51
488B: 3A43
488C: 4DE9
488D: 5CA9
488E: 6FF8
488F: 7EDC
4890: 1027
4891: 2355
4892: 3273
4893: 455C
4894: 54AA
4895: 67CD
4896: 76D9
4897: 0836
4898: 1B34
4899: 2A43
489A: 3D85
489B: 4CE1
489C: 5E28
489D: 713D
489E: 00BF
489F: 13F3
48A0: 2574
48A1: 347D
48A2: 47B9
48A3: 56FA
48A4: 682C
48A5: 7B20
48A6: 0A81
48A7: 1DD0
48A8: 2F75
48A9: 3EA9
48AA: 51D9
48AB: 6319
48AC: 72BD
48AD: 059D
48AE: 177C
48AF: 2694
48B0: 383A
48B1: 4B41
48B2: 5AF5
48B3: 6C0F
48B4: 7FAA
48B5: 0E8D
48B6: 205F
48B7: 33EC
48B8: 4578
48B9: 54CB
48BA: 6678
48BB: 79BF
48BC: 0B21
48BD: 1AB9
48BE: 2C70
48BF: 3FB6
48C0: 513B
48C1: 60BC
48C2: 723E
48C3: 05E2
48C4: 1710
48C5: 26A5
48C6: 3819
48C7: 4B96
48C8: 5D34
48C9: 6CE6
48CA: 7E5F
48CB: 11C4
48CC: 23AA
48CD: 355D
48CE: 44F9
48CF: 5646
48D0: 6874
48D1: 7B98
48D2: 0D71
48D3: 1CD9
48D4: 2EA1
48D5: 404D
48D6: 53DF
48D7: 65A3
48D8: 7734
48D9: 06C4
48DA: 18D0
48DB: 2A7F
48DC: 3C21
48DD: 4FF9
48DE: 61F0
48DF: 7378
48E0: 0531
48E1: 14E1
48E2: 26B1
48E3: 3871
48E4: 4A6A
48E5: 5DAD
48E6: 6FD0
48E7: 016C
48E8: 1360
48E9: 2565
48EA: 34D8
48EB: 468C
48EC: 58B7
48ED: 6A1D
48EE: 7C64
48EF: 0E02
48F0: 203B
48F1: 3395
48F2: 45F4
48F3: 5792
48F4: 69B0
48F5: 7B5E
48F6: 0D10
48F7: 1F6A
48F8: 317A
48F9: 4345
48FA: 551F
48FB: 6723
48FC: 7921
48FD: 0B7D
48FE: 1D23
48FF: 2F3C
4900: 4130
4901: 5330
4902: 657E
4903: 7750
4904: 0927
4905: 1B22
4906: 2D02
4907: 3F17
4908: 517B
4909: 6361
490A: 7555
490B: 0749
490C: 19E4
490D: 2B9E
490E: 3DFF
490F: 4FDC
4910: 603A
4911: 724A
4912: 0444
4913: 1655
4914: 28AD
4915: 3A9E
4916: 4C90
4917: 6126
4918: 737B
4919: 054C
491A: 179E
491B: 29AD
491C: 3A2D
491D: 4C6E
491E: 5EF0
491F: 70E6
4920: 053B
4921: 1778
4922: 29B5
4923: 3BEA
4924: 4C2C
4925: 5E6C
4926: 7084
4927: 0285
4928: 1777
4929: 29AA
492A: 3BC2
492B: 4C1F
492C: 5EAB
492D: 70D9
492E: 0575
492F: 1791
4930: 287A
4931: 3A15
4932: 4CB0
4933: 6134
4934: 73B0
4935: 058D
4936: 1658
4937: 28E4
4938: 3D67
4939: 4FC5
493A: 6011
493B: 72ED
493C: 0730
493D: 19AF
493E: 2A39
493F: 3CB4
4940: 513A
4941: 63B2
4942: 743C
4943: 06B8
4944: 1B64
4945: 2DA2
4946: 3E1E
4947: 50C5
4948: 657B
4949: 77EB
494A: 0855
494B: 1A8D
494C: 2FB7
494D: 4014
494E: 52F4
494F: 6750
4950: 787A
4951: 0AFF
4952: 1F63
4953: 31D5
4954: 42AD
4955: 5703
4956: 69C9
4957: 7AE5
4958: 0F77
4959: 21CA
495A: 3299
495B: 4763
495C: 5803
495D: 6AC9
495E: 7FB8
495F: 107C
4960: 2527
4961: 37B5
4962: 48B3
4963: 5D72
4964: 6E2D
4965: 00E3
4966: 15D0
4967: 264C
4968: 3B67
4969: 4C65
496A: 5EC3
496B: 7382
496C: 04A9
496D: 1958
496E: 2A78
496F: 3F1A
4970: 5023
4971: 6295
4972: 77E3
4973: 0889
4974: 1DAD
4975: 2E41
4976: 435C
4977: 5425
4978: 6965
4979: 7A10
497A: 0F19
497B: 2039
497C: 3521
497D: 467D
497E: 5B23
497F: 6C3D
4980: 013D
4981: 123B
4982: 2729
4983: 3873
4984: 4D64
4985: 5E6D
4986: 7339
4987: 0411
4988: 1934
4989: 2A6D
498A: 3F51
498B: 505E
498C: 65E4
498D: 769C
498E: 0BB0
498F: 1CC5
4990: 3031
4991: 451B
4992: 5664
4993: 6B5C
4994: 7CA3
4995: 1182
4996: 22DE
4997: 3665
4998: 4B7B
4999: 5C4B
499A: 71D0
499B: 02E2
499C: 162A
499D: 2B78
499E: 3CF0
499F: 51E6
49A0: 653D
49A1: 7671
49A2: 0BB5
49A3: 1CB3
49A4: 3048
49A5: 456E
49A6: 569F
49A7: 6BCB
49A8: 7F77
49A9: 10A4
49AA: 25C6
49AB: 3908
49AC: 4AE4
49AD: 5FDE
49AE: 737F
49AF: 049C
49B0: 183A
49B1: 2D62
49B2: 3EC4
49B3: 5215
49B4: 67AD
49B5: 78DE
49B6: 0C10
49B7: 21E6
49B8: 357B
49B9: 468C
49BA: 5A1E
49BB: 6FED
49BC: 032D
49BD: 14AE
49BE: 2870
49BF: 3DA6
49C0: 5138
49C1: 62BC
49C2: 7637
49C3: 0BB5
49C4: 1F30
49C5: 30A1
49C6: 4409
49C7: 59C5
49C8: 6D66
49C9: 7EEA
49CA: 1245
49CB: 27C3
49CC: 3BA0
49CD: 4F18
49CE: 60F4
49CF: 7419
49D0: 0874
49D1: 1D94
49D2: 317C
49D3: 42D0
49D4: 56AB
49D5: 6A1E
49D6: 7FC4
49D7: 13E5
49D8: 2778
49D9: 38CC
49DA: 4C9B
49DB: 6068
49DC: 7464
49DD: 09FC
49DE: 1DF0
49DF: 3161
49E0: 453D
49E1: 56FB
49E2: 6AA9
49E3: 7E3D
49E4: 1226
49E5: 27E2
49E6: 3B87
49E7: 4F49
49E8: 633A
49E9: 7765
49EA: 0890
49EB: 1CA4
49EC: 30B0
49ED: 441D
49EE: 5878
49EF: 6C14
49F0: 0027
49F1: 1595
49F2: 29E3
49F3: 3D98
49F4: 51B2
49F5: 6548
49F6: 795E
49F7: 0D25
49F8: 2170
49F9: 350A
49FA: 4904
49FB: 5D3E
49FC: 7164
49FD: 0532
49FE: 193E
49FF: 2D75
4A00: 413B
4A01: 553B
4A02: 6935
4A03: 7D7D
4A04: 1137
4A05: 2524
4A06: 3914
4A07: 4D00
4A08: 613A
4A09: 750C
4A0A: 0952
4A0B: 1D41
4A0C: 31B1
4A0D: 4598
4A0E: 59B0
4A0F: 6DD6
4A10: 003B
4A11: 141C
4A12: 287E
4A13: 3C7C
4A14: 5090
4A15: 6485
4A16: 78D9
4A17: 0F36
4A18: 2334
4A19: 3746
4A1A: 4B9F
4A1B: 5FE4
4A1C: 722A
4A1D: 063D
4A1E: 1AB9
4A1F: 2EE6
4A20: 4574
4A21: 5978
4A22: 6DB1
4A23: 01F9
4A24: 1421
4A25: 282D
4A26: 3C9F
4A27: 50C3
4A28: 6734
4A29: 7BA4
4A2A: 0F90
4A2B: 220F
4A2C: 36A8
4A2D: 4AC8
4A2E: 6175
4A2F: 75D5
4A30: 0839
4A31: 1C50
4A32: 30E4
4A33: 471C
4A34: 5BA8
4A35: 6F83
4A36: 0210
4A37: 16A5
4A38: 2D5D
4A39: 4191
4A3A: 5450
4A3B: 68A5
4A3C: 7F25
4A3D: 13AE
4A3E: 2670
4A3F: 3ABB
4A40: 513D
4A41: 65BB
4A42: 7835
4A43: 0CFD
4A44: 2320
4A45: 37A2
4A46: 4A04
4A47: 5E96
4A48: 7534
4A49: 09EA
4A4A: 1C5E
4A4B: 308D
4A4C: 47AB
4A4D: 5A13
4A4E: 6EF5
4A4F: 0515
4A50: 1827
4A51: 2C9C
4A52: 4374
4A53: 57D8
4A54: 6AEA
4A55: 0167
4A56: 15C4
4A57: 28A0
4A58: 3F78
4A59: 53C0
4A5A: 6680
4A5B: 7D62
4A5C: 1036
4A5D: 24E9
4A5E: 3BB5
4A5F: 4E67
4A60: 651C
4A61: 79C1
4A62: 0CB8
4A63: 2374
4A64: 3637
4A65: 4AAD
4A66: 6183
4A67: 7448
4A68: 0B75
4A69: 1E29
4A6A: 32DC
4A6B: 49CD
4A6C: 5CA0
4A6D: 7358
4A6E: 0666
4A6F: 1D1C
4A70: 3037
4A71: 44D0
4A72: 5BB0
4A73: 6E95
4A74: 05A5
4A75: 185E
4A76: 2F10
4A77: 4264
4A78: 5934
4A79: 6C07
4A7A: 0305
4A7B: 1639
4A7C: 2D30
4A7D: 4032
4A7E: 573E
4A7F: 6A75
4A80: 013B
4A81: 143B
4A82: 2B70
4A83: 3E34
4A84: 5530
4A85: 686D
4A86: 7F11
4A87: 120B
4A88: 2970
4A89: 3C25
4A8A: 5342
4A8B: 6648
4A8C: 7DA5
4A8D: 1099
4A8E: 27E3
4A8F: 3A95
4A90: 5076
4A91: 6701
4A92: 7A75
4A93: 1151
4A94: 24A1
4A95: 3B9D
4A96: 4EDF
4A97: 6437
4A98: 7B60
4A99: 0E40
4A9A: 2582
4A9B: 38AF
4A9C: 4E64
4A9D: 6572
4A9E: 78BE
4A9F: 0FB5
4AA0: 2520
4AA1: 387D
4AA2: 4FB5
4AA3: 62BD
4AA4: 7837
4AA5: 0F64
4AA6: 2294
4AA7: 39C0
4AA8: 4F3A
4AA9: 62C8
4AAA: 79D2
4AAB: 0F18
4AAC: 22B7
4AAD: 39D4
4AAE: 4F7E
4AAF: 6290
4AB0: 7827
4AB1: 0F46
4AB2: 22B0
4AB3: 381E
4AB4: 4FA5
4AB5: 62DF
4AB6: 7854
4AB7: 0FC5
4AB8: 2540
4AB9: 388D
4ABA: 4E19
4ABB: 65BE
4ABC: 7B64
4ABD: 0EBF
4ABE: 2425
4ABF: 3BA6
4AC0: 513D
4AC1: 64BB
4AC2: 7A35
4AC3: 11AE
4AC4: 2737
4AC5: 3AED
4AC6: 5013
4AC7: 6784
4AC8: 7D66
4AC9: 10E1
4ACA: 2610
4ACB: 3DC5
4ACC: 53A5
4ACD: 690E
4ACE: 7CB0
4ACF: 1217
4AD0: 2827
4AD1: 3F8C
4AD2: 557E
4AD3: 68DC
4AD4: 7EA7
4AD5: 1402
4AD6: 2BC2
4AD7: 41EB
4AD8: 5777
4AD9: 6ACA
4ADA: 009D
4ADB: 162F
4ADC: 2C64
4ADD: 43ED
4ADE: 59A2
4ADF: 6F7C
4AE0: 053A
4AE1: 18E1
4AE2: 2EB5
4AE3: 4479
4AE4: 5A64
4AE5: 71E4
4AE6: 079E
4AE7: 1D05
4AE8: 3366
4AE9: 4920
4AEA: 5CD4
4AEB: 72CD
4AEC: 08AB
4AED: 1E53
4AEE: 3430
4AEF: 4A1A
4AF0: 603A
4AF1: 77D0
4AF2: 0DB0
4AF3: 238E
4AF4: 39AD
4AF5: 4F49
4AF6: 6555
4AF7: 7B2B
4AF8: 1117
4AF9: 270A
4AFA: 3D02
4AFB: 532F
4AFC: 6979
4AFD: 7F09
4AFE: 1538
4AFF: 2B3C
4B00: 4127
4B01: 5775
4B02: 6D39
4B03: 032E
4B04: 1964
4B05: 2F2C
4B06: 4550
4B07: 5B06
4B08: 7178
4B09: 0760
4B0A: 1D51
4B0B: 335F
4B0C: 49E4
4B0D: 5F9A
4B0E: 75FC
4B0F: 0BD4
4B10: 2027
4B11: 3606
4B12: 4C30
4B13: 624E
4B14: 78B4
4B15: 0E85
4B16: 24D5
4B17: 3D37
4B18: 5371
4B19: 6905
4B1A: 7F91
4B1B: 15EF
4B1C: 2A2B
4B1D: 4068
4B1E: 56A4
4B1F: 6CB5
4B20: 0520
4B21: 1B7D
4B22: 31B5
4B23: 47BD
4B24: 5C37
4B25: 7264
4B26: 088A
4B27: 1EC0
4B28: 3734
4B29: 4DAA
4B2A: 63D6
4B2B: 784D
4B2C: 0EA5
4B2D: 249D
4B2E: 3D64
4B2F: 5390
4B30: 683A
4B31: 7E5B
4B32: 14F9
4B33: 2D0E
4B34: 43E4
4B35: 59CF
4B36: 6E51
4B37: 04E9
4B38: 1D78
4B39: 33CB
4B3A: 4876
4B3B: 5EA0
4B3C: 772D
4B3D: 0DAF
4B3E: 2222
4B3F: 38BA
4B40: 5126
4B41: 67A3
4B42: 7C04
4B43: 12B5
4B44: 2B2D
4B45: 41BE
4B46: 5650
4B47: 6C8C
4B48: 0567
4B49: 1BA5
4B4A: 3051
4B4B: 468D
4B4C: 5FB6
4B4D: 741C
4B4E: 0AE4
4B4F: 235D
4B50: 3831
4B51: 4E87
4B52: 6730
4B53: 7DD0
4B54: 12B1
4B55: 2B03
4B56: 41D4
4B57: 56A4
4B58: 6F7A
4B59: 05C0
4B5A: 1AD0
4B5B: 3365
4B5C: 4825
4B5D: 5EF3
4B5E: 77B4
4B5F: 0C38
4B60: 253C
4B61: 3BF0
4B62: 50BC
4B63: 6979
4B64: 7E64
4B65: 14E0
4B66: 2D99
4B67: 4257
4B68: 5B66
4B69: 702A
4B6A: 06C2
4B6B: 1FCD
4B6C: 34A2
4B6D: 4D4F
4B6E: 627F
4B6F: 7B18
4B70: 1074
4B71: 26C1
4B72: 3FF8
4B73: 5498
4B74: 6DE4
4B75: 0242
4B76: 1B44
4B77: 306D
4B78: 4971
4B79: 5E17
4B7A: 7707
4B7B: 0C24
4B7C: 2537
4B7D: 3A38
4B7E: 5370
4B7F: 6838
4B80: 0135
4B81: 1632
4B82: 2F3E
4B83: 4434
4B84: 5D22
4B85: 7224
4B86: 0B13
4B87: 2000
4B88: 397A
4B89: 4E71
4B8A: 6710
4B8B: 7C5B
4B8C: 15A5
4B8D: 2A88
4B8E: 43FC
4B8F: 58C1
4B90: 7074
4B91: 0907
4B92: 1E7F
4B93: 3752
4B94: 4CA9
4B95: 65C3
4B96: 7A90
4B97: 1265
4B98: 2B43
4B99: 404D
4B9A: 5991
4B9B: 6EF9
4B9C: 0664
4B9D: 1F48
4B9E: 3483
4B9F: 4DD0
4BA0: 6574
4BA1: 7A76
4BA2: 13BF
4BA3: 28E8
4BA4: 4028
4BA5: 5969
4BA6: 6ED0
4BA7: 07CC
4BA8: 1F60
4BA9: 34E5
4BAA: 4DC0
4BAB: 6502
4BAC: 7AB7
4BAD: 13CE
4BAE: 2B79
4BAF: 4097
4BB0: 5838
4BB1: 714C
4BB2: 06B0
4BB3: 1E15
4BB4: 37A5
4BB5: 4CDB
4BB6: 6455
4BB7: 7DBA
4BB8: 1518
4BB9: 2A96
4BBA: 4204
4BBB: 5BBF
4BBC: 7325
4BBD: 08B3
4BBE: 2037
4BBF: 39B0
4BC0: 5174
4BC1: 66B7
4BC2: 7E3F
4BC3: 17B2
4BC4: 2F2F
4BC5: 4E4A
4BC6: 5C24
4BC7: 758D
4BC8: 0D71
4BC9: 22A5
4BCA: 3A53
4BCB: 53C2
4BCC: 6BB2
4BCD: 0318
4BCE: 18E2
4BCF: 3015
4BD0: 483B
4BD1: 6193
4BD2: 7930
4BD3: 0EC9
4BD4: 26AC
4BD5: 3E04
4BD6: 57C3
4BD7: 6FE5
4BD8: 0776
4BD9: 1CCA
4BDA: 349F
4BDB: 4C66
4BDC: 6464
4BDD: 7DEE
4BDE: 15A5
4BDF: 2D77
4BE0: 4520
4BE1: 5AF9
4BE2: 72A9
4BE3: 0A3D
4BE4: 2237
4BE5: 3BFA
4BE6: 5399
4BE7: 6B57
4BE8: 0378
4BE9: 1B36
4BEA: 3090
4BEB: 489A
4BEC: 60AD
4BED: 7849
4BEE: 1078
4BEF: 2855
4BF0: 4037
4BF1: 59DA
4BF2: 71FC
4BF3: 0992
4BF4: 21B6
4BF5: 395E
4BF6: 511E
4BF7: 6925
4BF8: 0134
4BF9: 192C
4BFA: 3104
4BFB: 496D
4BFC: 612D
4BFD: 792E
4BFE: 1170
4BFF: 2921
4C00: 413D
4C01: 5921
4C02: 713C
4C03: 0938
4C04: 2120
4C05: 396D
4C06: 5152
4C07: 6924
4C08: 0134
4C09: 1947
4C0A: 3142
4C0B: 4944
4C0C: 61A1
4C0D: 799B
4C0E: 11B0
4C0F: 29FC
4C10: 403A
4C11: 5801
4C12: 7062
4C13: 0852
4C14: 20A0
4C15: 3898
4C16: 50D3
4C17: 6B31
4C18: 037D
4C19: 1B4A
4C1A: 339E
4C1B: 4BAD
4C1C: 6230
4C1D: 7A72
4C1E: 12F0
4C1F: 2ADC
4C20: 453A
4C21: 5D61
4C22: 75B5
4C23: 0DEF
4C24: 2420
4C25: 3C64
4C26: 549D
4C27: 6CC0
4C28: 077A
4C29: 1FB6
4C2A: 37D9
4C2B: 4E02
4C2C: 66AA
4C2D: 7EDC
4C2E: 197C
4C2F: 31D5
4C30: 4804
4C31: 605D
4C32: 78E9
4C33: 130E
4C34: 2BAD
4C35: 43CE
4C36: 5A43
4C37: 72A7
4C38: 0D3A
4C39: 25C5
4C3A: 3C50
4C3B: 5484
4C3C: 6F30
4C3D: 07FD
4C3E: 1E22
4C3F: 36B0
4C40: 5135
4C41: 69B1
4C42: 0023
4C43: 18E7
4C44: 334E
4C45: 4BC7
4C46: 6222
4C47: 7A80
4C48: 1577
4C49: 2DE0
4C4A: 445E
4C4B: 5CD9
4C4C: 77E4
4C4D: 0E1C
4C4E: 26F4
4C4F: 4143
4C50: 5835
4C51: 709B
4C52: 0B73
4C53: 23D8
4C54: 3AB7
4C55: 554D
4C56: 6DD9
4C57: 04AB
4C58: 1F34
4C59: 37CC
4C5A: 4E9E
4C5B: 6979
4C5C: 0021
4C5D: 18EF
4C5E: 33B4
4C5F: 4A7C
4C60: 6539
4C61: 7DF0
4C62: 14BE
4C63: 2F6E
4C64: 462D
4C65: 5EE2
4C66: 799E
4C67: 1044
4C68: 2B78
4C69: 4265
4C6A: 5AC0
4C6B: 7585
4C6C: 0CBD
4C6D: 274E
4C6E: 3E79
4C6F: 5916
4C70: 7027
4C71: 0895
4C72: 23F8
4C73: 3A9C
4C74: 55B2
4C75: 6C48
4C76: 0710
4C77: 1E75
4C78: 3966
4C79: 500A
4C7A: 6B14
4C7B: 0238
4C7C: 1D27
4C7D: 3438
4C7E: 4F34
4C7F: 6675
4C80: 0132
4C81: 1834
4C82: 3323
4C83: 4A3E
4C84: 652D
4C85: 7C23
4C86: 1711
4C87: 2E11
4C88: 497D
4C89: 606B
4C8A: 7B57
4C8B: 1227
4C8C: 2DB4
4C8D: 448F
4C8E: 5FF5
4C8F: 76D1
4C90: 103D
4C91: 2B16
4C92: 4264
4C93: 5D54
4C94: 74AB
4C95: 0F83
4C96: 26C3
4C97: 4065
4C98: 5B75
4C99: 7247
4C9A: 0D9F
4C9B: 24F8
4C9C: 3E30
4C9D: 593D
4C9E: 70A4
4C9F: 0BFD
4CA0: 2531
4CA1: 3C35
4CA2: 57B6
4CA3: 6EE8
4CA4: 082A
4CA5: 2369
4CA6: 3A91
4CA7: 55C8
4CA8: 6F71
4CA9: 06AB
4CAA: 21C4
4CAB: 3B0C
4CAC: 52A8
4CAD: 6DCE
4CAE: 0730
4CAF: 1E9A
4CB0: 3832
4CB1: 5315
4CB2: 6AFF
4CB3: 0408
4CB4: 1FB6
4CB5: 368D
4CB6: 5045
4CB7: 6BEB
4CB8: 057D
4CB9: 1C93
4CBA: 3615
4CBB: 51BF
4CBC: 6B37
4CBD: 02B8
4CBE: 1C71
4CBF: 37F5
4CC0: 5174
4CC1: 6893
4CC2: 023F
4CC3: 1DAF
4CC4: 3764
4CC5: 4EA8
4CC6: 6808
4CC7: 0384
4CC8: 1D79
4CC9: 34F5
4CCA: 4E5C
4CCB: 69C8
4CCC: 03E8
4CCD: 1D77
4CCE: 34F9
4CCF: 4E5B
4CD0: 6820
4CD1: 0390
4CD2: 1D62
4CD3: 34D9
4CD4: 4EAD
4CD5: 6800
4CD6: 03D5
4CD7: 1DAB
4CD8: 3767
4CD9: 4ECC
4CDA: 689F
4CDB: 0263
4CDC: 1C25
4CDD: 37F1
4CDE: 51F0
4CDF: 6B65
4CE0: 053C
4CE1: 1CEC
4CE2: 36A3
4CE3: 5074
4CE4: 6A27
4CE5: 05FE
4CE6: 1FD0
4CE7: 3956
4CE8: 5371
4CE9: 6D20
4CEA: 04DD
4CEB: 1E9E
4CEC: 38E4
4CED: 5249
4CEE: 6C7F
4CEF: 0655
4CF0: 2024
4CF1: 3BC7
4CF2: 55F5
4CF3: 6F99
4CF4: 09AD
4CF5: 234E
4CF6: 3D44
4CF7: 5725
4CF8: 7160
4CF9: 0B0D
4CFA: 2511
4CFB: 3F39
4CFC: 5964
4CFD: 7329
4CFE: 0D38
4CFF: 2730
4D00: 4174
4D01: 5B20
4D02: 753E
4D03: 0F34
4D04: 2932
4D05: 4328
4D06: 5D02
4D07: 7716
4D08: 1171
4D09: 2B25
4D0A: 4559
4D0B: 5F5E
4D0C: 79E8
4D0D: 13DD
4D0E: 2DF1
4D0F: 47C1
4D10: 6074
4D11: 7A1C
4D12: 1464
4D13: 2E4E
4D14: 48E4
4D15: 629F
4D16: 7CDF
4D17: 192A
4D18: 3360
4D19: 4D09
4D1A: 67D0
4D1B: 01EC
4D1C: 1A4E
4D1D: 346D
4D1E: 4EA5
4D1F: 68E7
4D20: 0531
4D21: 1F79
4D22: 39A9
4D23: 53BD
4D24: 6C29
4D25: 066C
4D26: 2084
4D27: 3ACD
4D28: 5771
4D29: 71A8
4D2A: 0BD1
4D2B: 2419
4D2C: 3EAD
4D2D: 58DE
4D2E: 7571
4D2F: 0F99
4D30: 2874
4D31: 4256
4D32: 5CFF
4D33: 7913
4D34: 13B7
4D35: 2DD9
4D36: 4642
4D37: 60F0
4D38: 7D77
4D39: 1791
4D3A: 305C
4D3B: 4AED
4D3C: 6725
4D3D: 01B3
4D3E: 1A34
4D3F: 34F5
4D40: 5120
4D41: 6BBD
4D42: 0431
4D43: 1EA9
4D44: 3B64
4D45: 55AC
4D46: 6E1C
4D47: 0889
4D48: 2534
4D49: 3FE0
4D4A: 5846
4D4B: 72C8
4D4C: 0FAA
4D4D: 2809
4D4E: 42E3
4D4F: 5F15
4D50: 7835
4D51: 1287
4D52: 2F75
4D53: 499D
4D54: 62A7
4D55: 7F0C
4D56: 19C5
4D57: 32B6
4D58: 4F71
4D59: 69C1
4D5A: 02D0
4D5B: 1F6F
4D5C: 383D
4D5D: 52BD
4D5E: 6FA4
4D5F: 087D
4D60: 2531
4D61: 3F9F
4D62: 58B9
4D63: 7573
4D64: 0E30
4D65: 28E8
4D66: 4582
4D67: 5E44
4D68: 7B77
4D69: 1431
4D6A: 2ED9
4D6B: 4B82
4D6C: 64AA
4D6D: 014E
4D6E: 1A30
4D6F: 3717
4D70: 5031
4D71: 6AC1
4D72: 07E7
4D73: 2098
4D74: 3DA1
4D75: 5643
4D76: 7310
4D77: 0C60
4D78: 297D
4D79: 4202
4D7A: 5F18
4D7B: 7839
4D7C: 1564
4D7D: 2E2D
4D7E: 4B3F
4D7F: 6436
4D80: 013F
4D81: 1A30
4D82: 3724
4D83: 502E
4D84: 6D64
4D85: 0622
4D86: 2316
4D87: 3C45
4D88: 5971
4D89: 726B
4D8A: 0F55
4D8B: 285F
4D8C: 45A3
4D8D: 5E84
4D8E: 7BB0
4D8F: 14D6
4D90: 3035
4D91: 4D19
4D92: 667C
4D93: 0358
4D94: 1CA0
4D95: 39CD
4D96: 5292
4D97: 6E37
4D98: 0B71
4D99: 2442
4D9A: 4199
4D9B: 5AFE
4D9C: 7630
4D9D: 1378
4D9E: 2CA2
4D9F: 49E6
4DA0: 6576
4DA1: 7E3B
4DA2: 1BDA
4DA3: 34DB
4DA4: 5031
4DA5: 6D7F
4DA6: 0684
4DA7: 23CD
4DA8: 3F71
4DA9: 58B7
4DAA: 75DD
4DAB: 1102
4DAC: 2AB6
4DAD: 47D8
4DAE: 633C
4DAF: 7CD5
4DB0: 183D
4DB1: 3541
4DB2: 4EB0
4DB3: 6A0E
4DB4: 07A1
4DB5: 20C8
4DB6: 3C5D
4DB7: 59F6
4DB8: 7534
4DB9: 0E91
4DBA: 2A18
4DBB: 47AC
4DBC: 6330
4DBD: 7CFD
4DBE: 1827
4DBF: 35BD
4DC0: 513D
4DC1: 6AB9
4DC2: 0635
4DC3: 23FD
4DC4: 3F30
4DC5: 58A5
4DC6: 7415
4DC7: 11C5
4DC8: 2D78
4DC9: 46EA
4DCA: 6247
4DCB: 7FC8
4DCC: 1BB6
4DCD: 375D
4DCE: 50E2
4DCF: 6C50
4DD0: 0833
4DD1: 259C
4DD2: 4163
4DD3: 5AC9
4DD4: 76A1
4DD5: 121F
4DD6: 2FC3
4DD7: 4BE5
4DD8: 6764
4DD9: 00D7
4DDA: 1C99
4DDB: 3860
4DDC: 5425
4DDD: 71EF
4DDE: 0DB9
4DDF: 2979
4DE0: 452D
4DE1: 5EB5
4DE2: 7AB3
4DE3: 1672
4DE4: 322A
4DE5: 4FF9
4DE6: 6B82
4DE7: 074A
4DE8: 2378
4DE9: 3F65
4DEA: 58DD
4DEB: 7498
4DEC: 10AA
4DED: 2C59
4DEE: 4871
4DEF: 641B
4DF0: 0031
4DF1: 1DBF
4DF2: 39E4
4DF3: 5595
4DF4: 71AD
4DF5: 0D43
4DF6: 2957
4DF7: 4576
4DF8: 6134
4DF9: 7D09
4DFA: 1919
4DFB: 3526
4DFC: 5121
4DFD: 6D7D
4DFE: 0923
4DFF: 253A
4E00: 4121
4E01: 5D3B
4E02: 7934
4E03: 157D
4E04: 3125
4E05: 4D23
4E06: 6914
4E07: 0545
4E08: 2178
4E09: 3D6C
4E0A: 5957
4E0B: 7545
4E0C: 11B0
4E0D: 2DD1
4E0E: 49B0
4E0F: 65C1
4E10: 003C
4E11: 1C10
4E12: 3830
4E13: 5455
4E14: 70AD
4E15: 0C8A
4E16: 28D8
4E17: 4720
4E18: 6367
4E19: 7F51
4E1A: 1BD0
4E1B: 37FF
4E1C: 5221
4E1D: 6E7A
4E1E: 0AB9
4E1F: 26E6
4E20: 4520
4E21: 6170
4E22: 7DA2
4E23: 19BD
4E24: 346C
4E25: 5079
4E26: 6C98
4E27: 08C0
4E28: 2734
4E29: 43B6
4E2A: 5FDF
4E2B: 7A40
4E2C: 16A7
4E2D: 32DC
4E2E: 517C
4E2F: 6D99
4E30: 0831
4E31: 2451
4E32: 40B0
4E33: 5F5F
4E34: 7BA1
4E35: 17C4
4E36: 3257
4E37: 4EED
4E38: 6D60
4E39: 098D
4E3A: 247A
4E3B: 40BF
4E3C: 5F21
4E3D: 7BBA
4E3E: 1639
4E3F: 32A6
4E40: 5120
4E41: 6DB0
4E42: 0822
4E43: 24FF
4E44: 436D
4E45: 5FED
4E46: 7A19
4E47: 1696
4E48: 3534
4E49: 51F0
4E4A: 6C43
4E4B: 08C8
4E4C: 27A0
4E4D: 425D
4E4E: 5EE4
4E4F: 7D5A
4E50: 1874
4E51: 3496
4E52: 537F
4E53: 6FD3
4E54: 0AB0
4E55: 291F
4E56: 45DF
4E57: 60A9
4E58: 7F34
4E59: 1BCC
4E5A: 369E
4E5B: 5579
4E5C: 7021
4E5D: 0CEF
4E5E: 2BB4
4E5F: 467C
4E60: 6539
4E61: 01F0
4E62: 1CBE
4E63: 3B6E
4E64: 562D
4E65: 72E2
4E66: 119E
4E67: 2C44
4E68: 4B78
4E69: 6665
4E6A: 02D5
4E6B: 219B
4E6C: 3CA1
4E6D: 5B53
4E6E: 7664
4E6F: 1506
4E70: 3074
4E71: 4CC6
4E72: 6BE5
4E73: 069E
4E74: 25AC
4E75: 400D
4E76: 5F51
4E77: 7A76
4E78: 1934
4E79: 3411
4E7A: 5315
4E7B: 6E21
4E7C: 0D21
4E7D: 282D
4E7E: 473F
4E7F: 6227
4E80: 0120
4E81: 1C34
4E82: 3B24
4E83: 5634
4E84: 752B
4E85: 1023
4E86: 2F5E
4E87: 4A6F
4E88: 691E
4E89: 0444
4E8A: 2310
4E8B: 3E45
4E8C: 5DBD
4E8D: 788D
4E8E: 17FF
4E8F: 32C1
4E90: 503C
4E91: 6F10
4E92: 0A64
4E93: 2954
4E94: 44A7
4E95: 638C
4E96: 7EDC
4E97: 1C65
4E98: 3B67
4E99: 5650
4E9A: 7593
4E9B: 10E5
4E9C: 2E64
4E9D: 4D69
4E9E: 68B5
4E9F: 07F9
4EA0: 2531
4EA1: 4065
4EA2: 5FBF
4EA3: 7AEF
4EA4: 1830
4EA5: 376C
4EA6: 5284
4EA7: 71CC
4EA8: 0F7B
4EA9: 2AAB
4EAA: 4990
4EAB: 6709
4EAC: 02A1
4EAD: 21CB
4EAE: 3F79
4EAF: 5A96
4EB0: 7831
4EB1: 1715
4EB2: 32E7
4EB3: 5012
4EB4: 6FB1
4EB5: 0AC1
4EB6: 2854
4EB7: 47A5
4EB8: 657A
4EB9: 0080
4EBA: 1E15
4EBB: 3DA9
4EBC: 5B64
4EBD: 76A9
4EBE: 143F
4EBF: 33F5
4EC0: 513C
4EC1: 6CB4
4EC2: 0A26
4EC3: 29B8
4EC4: 4764
4EC5: 62A5
4EC6: 0011 1F93           CALL 1F93
4EC8: 3D71
4EC9: 58A5
4ECA: 7655
4ECB: 15D5
4ECC: 33A5
4ECD: 511E
4ECE: 6CE4
4ECF: 0A59
4ED0: 282D
4ED1: 47D5
4ED2: 6564
4ED3: 00CA
4ED4: 1EAB
4ED5: 3C67
4ED6: 5BD4
4ED7: 79A0
4ED8: 1767
4ED9: 32D1
4EDA: 5099
4EDB: 6E63
4EDC: 0C25
4EDD: 2BE9
4EDE: 49B9
4EDF: 677A
4EE0: 053A
4EE1: 20E6
4EE2: 3EFE
4EE3: 5C3D
4EE4: 7A64
4EE5: 19C2
4EE6: 379E
4EE7: 5540
4EE8: 7334
4EE9: 1121
4EEA: 2CD5
4EEB: 4A9E
4EEC: 68B0
4EED: 0654
4EEE: 247E
4EEF: 4214
4EF0: 6020
4EF1: 7FDC
4EF2: 1DFF
4EF3: 3B93
4EF4: 59E4
4EF5: 775A
4EF6: 155F
4EF7: 3370
4EF8: 5178
4EF9: 6F01
4EFA: 0D50
4EFB: 2B2F
4EFC: 4921
4EFD: 677D
4EFE: 0525
4EFF: 2326
4F00: 4131
4F01: 5F31
4F02: 7D70
4F03: 1B2A
4F04: 392C
4F05: 5728
4F06: 751E
4F07: 1345
4F08: 3160
4F09: 4F6D
4F0A: 6D55
4F0B: 0B0D
4F0C: 29A1
4F0D: 4794
4F0E: 65F7
4F0F: 03DD
4F10: 2020
4F11: 3E1D
4F12: 5C30
4F13: 7A4F
4F14: 18A1
4F15: 368A
4F16: 54D9
4F17: 7536
4F18: 1360
4F19: 3140
4F1A: 4F82
4F1B: 6DAD
4F1C: 0A2D
4F1D: 286E
4F1E: 46F0
4F1F: 64F4
4F20: 0520
4F21: 2335
4F22: 41B9
4F23: 5FE9
4F24: 7C37
4F25: 1A07
4F26: 389D
4F27: 56CC
4F28: 777A
4F29: 15AC
4F2A: 33DD
4F2B: 5018
4F2C: 6EA9
4F2D: 0C9D
4F2E: 2D75
4F2F: 4B9B
4F30: 6831
4F31: 0647
4F32: 24F7
4F33: 4504
4F34: 63E4
4F35: 01C1
4F36: 1E55
4F37: 3CF3
4F38: 5D71
4F39: 7B89
4F3A: 1850
4F3B: 36E0
4F3C: 5764
4F3D: 75A9
4F3E: 1238
4F3F: 30BC
4F40: 5127
4F41: 6FF5
4F42: 0C27
4F43: 2AB2
4F44: 4B31
4F45: 69A1
4F46: 0614
4F47: 24C5
4F48: 4576
4F49: 63E0
4F4A: 0010 1ED9 3FAC      WMEM 1ED9 3FAC
4F4D: 5C18
4F4E: 7AB0
4F4F: 1B51
4F50: 3831
4F51: 5693
4F52: 7771
4F53: 15C8
4F54: 32A8
4F55: 5319
4F56: 7190
4F57: 0EAA
4F58: 2F64
4F59: 4DC0
4F5A: 6A82
4F5B: 0B6C
4F5C: 2830
4F5D: 46F4
4F5E: 67BF
4F5F: 047B
4F60: 2574
4F61: 43F4
4F62: 60A3
4F63: 016E
4F64: 1E31
4F65: 3CE0
4F66: 5D99
4F67: 7A4B
4F68: 1B73
4F69: 3865
4F6A: 56C4
4F6B: 7785
4F6C: 14A1
4F6D: 351D
4F6E: 5265
4F6F: 7306
4F70: 1031
4F71: 2EC7
4F72: 4F9A
4F73: 6C95
4F74: 0DA5
4F75: 2A5E
4F76: 4B10
4F77: 686B
4F78: 097B
4F79: 2645
4F7A: 4707
4F7B: 642C
4F7C: 053D
4F7D: 227D
4F7E: 4324
4F7F: 603A
4F80: 0174
4F81: 1E36
4F82: 3F3F
4F83: 5C33
4F84: 7D30
4F85: 1A3F
4F86: 3B1F
4F87: 5809
4F88: 7934
4F89: 1671
4F8A: 3758
4F8B: 5448
4F8C: 75E4
4F8D: 1298
4F8E: 33F9
4F8F: 50D2
4F90: 703C
4F91: 1101
4F92: 2E78
4F93: 4F1D
4F94: 6CB6
4F95: 0D88
4F96: 2AD7
4F97: 4A2C
4F98: 6B67
4F99: 0851
4F9A: 2995
4F9B: 46FF
4F9C: 666A
4F9D: 073D
4F9E: 24F0
4F9F: 45DC
4FA0: 653A
4FA1: 0235
4FA2: 23A4
4FA3: 40F5
4FA4: 602D
4FA5: 017E
4FA6: 1ED0
4FA7: 3FD6
4FA8: 5F7D
4FA9: 7CB1
4FAA: 1DC5
4FAB: 3D0C
4FAC: 5AB0
4FAD: 7BD4
4FAE: 1B7F
4FAF: 389B
4FB0: 5878
4FB1: 7915
4FB2: 16E4
4FB3: 3615
4FB4: 57A1
4FB5: 748D
4FB6: 1444
4FB7: 35E0
4FB8: 5578
4FB9: 7280
4FBA: 1200
4FBB: 33A2
4FBC: 5336
4FBD: 70A9
4FBE: 1035
4FBF: 31A7
4FC0: 515E
4FC1: 6EA6
4FC2: 0E38
4FC3: 2FB2
4FC4: 4F31
4FC5: 6CA1
4FC6: 0C14
4FC7: 2DC5
4FC8: 4D67
4FC9: 6AE0
4FCA: 0A5E
4FCB: 2BC9
4FCC: 4BE4
4FCD: 6B09
4FCE: 08F8
4FCF: 2850
4FD0: 4874
4FD1: 6980
4FD2: 0963
4FD3: 26D8
4FD4: 46B6
4FD5: 664D
4FD6: 07C4
4FD7: 27AA
4FD8: 4734
4FD9: 64C4
4FDA: 04D0
4FDB: 247D
4FDC: 4436
4FDD: 65F8
4FDE: 05B3
4FDF: 257A
4FE0: 453A
4FE1: 62F3
4FE2: 02B9
4FE3: 227A
4FE4: 4231
4FE5: 63FF
4FE6: 0395
4FE7: 2341
4FE8: 4334
4FE9: 6336
4FEA: 00D1
4FEB: 208B
4FEC: 40A1
4FED: 601D
4FEE: 007C
4FEF: 201A
4FF0: 4037
4FF1: 61D4
4FF2: 01E4
4FF3: 2194
4FF4: 41AB
4FF5: 6143
4FF6: 0110
4FF7: 2164
4FF8: 4167
4FF9: 6145
4FFA: 0111
4FFB: 216D
4FFC: 4120
4FFD: 6138
4FFE: 0136
4FFF: 2134
5000: 4121
5001: 6139
5002: 0124
5003: 2173
5004: 414E
5005: 6147
5006: 0124
5007: 210D
5008: 4171
5009: 6125
500A: 0143
500B: 2148
500C: 41A7
500D: 6192
500E: 01FE
500F: 21D1
5010: 4074
5011: 6011
5012: 0075
5013: 204E
5014: 40B0
5015: 6084
5016: 00DE
5017: 2324
5018: 4360
5019: 634C
501A: 039F
501B: 23E3
501C: 4268
501D: 623D
501E: 02B8
501F: 22FA
5020: 4523
5021: 6570
5022: 05A6
5023: 25F8
5024: 4436
5025: 6421
5026: 04D0
5027: 24CC
5028: 4767
5029: 67E5
502A: 07C0
502B: 261F
502C: 46A1
502D: 66D9
502E: 0979
502F: 2996
5030: 4820
5031: 6850
5032: 08F4
5033: 2B5D
5034: 4BB0
5035: 6BC2
5036: 0A10
5037: 2AF7
5038: 4D71
5039: 6D94
503A: 0C05
503B: 2CA4
503C: 4F36
503D: 6FB8
503E: 0E70
503F: 2EB4
5040: 5174
5041: 71A3
5042: 1035
5043: 30AF
5044: 533D
5045: 73ED
5046: 1203
5047: 3295
5048: 5571
5049: 75E6
504A: 1459
504B: 34CB
504C: 57AD
504D: 761E
504E: 169A
504F: 3950
5050: 583A
5051: 7890
5052: 1B62
5053: 3BDA
5054: 5ABD
5055: 7D4D
5056: 1DDC
5057: 3CA0
5058: 5F62
5059: 7FC0
505A: 1E9C
505B: 412D
505C: 602D
505D: 00F3
505E: 23F0
505F: 4261
5060: 653C
5061: 05F0
5062: 24F0
5063: 4778
5064: 662D
5065: 06EA
5066: 2998
5067: 4851
5068: 6B7C
5069: 0A65
506A: 2AC2
506B: 4D88
506C: 6CA3
506D: 0F54
506E: 2E63
506F: 5101
5070: 7031
5071: 10C7
5072: 33BE
5073: 52DD
5074: 75E4
5075: 1479
5076: 3758
5077: 5660
5078: 7934
5079: 1811
507A: 3B15
507B: 5A21
507C: 7D21
507D: 1C2D
507E: 3F3F
507F: 5E27
5080: 0120
5081: 2030
5082: 4322
5083: 627D
5084: 0529
5085: 2438
5086: 4703
5087: 6611
5088: 0934
5089: 2871
508A: 4B51
508B: 6A46
508C: 0DA1
508D: 2CDD
508E: 4FF7
508F: 6EC7
5090: 1031
5091: 3314
5092: 5264
5093: 751D
5094: 14A7
5095: 378C
5096: 56C2
5097: 7820
5098: 1B34
5099: 3A51
509A: 5D9F
509B: 7C87
509C: 1E27
509D: 4172
509E: 60BE
509F: 03F3
50A0: 253D
50A1: 4467
50A2: 67BD
50A3: 06BD
50A4: 2830
50A5: 4B65
50A6: 6A91
50A7: 0DD1
50A8: 2F34
50A9: 4EB1
50AA: 71D8
50AB: 1304
50AC: 32B7
50AD: 559D
50AE: 7775
50AF: 169B
50B0: 3831
50B1: 5B47
50B2: 7AF7
50B3: 1C04
50B4: 3FE4
50B5: 5EC1
50B6: 0055
50B7: 23F3
50B8: 4571
50B9: 6489
50BA: 0650
50BB: 29A4
50BC: 4B37
50BD: 6AFD
50BE: 0C35
50BF: 2FAD
50C0: 5135
50C1: 70B6
50C2: 1224
50C3: 35B1
50C4: 573D
50C5: 76ED
50C6: 1813
50C7: 3B8A
50C8: 5D66
50C9: 7CF7
50CA: 1E55
50CB: 41CE
50CC: 63B0
50CD: 055D
50CE: 24F2
50CF: 4650
50D0: 6832
50D1: 0B9A
50D2: 2D62
50D3: 4CD8
50D4: 6EE4
50D5: 1019
50D6: 33D5
50D7: 55A9
50D8: 7771
50D9: 16D5
50DA: 389F
50DB: 5A7F
50DC: 7C30
50DD: 1FF4
50DE: 41BE
50DF: 6372
50E0: 0574
50E1: 24FC
50E2: 46A4
50E3: 686E
50E4: 0A64
50E5: 2DF8
50E6: 4F83
50E7: 7140
50E8: 1366
50E9: 3564
50EA: 54BA
50EB: 76A4
50EC: 18A2
50ED: 3A1D
50EE: 5C79
50EF: 7E01
50F0: 2074
50F1: 43DC
50F2: 65E3
50F3: 07DD
50F4: 29A1
50F5: 4B5B
50F6: 6D55
50F7: 0F6B
50F8: 3134
50F9: 5316
50FA: 751C
50FB: 1724
50FC: 3923
50FD: 5B35
50FE: 7D24
50FF: 1F39
5100: 412D
5101: 6375
5102: 053F
5103: 273B
5104: 4922
5105: 6B61
5106: 0D50
5107: 2F11
5108: 517C
5109: 7360
510A: 1510
510B: 3758
510C: 59B7
510D: 7B98
510E: 1DE2
510F: 3F95
5110: 6023
5111: 021A
5112: 2465
5113: 4651
5114: 68A0
5115: 0ACD
5116: 2C98
5117: 5135
5118: 7366
5119: 154A
511A: 3792
511B: 59EC
511C: 7A26
511D: 1C71
511E: 3EA9
511F: 60BC
5120: 0574
5121: 2774
5122: 49A2
5123: 6BEF
5124: 0C2D
5125: 2E7B
5126: 5095
5127: 7285
5128: 1775
5129: 39B1
512A: 5B90
512B: 7C19
512C: 1EAC
512D: 40D8
512E: 6530
512F: 0796
5130: 283B
5131: 4A47
5132: 6CE2
5133: 1118
5134: 33A7
5135: 55D9
5136: 763A
5137: 18E9
5138: 3D7B
5139: 5F86
513A: 0011 22B9           CALL 22B9
513C: 472D
513D: 69B2
513E: 0A3E
513F: 2CF9
5140: 5174
5141: 73B7
5142: 1425
5143: 36A9
5144: 5B64
5145: 7DBA
5146: 1E1F
5147: 4090
5148: 6578
5149: 07E1
514A: 2810
514B: 4ACF
514C: 6FB6
514D: 1014
514E: 32F5
514F: 5753
5150: 7838
5151: 1A8C
5152: 3F30
5153: 61D8
5154: 02BC
5155: 271D
5156: 49D5
5157: 6AB7
5158: 0F7D
5159: 31C0
515A: 529E
515B: 776E
515C: 1821
515D: 3ABD
515E: 5FB1
515F: 007B
5160: 253B
5161: 47F8
5162: 68B1
5163: 0D71
5164: 2E2D
5165: 50E8
5166: 7583
5167: 1605
5168: 3B7D
5169: 5C2B
516A: 7E90
516B: 2399
516C: 44AC
516D: 6958
516E: 0A30
516F: 2F13
5170: 5035
5171: 72D7
5172: 17E2
5173: 3894
5174: 5DA7
5175: 7E0D
5176: 235F
5177: 4463
5178: 6934
5179: 0A17
517A: 2F15
517B: 502C
517C: 7528
517D: 1634
517E: 3B24
517F: 5C2C
5180: 015E
5181: 223C
5182: 4724
5183: 682E
5184: 0D21
5185: 2E21
5186: 5316
5187: 7445
5188: 1939
5189: 3A25
518A: 5F44
518B: 0045
518C: 25AD
518D: 468E
518E: 6BB0
518F: 0CDC
5190: 3027
5191: 5559
5192: 7630
5193: 1B52
5194: 3CA2
5195: 61CD
5196: 02D3
5197: 262A
5198: 4B61
5199: 6C57
519A: 1183
519B: 32E8
519C: 5668
519D: 7B3D
519E: 1CBE
519F: 41FA
51A0: 6520
51A1: 0635
51A2: 2BA2
51A3: 4CF8
51A4: 7027
51A5: 1562
51A6: 369D
51A7: 5BC8
51A8: 7F71
51A9: 20AB
51AA: 45D4
51AB: 6908
51AC: 0AA0
51AD: 2F93
51AE: 5330
51AF: 74D5
51B0: 1815
51B1: 3D5B
51B2: 5EE9
51B3: 025D
51B4: 27B0
51B5: 48C8
51B6: 6C5C
51B7: 11E0
51B8: 3564
51B9: 568A
51BA: 7A02
51BB: 1FB9
51BC: 4321
51BD: 64AF
51BE: 0870
51BF: 2DA2
51C0: 513B
51C1: 72A0
51C2: 163C
51C3: 3BB9
51C4: 5F64
51C5: 00A3
51C6: 2415
51C7: 4980
51C8: 6D70
51C9: 0EA5
51CA: 3244
51CB: 57C2
51CC: 7BE4
51CD: 1F09
51CE: 40F5
51CF: 6446
51D0: 0820
51D1: 2DFF
51D2: 5164
51D3: 72D5
51D4: 16A1
51D5: 3A4D
51D6: 5FD5
51D7: 03AB
51D8: 2771
51D9: 48D7
51DA: 6C97
51DB: 1074
51DC: 3464
51DD: 59F1
51DE: 7DB5
51DF: 2163
51E0: 4531
51E1: 66F9
51E2: 0AF0
51E3: 2E74
51E4: 522A
51E5: 77AD
51E6: 1B84
51E7: 3F4D
51E8: 6371
51E9: 0765
51EA: 28D5
51EB: 4C84
51EC: 70A3
51ED: 1455
51EE: 3864
51EF: 5C1D
51F0: 0074
51F1: 25C7
51F2: 49F5
51F3: 6D9A
51F4: 11AD
51F5: 355E
51F6: 5944
51F7: 7D60
51F8: 2166
51F9: 4545
51FA: 6911
51FB: 0D23
51FC: 3120
51FD: 557D
51FE: 7931
51FF: 1D37
5200: 413B
5201: 6527
5202: 0924
5203: 2D7D
5204: 5130
5205: 7528
5206: 191C
5207: 3D00
5208: 6164
5209: 056A
520A: 2942
520B: 4D59
520C: 71A5
520D: 1589
520E: 39F9
520F: 5DDA
5210: 003A
5211: 2455
5212: 4879
5213: 6C5B
5214: 10E4
5215: 3484
5216: 58C4
5217: 7F65
5218: 237D
5219: 4756
521A: 6BD0
521B: 0FE3
521C: 322B
521D: 5669
521E: 7ADA
521F: 1EF0
5220: 452C
5221: 6974
5222: 0DB3
5223: 31E9
5224: 5428
5225: 7874
5226: 1CD0
5227: 40C6
5228: 677B
5229: 0BB7
522A: 2FC2
522B: 5208
522C: 76A7
522D: 1AC9
522E: 413E
522F: 65FF
5230: 085E
5231: 2C61
5232: 50F8
5233: 7714
5234: 1BB7
5235: 3F8D
5236: 6242
5237: 06E0
5238: 2D65
5239: 5190
523A: 7419
523B: 18BF
523C: 3F21
523D: 63B9
523E: 0670
523F: 2AA5
5240: 5126
5241: 75B0
5242: 1833
5243: 3CB4
5244: 6337
5245: 07A4
5246: 2A1F
5247: 4E8B
5248: 7534
5249: 19EC
524A: 3C5D
524B: 60DD
524C: 07A8
524D: 2A14
524E: 4EF5
524F: 7546
5250: 1874
5251: 3C81
5252: 6378
5253: 07DC
5254: 2AB0
5255: 514D
5256: 75C4
5257: 18AD
5258: 3F71
5259: 6385
525A: 0693
525B: 2D62
525C: 502A
525D: 74FB
525E: 1BB9
525F: 3E67
5260: 6539
5261: 09F4
5262: 2CA4
5263: 5374
5264: 762B
5265: 1AE3
5266: 41D0
5267: 6448
5268: 0B71
5269: 2E26
526A: 52D8
526B: 798C
526C: 1CAA
526D: 4354
526E: 6663
526F: 0D18
5270: 3074
5271: 54C2
5272: 7BFF
5273: 1E88
5274: 45A8
5275: 6849
5276: 0F10
5277: 3267
5278: 5971
5279: 7C45
527A: 2306
527B: 4628
527C: 6D36
527D: 1024
527E: 375A
527F: 5A36
5280: 013B
5281: 2438
5282: 4B20
5283: 6E28
5284: 1530
5285: 382C
5286: 5F04
5287: 020C
5288: 297B
5289: 4C6B
528A: 7351
528B: 1641
528C: 3DA8
528D: 6084
528E: 07B0
528F: 2AD0
5290: 502C
5291: 7705
5292: 1A75
5293: 4153
5294: 64B7
5295: 0B84
5296: 2EC6
5297: 5420
5298: 7B3A
5299: 1E05
529A: 45D0
529B: 68DA
529C: 0E2C
529D: 3574
529E: 58BC
529F: 7FF0
52A0: 2574
52A1: 4861
52A2: 6FB8
52A3: 12F4
52A4: 3837
52A5: 5F2D
52A6: 0287
52A7: 29CA
52A8: 4F61
52A9: 72A9
52AA: 19D4
52AB: 3F4D
52AC: 62A8
52AD: 09D4
52AE: 2F7B
52AF: 5290
52B0: 7838
52B1: 1F4C
52B2: 42B0
52B3: 6813
52B4: 0FAB
52B5: 32D9
52B6: 5810
52B7: 7FE7
52B8: 2571
52B9: 48C5
52BA: 6E11
52BB: 15A3
52BC: 3B64
52BD: 5EB4
52BE: 0423
52BF: 2BA6
52C0: 5121
52C1: 74B0
52C2: 1A70
52C3: 41BB
52C4: 672B
52C5: 0ABF
52C6: 3050
52C7: 5789
52C8: 7D75
52C9: 20F7
52CA: 4657
52CB: 6DC8
52CC: 13E9
52CD: 3977
52CE: 5CE3
52CF: 0256
52D0: 2835
52D1: 4F99
52D2: 7575
52D3: 189D
52D4: 3EB0
52D5: 6408
52D6: 0BDC
52D7: 31A0
52D8: 5764
52D9: 7ACA
52DA: 2082
52DB: 4679
52DC: 6C21
52DD: 13EF
52DE: 39A3
52DF: 5F39
52E0: 0574
52E1: 28F4
52E2: 4EF0
52E3: 7475
52E4: 1A3D
52E5: 41FD
52E6: 679F
52E7: 0D51
52E8: 337C
52E9: 5920
52EA: 7CC4
52EB: 2284
52EC: 48A7
52ED: 6E5C
52EE: 147C
52EF: 3A55
52F0: 603C
52F1: 07D4
52F2: 2DFE
52F3: 5399
52F4: 79E9
52F5: 1F45
52F6: 4555
52F7: 6B69
52F8: 1170
52F9: 3745
52FA: 5D04
52FB: 0328
52FC: 2928
52FD: 4F38
52FE: 7520
52FF: 1B3A
5300: 4126
5301: 6721
5302: 0D35
5303: 332F
5304: 5964
5305: 7F3A
5306: 251F
5307: 4B10
5308: 7178
5309: 1761
530A: 3D10
530B: 6359
530C: 09A5
530D: 2F96
530E: 55F5
530F: 7B95
5310: 2036
5311: 461C
5312: 6C7C
5313: 1251
5314: 38AD
5315: 5E82
5316: 04DE
5317: 2D36
5318: 5334
5319: 794A
531A: 1F96
531B: 4587
531C: 6A3D
531D: 1078
531E: 36B1
531F: 5CE7
5320: 0527
5321: 2B35
5322: 51A4
5323: 77F2
5324: 1C64
5325: 426E
5326: 689F
5327: 0EC8
5328: 3764
5329: 5DB0
532A: 03C4
532B: 2808
532C: 4EE4
532D: 74C9
532E: 1D78
532F: 4390
5330: 6874
5331: 0E47
5332: 34F5
5333: 5D0E
5334: 03B1
5335: 29C1
5336: 4E44
5337: 74A5
5338: 1D75
5339: 438B
533A: 6814
533B: 0EED
533C: 3727
533D: 5DB2
533E: 023E
533F: 28B3
5340: 513D
5341: 77A7
5342: 1C3D
5343: 42FD
5344: 6B30
5345: 11A5
5346: 3611
5347: 5C91
5348: 0534
5349: 2BF1
534A: 5058
534B: 76C8
534C: 1FE4
534D: 4418
534E: 6AF9
534F: 1352
5350: 383C
5351: 5E81
5352: 0778
5353: 2D9D
5354: 52B6
5355: 7B08
5356: 21D7
5357: 46AC
5358: 6F67
5359: 15D1
535A: 3A95
535B: 637F
535C: 0864
535D: 2EF4
535E: 57A3
535F: 7C35
5360: 2537
5361: 4BFA
5362: 70A2
5363: 196F
5364: 3E21
5365: 64EE
5366: 0D84
5367: 320B
5368: 5B1E
5369: 004F
536A: 26F9
536B: 4F8B
536C: 74E4
536D: 1D44
536E: 427F
536F: 6B00
5370: 1074
5371: 36D3
5372: 5FF9
5373: 0493
5374: 2DA0
5375: 520D
5376: 7B49
5377: 206A
5378: 4961
5379: 6E17
537A: 1703
537B: 3C28
537C: 6528
537D: 0A3B
537E: 3370
537F: 5821
5380: 0126
5381: 2634
5382: 4F20
5383: 742D
5384: 1D21
5385: 4229
5386: 6B50
5387: 100C
5388: 397A
5389: 5E25
538A: 0751
538B: 2C43
538C: 55E4
538D: 7A9C
538E: 23FC
538F: 48C1
5390: 7031
5391: 1907
5392: 3E7E
5393: 675C
5394: 0CB0
5395: 3588
5396: 5A90
5397: 0221
5398: 2B7D
5399: 5048
539A: 7995
539B: 1EE3
539C: 4637
539D: 6F74
539E: 14BF
539F: 3DFB
53A0: 6574
53A1: 0A62
53A2: 33B9
53A3: 58E9
53A4: 002C
53A5: 292D
53A6: 4E9E
53A7: 77CA
53A8: 1F60
53A9: 44AD
53AA: 6DD9
53AB: 1503
53AC: 3AA3
53AD: 639D
53AE: 0B72
53AF: 3080
53B0: 5820
53B1: 0115
53B2: 26F1
53B3: 4E77
53B4: 77AC
53B5: 1CCC
53B6: 445E
53B7: 6DE1
53B8: 1539
53B9: 3A8D
53BA: 6215
53BB: 0BA1
53BC: 3320
53BD: 58FD
53BE: 0024
53BF: 29B0
53C0: 5138
53C1: 76B0
53C2: 1E20
53C3: 47B2
53C4: 6F36
53C5: 14B9
53C6: 3C15
53C7: 6597
53C8: 0D38
53C9: 32A5
53CA: 5A49
53CB: 03C2
53CC: 2BB1
53CD: 535D
53CE: 78E7
53CF: 205C
53D0: 4838
53D1: 7199
53D2: 1930
53D3: 3ED3
53D4: 66A1
53D5: 0E08
53D6: 37D4
53D7: 5FE5
53D8: 0760
53D9: 2CCA
53DA: 54D0
53DB: 7C68
53DC: 243C
53DD: 4DE9
53DE: 75A2
53DF: 1D74
53E0: 4537
53E1: 6AE1
53E2: 12F0
53E3: 3A69
53E4: 622C
53E5: 0BE8
53E6: 33D0
53E7: 5B46
53E8: 037B
53E9: 2B2B
53EA: 50D6
53EB: 7884
53EC: 20B6
53ED: 4850
53EE: 7071
53EF: 1801
53F0: 403D
53F1: 69DA
53F2: 11FE
53F3: 39DD
53F4: 61A5
53F5: 0941
53F6: 3157
53F7: 596A
53F8: 0166
53F9: 290C
53FA: 5104
53FB: 7925
53FC: 2129
53FD: 4971
53FE: 715A
53FF: 1927
5400: 4131
5401: 693C
5402: 113D
5403: 392D
5404: 6128
5405: 0928
5406: 311D
5407: 5900
5408: 017A
5409: 2971
540A: 5110
540B: 7944
540C: 21B0
540D: 49DD
540E: 71FF
540F: 19DB
5410: 4074
5411: 6818
5412: 107F
5413: 384F
5414: 60A1
5415: 08CD
5416: 30C0
5417: 5B2A
5418: 0363
5419: 2B40
541A: 5382
541B: 7BEB
541C: 2231
541D: 4A71
541E: 72F0
541F: 1AFD
5420: 4535
5421: 6D67
5422: 15B4
5423: 3DEA
5424: 6425
5425: 0C7F
5426: 3495
5427: 5C89
5428: 0734
5429: 2FA4
542A: 57DE
542B: 7E09
542C: 26E4
542D: 4ED2
542E: 7960
542F: 2181
5430: 483D
5431: 7058
5432: 18F9
5433: 4307
5434: 6BA1
5435: 138D
5436: 3A59
5437: 62F1
5438: 0D3A
5439: 35C5
543A: 5C50
543B: 0499
543C: 2F2C
543D: 57B4
543E: 7E23
543F: 26F5
5440: 5127
5441: 79BD
5442: 203F
5443: 48A8
5444: 7328
5445: 1BA9
5446: 425C
5447: 6AC5
5448: 1575
5449: 3DF1
544A: 6410
544B: 0CD9
544C: 37AC
544D: 5E18
544E: 069A
544F: 3143
5450: 5831
5451: 0087
5452: 2B69
5453: 539D
5454: 7AA8
5455: 2508
5456: 4DD1
5457: 74B6
5458: 1F60
5459: 4789
545A: 6ED0
545B: 196C
545C: 4028
545D: 68F1
545E: 13BF
545F: 3A62
5460: 6574
5461: 0DEC
5462: 34BF
5463: 5F68
5464: 0664
5465: 2EF9
5466: 599F
5467: 0005 2B70 5220 7AC4 GT 2B70 5220 7AC4
546B: 2588
546C: 4CB6
546D: 7750
546E: 1E79
546F: 491B
5470: 7031
5471: 1895
5472: 43E4
5473: 6A95
5474: 15A1
5475: 3C0D
5476: 6746
5477: 0E64
5478: 3978
5479: 6010
547A: 0B15
547B: 326D
547C: 5D2B
547D: 043B
547E: 2F70
547F: 5621
5480: 013C
5481: 2830
5482: 5370
5483: 7A38
5484: 252D
5485: 4C2A
5486: 7718
5487: 1E11
5488: 497C
5489: 7025
548A: 1B42
548B: 4248
548C: 6DA3
548D: 1494
548E: 3FE3
548F: 66C1
5490: 1031
5491: 3B07
5492: 6230
5493: 0D4A
5494: 34AC
5495: 5F84
5496: 06D3
5497: 302D
5498: 5B34
5499: 0252
549A: 2D9F
549B: 54F8
549C: 7E28
549D: 2979
549E: 50DA
549F: 7BFD
54A0: 2535
54A1: 4C63
54A2: 77B5
54A3: 1EBD
54A4: 4826
54A5: 7368
54A6: 1A95
54A7: 45CB
54A8: 6F34
54A9: 16A4
54AA: 41D3
54AB: 6B0E
54AC: 12A1
54AD: 3DCD
54AE: 6764
54AF: 0E90
54B0: 3830
54B1: 6315
54B2: 0AF2
54B3: 3404
54B4: 5FE4
54B5: 06D9
54B6: 3058
54B7: 5BE0
54B8: 0534
54B9: 2C91
54BA: 5615
54BB: 01A1
54BC: 2B21
54BD: 52AD
54BE: 7C3F
54BF: 27A7
54C0: 5120
54C1: 78B0
54C2: 2222
54C3: 4DFA
54C4: 7737
54C5: 1EED
54C6: 4813
54C7: 738A
54C8: 1D7A
54C9: 44E3
54CA: 6E59
54CB: 19DF
54CC: 43A9
54CD: 6D1C
54CE: 14E4
54CF: 3E5C
54D0: 683B
54D1: 139B
54D2: 3D30
54D3: 64D0
54D4: 0EA1
54D5: 380E
54D6: 63D8
54D7: 0DA4
54D8: 377A
54D9: 5ECC
54DA: 0883
54DB: 3260
54DC: 5C6A
54DD: 0797
54DE: 31DA
54DF: 5B41
54E0: 053C
54E1: 2CF0
54E2: 56BE
54E3: 0031
54E4: 2A64
54E5: 55FE
54E6: 7F95
54E7: 2951
54E8: 5334
54E9: 7D31
54EA: 24D8
54EB: 4E88
54EC: 78E4
54ED: 2258
54EE: 4C79
54EF: 7612
54F0: 203C
54F1: 4BC1
54F2: 75F8
54F3: 1FDD
54F4: 49B6
54F5: 7348
54F6: 1D57
54F7: 476C
54F8: 7167
54F9: 1B11
54FA: 4515
54FB: 6F3F
54FC: 1964
54FD: 4329
54FE: 6D3F
54FF: 1775
5500: 4120
5501: 6B3D
5502: 1539
5503: 3F2E
5504: 6964
5505: 133B
5506: 3D11
5507: 6709
5508: 1161
5509: 3B60
550A: 651C
550B: 0F0D
550C: 39A5
550D: 639E
550E: 0DE4
550F: 37DC
5510: 6022
5511: 0A14
5512: 3464
5513: 5E58
5514: 08E4
5515: 3299
5516: 5CD8
5517: 0920
5518: 3334
5519: 5D51
551A: 0795
551B: 31E1
551C: 5A21
551D: 046D
551E: 2EBF
551F: 58E7
5520: 0520
5521: 2F70
5522: 59A2
5523: 03B1
5524: 2C64
5525: 566C
5526: 009E
5527: 2AC1
5528: 571E
5529: 01A7
552A: 2BC9
552B: 541D
552C: 7EA5
552D: 28CE
552E: 5563
552F: 7FD5
5530: 2820
5531: 525D
5532: 7CF5
5533: 295D
5534: 53A7
5535: 7DC2
5536: 265E
5537: 50E3
5538: 7D7D
5539: 2797
553A: 501D
553B: 7AAC
553C: 2730
553D: 51B4
553E: 7A3F
553F: 24BB
5540: 5174
5541: 7BB8
5542: 2435
5543: 4EBE
5544: 7B2C
5545: 25AC
5546: 4E1E
5547: 788C
5548: 2567
5549: 4FE8
554A: 781E
554B: 228D
554C: 4FE4
554D: 7834
554E: 22F6
554F: 4F15
5550: 7820
5551: 229D
5552: 4F75
5553: 799D
5554: 22A1
5555: 4F04
5556: 79D7
5557: 22AD
5558: 4F60
5559: 79CD
555A: 22D0
555B: 4F7F
555C: 7821
555D: 22FA
555E: 4FB9
555F: 7866
5560: 2520
5561: 4FF0
5562: 78A2
5563: 253D
5564: 4E2D
5565: 78FE
5566: 25D0
5567: 4E56
5568: 7B71
5569: 2431
556A: 4E90
556B: 7B8E
556C: 24AB
556D: 514F
556E: 7A62
556F: 2710
5570: 5037
5571: 7AC1
5572: 27FC
5573: 5084
5574: 7DE8
5575: 260D
5576: 535E
5577: 7C6A
5578: 291E
5579: 5204
557A: 7F1E
557B: 2822
557C: 5529
557D: 7E3C
557E: 2B3C
557F: 543C
5580: 0131
5581: 2A26
5582: 5770
5583: 002E
5584: 2D2C
5585: 5622
5586: 0305
5587: 2C09
5588: 5970
5589: 0225
558A: 2F52
558B: 5848
558C: 05E4
558D: 2E98
558E: 5BE8
558F: 04C5
5590: 3031
5591: 5D07
5592: 0679
5593: 3358
5594: 5CAA
5595: 098E
5596: 32D5
5597: 5E21
5598: 0B38
5599: 3405
559A: 6192
559B: 0AF8
559C: 3630
559D: 633D
559E: 0CB2
559F: 39F0
55A0: 6523
55A1: 0E74
55A2: 3BA2
55A3: 64F8
55A4: 1064
55A5: 3D20
55A6: 66D0
55A7: 13CC
55A8: 3F72
55A9: 68E5
55AA: 15D9
55AB: 4119
55AC: 6AE4
55AD: 17D4
55AE: 4363
55AF: 6CD5
55B0: 1827
55B1: 4550
55B2: 6EE4
55B3: 1A5D
55B4: 47AD
55B5: 70C3
55B6: 1C53
55B7: 49EA
55B8: 7566
55B9: 1E97
55BA: 4A15
55BB: 77AE
55BC: 2330
55BD: 4CB1
55BE: 7829
55BF: 25F9
55C0: 5174
55C1: 7AA1
55C2: 2638
55C3: 53B8
55C4: 7F4E
55C5: 28A3
55C6: 541F
55C7: 0192
55C8: 2D39
55C9: 56E7
55CA: 0249
55CB: 2FDD
55CC: 5BA5
55CD: 070E
55CE: 30E3
55CF: 5C50
55D0: 0830
55D1: 35D5
55D2: 6173
55D3: 0AD2
55D4: 36AA
55D5: 620B
55D6: 0FD9
55D7: 3BB7
55D8: 6779
55D9: 10C4
55DA: 3C84
55DB: 6864
55DC: 142B
55DD: 41F3
55DE: 6DF0
55DF: 1978
55E0: 4531
55E1: 6EF6
55E2: 1AB8
55E3: 467C
55E4: 722A
55E5: 1FE4
55E6: 4B83
55E7: 7748
55E8: 2334
55E9: 4F32
55EA: 78D9
55EB: 2481
55EC: 50A8
55ED: 7C1D
55EE: 287E
55EF: 541A
55F0: 0020
55F1: 2D95
55F2: 59E0
55F3: 058F
55F4: 31AB
55F5: 5D59
55F6: 0955
55F7: 3566
55F8: 6160
55F9: 0D45
55FA: 3909
55FB: 6522
55FC: 1131
55FD: 3D7C
55FE: 695A
55FF: 155F
5600: 411B
5601: 6D33
5602: 1970
5603: 453E
5604: 712B
5605: 1D38
5606: 4902
5607: 7516
5608: 2171
5609: 4D29
560A: 7910
560B: 255E
560C: 51AD
560D: 7D93
560E: 29F3
560F: 55D0
5610: 0074
5611: 2C01
5612: 5875
5613: 0451
5614: 30A1
5615: 5C9D
5616: 08DF
5617: 3737
5618: 6360
5619: 0F44
561A: 3B84
561B: 67E4
561C: 122B
561D: 3E73
561E: 6AF0
561F: 16FC
5620: 4527
5621: 7135
5622: 1DB9
5623: 49F0
5624: 7434
5625: 2062
5626: 4C83
5627: 78D6
5628: 277D
5629: 53A7
562A: 7FDC
562B: 2A08
562C: 56E8
562D: 029D
562E: 3164
562F: 5D9D
5630: 083D
5631: 3446
5632: 60B0
5633: 0F14
5634: 3BB7
5635: 678D
5636: 1251
5637: 3EE9
5638: 6D78
5639: 19C5
563A: 4404
563B: 70A2
563C: 1F30
563D: 4BBC
563E: 763C
563F: 22B9
5640: 512D
5641: 7DF5
5642: 2822
5643: 54B4
5644: 0320
5645: 2FA4
5646: 5A13
5647: 0690
5648: 3578
5649: 61EA
564A: 0C45
564B: 38DE
564C: 67EA
564D: 127A
564E: 3EFA
564F: 6D5A
5650: 1821
5651: 4487
5652: 737E
5653: 1FDC
5654: 4AA8
5655: 77D9
5656: 25F6
5657: 50AC
5658: 7F66
5659: 2BC0
565A: 5696
565B: 0561
565C: 302D
565D: 5CF8
565E: 0BA3
565F: 3635
5660: 6523
5661: 11F0
5662: 3CA2
5663: 6B78
5664: 1664
5665: 42F8
5666: 7183
5667: 1C4C
5668: 4B7A
5669: 7622
566A: 2290
566B: 5199
566C: 7CAC
566D: 2B54
566E: 5663
566F: 0555
5670: 3030
5671: 5CC0
5672: 0BE3
5673: 3689
5674: 65BD
5675: 100D
5676: 3F5F
5677: 6A69
5678: 1970
5679: 4445
567A: 731A
567B: 1E22
567C: 4D31
567D: 782F
567E: 273E
567F: 5234
5680: 0138
5681: 2C75
5682: 5B31
5683: 062E
5684: 3564
5685: 602C
5686: 0F50
5687: 3A17
5688: 6971
5689: 1476
568A: 4344
568B: 6E44
568C: 1DAA
568D: 489A
568E: 77B0
568F: 22C6
5690: 5024
5691: 7F1A
5692: 2A64
5693: 591D
5694: 04B1
5695: 3383
5696: 5EC4
5697: 0C2C
5698: 3B78
5699: 6605
569A: 1589
569B: 40E2
569C: 6E31
569D: 1D3D
569E: 48A3
569F: 77F6
56A0: 2535
56A1: 5067
56A2: 7FB5
56A3: 2AF9
56A4: 5864
56A5: 0779
56A6: 3298
56A7: 61C0
56A8: 0F79
56A9: 3AE5
56AA: 69DF
56AB: 170B
56AC: 42A2
56AD: 7193
56AE: 1F30
56AF: 4AD5
56B0: 781D
56B1: 2741
56B2: 52B0
56B3: 000F 2FA1 5ACC      RMEM 2FA1 5ACC
56B6: 0854
56B7: 37F6
56B8: 652E
56B9: 10EF
56BA: 3E7A
56BB: 6D89
56BC: 1B25
56BD: 46A4
56BE: 7470
56BF: 23E4
56C0: 516E
56C1: 7CF5
56C2: 2A07
56C3: 59B8
56C4: 0764
56C5: 32A5
56C6: 6011
56C7: 0F93
56C8: 3D71
56C9: 68A5
56CA: 1642
56CB: 45C8
56CC: 73A5
56CD: 211E
56CE: 4CF8
56CF: 7A50
56D0: 2830
56D1: 57D5
56D2: 0567
56D3: 30D5
56D4: 5EA5
56D5: 0C19
56D6: 3B90
56D7: 69B6
56D8: 1771
56D9: 42C0
56DA: 709D
56DB: 1E7E
56DC: 4C64
56DD: 7BE9
56DE: 29BF
56DF: 5735
56E0: 0536
56E1: 30F0
56E2: 5EF0
56E3: 0C69
56E4: 3A2C
56E5: 69E8
56E6: 17D0
56E7: 4543
56E8: 737D
56E9: 212B
56EA: 4CD1
56EB: 7A81
56EC: 28E4
56ED: 5654
56EE: 047E
56EF: 3255
56F0: 6035
56F1: 0F95
56F2: 3DE3
56F3: 6B98
56F4: 19B6
56F5: 4744
56F6: 7555
56F7: 2376
56F8: 5134
56F9: 7F0A
56FA: 2D16
56FB: 5B6D
56FC: 0934
56FD: 3728
56FE: 652A
56FF: 132F
5700: 4138
5701: 6F30
5702: 1D23
5703: 4B7D
5704: 7923
5705: 2738
5706: 5511
5707: 0317
5708: 3170
5709: 5F6C
570A: 0D5E
570B: 3B4A
570C: 69E4
570D: 179C
570E: 45FE
570F: 7395
5710: 2035
5711: 4E1B
5712: 7C73
5713: 2A54
5714: 58A1
5715: 0683
5716: 34C4
5717: 6565
5718: 1360
5719: 4157
571A: 6F95
571B: 1DEC
571C: 4A37
571D: 7868
571E: 26A2
571F: 54F0
5720: 057A
5721: 3335
5722: 61F0
5723: 0FD4
5724: 3C64
5725: 6A7E
5726: 1885
5727: 46D6
5728: 7764
5729: 25A0
572A: 53D3
572B: 0019
572C: 2EE4
572D: 5CD0
572E: 0D7F
572F: 3B86
5730: 6820
5731: 1615
5732: 44F1
5733: 7519
5734: 23B2
5735: 51C8
5736: 7E5E
5737: 2CF1
5738: 5D61
5739: 0B97
573A: 3815
573B: 66BF
573C: 1737
573D: 45FD
573E: 7237
573F: 20BC
5740: 5122
5741: 7FB0
5742: 2C70
5743: 5AA8
5744: 0B34
5745: 39ED
5746: 661C
5747: 148A
5748: 457A
5749: 73E2
574A: 2010
574B: 4ECF
574C: 7FA1
574D: 2C1B
574E: 5AFF
574F: 0B47
5750: 3831
5751: 66D5
5752: 1764
5753: 45D5
5754: 72AD
5755: 231E
5756: 5190
5757: 7EB5
5758: 2F7B
5759: 5DCC
575A: 0A9E
575B: 3B79
575C: 6868
575D: 16BD
575E: 47B2
575F: 7460
5760: 2520
5761: 53B5
5762: 00A7
5763: 3178
5764: 5E63
5765: 0CFF
5766: 3D95
5767: 6A05
5768: 1B67
5769: 482A
576A: 7690
576B: 278E
576C: 54A8
576D: 0552
576E: 3263
576F: 6310
5770: 1075
5771: 3E95
5772: 6FB0
5773: 1CAA
5774: 4DA1
5775: 7A0D
5776: 2B5D
5777: 5870
5778: 0967
5779: 3611
577A: 6750
577B: 143D
577C: 4536
577D: 7238
577E: 2323
577F: 5026
5780: 0174
5781: 2E3A
5782: 5F3E
5783: 0C7C
5784: 3D4E
5785: 6A47
5786: 1B34
5787: 4804
5788: 796D
5789: 2625
578A: 5701
578B: 0417
578C: 35E4
578D: 62AD
578E: 13BE
578F: 40E6
5790: 707A
5791: 214F
5792: 4E30
5793: 7F74
5794: 2CB0
5795: 5DCA
5796: 0AC3
5797: 3A65
5798: 6B75
5799: 1805
579A: 4997
579B: 76E2
579C: 262B
579D: 5779
579E: 04F0
579F: 35E1
57A0: 653C
57A1: 127C
57A2: 43BE
57A3: 70FA
57A4: 2064
57A5: 5179
57A6: 7E98
57A7: 2FC0
57A8: 5F34
57A9: 0CAC
57AA: 3DC3
57AB: 6D01
57AC: 1AA5
57AD: 4BD3
57AE: 7B74
57AF: 28D5
57B0: 583D
57B1: 0946
57B2: 36B0
57B3: 6609
57B4: 17B6
57B5: 44C2
57B6: 7440
57B7: 25EC
57B8: 5577
57B9: 0284
57BA: 321C
57BB: 63E3
57BC: 1364
57BD: 40FD
57BE: 7007
57BF: 21B0
57C0: 5174
57C1: 7EA6
57C2: 2E38
57C3: 5FB2
57C4: 0F31
57C5: 3CA1
57C6: 6C14
57C7: 1DC5
57C8: 4D7C
57C9: 7AE4
57CA: 2A46
57CB: 5BC8
57CC: 0BE4
57CD: 3B1B
57CE: 68FF
57CF: 185A
57D0: 4830
57D1: 79D5
57D2: 2976
57D3: 56D2
57D4: 06B6
57D5: 364D
57D6: 67C7
57D7: 17A0
57D8: 4771
57D9: 74CE
57DA: 2483
57DB: 542C
57DC: 044E
57DD: 3597
57DE: 6594
57DF: 1574
57E0: 452D
57E1: 72B5
57E2: 22E2
57E3: 5227
57E4: 0264
57E5: 33D9
57E6: 6398
57E7: 1340
57E8: 4334
57E9: 7333
57EA: 20D1
57EB: 5098
57EC: 00A8
57ED: 3049
57EE: 6030
57EF: 1014
57F0: 4024
57F1: 71C5
57F2: 21F5
57F3: 519C
57F4: 01B6
57F5: 315E
57F6: 6110
57F7: 1171
57F8: 417B
57F9: 7145
57FA: 2112
57FB: 5128
57FC: 0164
57FD: 312E
57FE: 6135
57FF: 1134
5800: 4138
5801: 7130
5802: 2134
5803: 517D
5804: 0126
5805: 3134
5806: 6150
5807: 1104
5808: 4134
5809: 7168
580A: 2149
580B: 515E
580C: 01B0
580D: 3198
580E: 61E2
580F: 11DC
5810: 403B
5811: 7000
5812: 2063
5813: 501D
5814: 00A2
5815: 3082
5816: 60C2
5817: 1326
5818: 4371
5819: 7305
581A: 23DD
581B: 53AD
581C: 0230
581D: 3275
581E: 62B5
581F: 12B5
5820: 4530
5821: 757A
5822: 25BF
5823: 55EF
5824: 0464
5825: 347A
5826: 649F
5827: 14CB
5828: 4733
5829: 77B1
582A: 2790
582B: 560F
582C: 06B1
582D: 36D9
582E: 6977
582F: 1990
5830: 4874
5831: 7854
5832: 28FE
5833: 5B5D
5834: 0BAD
5835: 3BC3
5836: 6A53
5837: 1AED
5838: 4D3A
5839: 7DC5
583A: 2C50
583B: 5C9A
583C: 0F21
583D: 3FFD
583E: 6E34
583F: 1EBA
5840: 513A
5841: 01F2
5842: 3024
5843: 60FD
5844: 132C
5845: 43AC
5846: 7206
5847: 2280
5848: 5534
5849: 05F1
584A: 3458
584B: 64C8
584C: 17E4
584D: 460F
584E: 76F5
584F: 2946
5850: 583B
5851: 0880
5852: 3B62
5853: 6BDE
5854: 1AA1
5855: 4D1E
5856: 7D90
5857: 2CB1
5858: 5F7B
5859: 0F85
585A: 3E92
585B: 7161
585C: 202B
585D: 50EA
585E: 03F0
585F: 327C
5860: 6520
5861: 15B5
5862: 44BF
5863: 776D
5864: 2621
5865: 56E3
5866: 09DC
5867: 3805
5868: 6B75
5869: 1A2B
586A: 4AD4
586B: 7DCD
586C: 2C8D
586D: 5F1D
586E: 0E67
586F: 411A
5870: 7021
5871: 20D9
5872: 53F4
5873: 0293
5874: 35E3
5875: 6459
5876: 1710
5877: 4677
5878: 797D
5879: 2816
587A: 5B1B
587B: 0A6D
587C: 3D20
587D: 6C3C
587E: 1F3D
587F: 4E34
5880: 0133
5881: 303C
5882: 633E
5883: 123A
5884: 4564
5885: 7439
5886: 2718
5887: 5600
5888: 0934
5889: 3866
588A: 6B5F
588B: 1A43
588C: 4DB0
588D: 7C98
588E: 2FFE
588F: 5EC1
5890: 1027
5891: 4355
5892: 7275
5893: 254B
5894: 54A1
5895: 0783
5896: 3690
5897: 682C
5898: 1B72
5899: 4A05
589A: 7D87
589B: 2CE8
589C: 5E64
589D: 1179
589E: 40B9
589F: 73F1
58A0: 257A
58A1: 5435
58A2: 07F0
58A3: 36CA
58A4: 6821
58A5: 1B2A
58A6: 4A9C
58A7: 7DC9
58A8: 2F34
58A9: 5EAD
58AA: 11D1
58AB: 431B
58AC: 72A1
58AD: 259D
58AE: 5764
58AF: 069A
58B0: 3874
58B1: 6B53
58B2: 1AF9
58B3: 4C1A
58B4: 7FB1
58B5: 2EDF
58B6: 6055
58B7: 13A5
58B8: 457B
58B9: 7490
58BA: 2604
58BB: 59ED
58BC: 0B30
58BD: 3AB5
58BE: 6C35
58BF: 1FF5
58C0: 5138
58C1: 00BA
58C2: 3233
58C3: 65B6
58C4: 1764
58C5: 46A0
58C6: 7815
58C7: 2B86
58C8: 5D7C
58C9: 0CE4
58CA: 3E5E
58CB: 71C4
58CC: 23B7
58CD: 5510
58CE: 04BE
58CF: 363F
58D0: 685E
58D1: 1BB1
58D2: 4D71
58D3: 7CC4
58D4: 2EE4
58D5: 605E
58D6: 138A
58D7: 45E5
58D8: 7740
58D9: 26CD
58DA: 5895
58DB: 0A2D
58DC: 3C20
58DD: 6FF2
58DE: 21BF
58DF: 5367
58E0: 0574
58E1: 34E1
58E2: 66BF
58E3: 183D
58E4: 4A30
58E5: 7DE5
58E6: 2F95
58E7: 6105
58E8: 1362
58E9: 4524
58EA: 74C5
58EB: 2681
58EC: 58B0
58ED: 0A1D
58EE: 3C78
58EF: 6E14
58F0: 2027
58F1: 5395
58F2: 05F1
58F3: 37DD
58F4: 69AA
58F5: 1B58
58F6: 4D5D
58F7: 7F67
58F8: 3171
58F9: 6317
58FA: 1550
58FB: 472E
58FC: 7925
58FD: 2B2F
58FE: 5D26
58FF: 0F30
5900: 4130
5901: 7375
5902: 2539
5903: 5733
5904: 0930
5905: 3B22
5906: 6D50
5907: 1F0C
5908: 5160
5909: 032B
590A: 3510
590B: 670D
590C: 1981
590D: 4B9C
590E: 7DF3
590F: 2FDD
5910: 6074
5911: 1207
5912: 447F
5913: 7652
5914: 28A9
5915: 5ACD
5916: 0CDC
5917: 4120
5918: 7375
5919: 2541
591A: 5799
591B: 09E3
591C: 3A23
591D: 6C3D
591E: 1EA5
591F: 50E5
5920: 0574
5921: 3761
5922: 69BF
5923: 1BBD
5924: 4C30
5925: 7E65
5926: 3095
5927: 6285
5928: 1762
5929: 49A4
592A: 7BC5
592B: 2C01
592C: 5EB0
592D: 109D
592E: 4578
592F: 7794
5930: 2827
5931: 5A15
5932: 0CFD
5933: 4112
5934: 73B6
5935: 25C8
5936: 5610
5937: 08EB
5938: 3D61
5939: 6F88
593A: 2012
593B: 52A8
593C: 0736
593D: 39AE
593E: 6A70
593F: 1CBA
5940: 5126
5941: 03F5
5942: 3423
5943: 66A4
5944: 1B29
5945: 4DAF
5946: 7E1F
5947: 3089
5948: 6567
5949: 17A5
594A: 4855
594B: 7AC0
594C: 2FA6
594D: 6018
594E: 12F4
594F: 4751
5950: 7831
5951: 2A91
5952: 5F30
5953: 11D4
5954: 42AA
5955: 774D
5956: 29DD
5957: 5AAA
5958: 0F67
5959: 41C4
595A: 7299
595B: 276E
595C: 5837
595D: 0ABD
595E: 3FB9
595F: 707B
5960: 2574
5961: 57E1
5962: 08B8
5963: 3D78
5964: 6E64
5965: 20EB
5966: 559C
5967: 064A
5968: 3B7B
5969: 6C37
596A: 1EC3
596B: 53C3
596C: 04E4
596D: 391D
596E: 6A47
596F: 1F10
5970: 5074
5971: 02D0
5972: 37E6
5973: 6898
5974: 1DAA
5975: 4E0D
5976: 0356
5977: 346A
5978: 6961
5979: 1A0B
597A: 4F14
597B: 006D
597C: 3525
597D: 667D
597E: 1B23
597F: 4C21
5980: 0126
5981: 3234
5982: 673E
5983: 183A
5984: 4D21
5985: 7E6D
5986: 3317
5987: 6409
5988: 1975
5989: 4A76
598A: 7F43
598B: 300D
598C: 65AB
598D: 168F
598E: 4BF2
598F: 7C95
5990: 303D
5991: 651B
5992: 1630
5993: 4B49
5994: 7CAC
5995: 3188
5996: 6290
5997: 1624
5998: 4B7A
5999: 7C51
599A: 3195
599B: 62EE
599C: 162C
599D: 4B7C
599E: 7CBD
599F: 31F7
59A0: 6531
59A1: 1667
59A2: 4BF0
59A3: 7CF2
59A4: 302A
59A5: 652D
59A6: 1691
59A7: 4B85
59A8: 7F64
59A9: 30A0
59AA: 65D4
59AB: 1908
59AC: 4AB7
59AD: 7FC9
59AE: 3371
59AF: 6499
59B0: 1874
59B1: 4D5C
59B2: 7EE4
59B3: 320E
59B4: 67A1
59B5: 18C1
59B6: 4C56
59B7: 01A5
59B8: 3578
59B9: 6684
59BA: 1A12
59BB: 4FA8
59BC: 0328
59BD: 34B8
59BE: 6834
59BF: 1DF5
59C0: 5123
59C1: 02BC
59C2: 3624
59C3: 6BB5
59C4: 1F64
59C5: 50AC
59C6: 0450
59C7: 398B
59C8: 6D61
59C9: 1EE8
59CA: 5252
59CB: 07C8
59CC: 3BB6
59CD: 6F53
59CE: 20B0
59CF: 5415
59D0: 0803
59D1: 3D9D
59D2: 7171
59D3: 22C9
59D4: 56E4
59D5: 0A0E
59D6: 3FDF
59D7: 73B0
59D8: 2778
59D9: 58C1
59DA: 0CD0
59DB: 4079
59DC: 742C
59DD: 29F8
59DE: 5DA9
59DF: 1135
59E0: 4539
59E1: 76F0
59E2: 2AB1
59E3: 5E73
59E4: 127B
59E5: 4787
59E6: 7BFA
59E7: 2F61
59E8: 6375
59E9: 173C
59EA: 4890
59EB: 7CD8
59EC: 30FE
59ED: 641D
59EE: 1847
59EF: 4C10
59F0: 0074
59F1: 35D3
59F2: 69F9
59F3: 1D93
59F4: 51A5
59F5: 0541
59F6: 395C
59F7: 6D7C
59F8: 2134
59F9: 5507
59FA: 0905
59FB: 3D24
59FC: 7128
59FD: 2529
59FE: 5970
59FF: 0D20
5A00: 4124
5A01: 7575
5A02: 2924
5A03: 5D35
5A04: 1121
5A05: 456D
5A06: 7913
5A07: 2D0A
5A08: 6161
5A09: 1577
5A0A: 4951
5A0B: 7D4A
5A0C: 31A1
5A0D: 65DD
5A0E: 19E4
5A0F: 4DDA
5A10: 0074
5A11: 3401
5A12: 687F
5A13: 1C48
5A14: 50A7
5A15: 0485
5A16: 3890
5A17: 6F31
5A18: 237C
5A19: 5740
5A1A: 0BD0
5A1B: 3FFE
5A1C: 7230
5A1D: 266F
5A1E: 5AB1
5A1F: 0EFB
5A20: 4533
5A21: 7970
5A22: 2DF0
5A23: 61F2
5A24: 1436
5A25: 486F
5A26: 7CD0
5A27: 30CC
5A28: 677A
5A29: 1BE5
5A2A: 4FC4
5A2B: 0205
5A2C: 36A1
5A2D: 6A9D
5A2E: 2171
5A2F: 559B
5A30: 0820
5A31: 3C50
5A32: 70F3
5A33: 2715
5A34: 5BA5
5A35: 0FC0
5A36: 4252
5A37: 76E0
5A38: 2D66
5A39: 61CB
5A3A: 1450
5A3B: 48ED
5A3C: 7F0D
5A3D: 33A9
5A3E: 6670
5A3F: 1AB3
5A40: 5138
5A41: 05B4
5A42: 3823
5A43: 6CB5
5A44: 2321
5A45: 57BE
5A46: 0A50
5A47: 3E86
5A48: 757B
5A49: 29E9
5A4A: 5C5F
5A4B: 10DF
5A4C: 47B7
5A4D: 7A5D
5A4E: 2EF1
5A4F: 6546
5A50: 1874
5A51: 4C82
5A52: 0375
5A53: 379D
5A54: 6AA7
5A55: 210C
5A56: 55C2
5A57: 08B7
5A58: 3F6D
5A59: 7385
5A5A: 2699
5A5B: 5D79
5A5C: 1064
5A5D: 44FB
5A5E: 7BA2
5A5F: 2E7A
5A60: 6539
5A61: 19B5
5A62: 4CA2
5A63: 0372
5A64: 362B
5A65: 6AE0
5A66: 21D0
5A67: 5451
5A68: 0B7B
5A69: 3E65
5A6A: 72C2
5A6B: 2982
5A6C: 5CAB
5A6D: 1350
5A6E: 463C
5A6F: 7D55
5A70: 3035
5A71: 64DB
5A72: 1BF4
5A73: 4EDD
5A74: 05B7
5A75: 3842
5A76: 6F5D
5A77: 2260
5A78: 5960
5A79: 0C0C
5A7A: 431D
5A7B: 7628
5A7C: 2D37
5A7D: 607D
5A7E: 1724
5A7F: 4A3D
5A80: 0131
5A81: 3475
5A82: 6B23
5A83: 1E24
5A84: 5529
5A85: 082F
5A86: 3F1F
5A87: 7209
5A88: 2967
5A89: 5C25
5A8A: 1359
5A8B: 4643
5A8C: 7DE4
5A8D: 3089
5A8E: 67F8
5A8F: 1AD0
5A90: 5074
5A91: 0707
5A92: 3A7F
5A93: 7152
5A94: 24A9
5A95: 5B9E
5A96: 0E90
5A97: 4423
5A98: 7B78
5A99: 2E44
5A9A: 6583
5A9B: 18E5
5A9C: 4E64
5A9D: 057E
5A9E: 38BF
5A9F: 6FF9
5AA0: 253B
5AA1: 5867
5AA2: 0FA3
5AA3: 42BD
5AA4: 7825
5AA5: 2F7E
5AA6: 62D0
5AA7: 19D2
5AA8: 4F71
5AA9: 02A9
5AAA: 39DC
5AAB: 6F43
5AAC: 22E4
5AAD: 599D
5AAE: 0F59
5AAF: 4281
5AB0: 7874
5AB1: 2F46
5AB2: 62F9
5AB3: 1810
5AB4: 4FB4
5AB5: 02C1
5AB6: 3849
5AB7: 6FA5
5AB8: 2571
5AB9: 5893
5ABA: 0E11
5ABB: 45BD
5ABC: 7B2B
5ABD: 2EAF
5ABE: 6431
5ABF: 1BA1
5AC0: 5131
5AC1: 04A6
5AC2: 3A70
5AC3: 71B4
5AC4: 2722
5AC5: 5AED
5AC6: 1007
5AC7: 4780
5AC8: 7D34
5AC9: 30F1
5ACA: 6642
5ACB: 1DD4
5ACC: 53E4
5ACD: 0909
5ACE: 3CFF
5ACF: 7215
5AD0: 2838
5AD1: 5F90
5AD2: 1571
5AD3: 48CB
5AD4: 7EA1
5AD5: 344D
5AD6: 6BC7
5AD7: 21AC
5AD8: 5760
5AD9: 0ACD
5ADA: 40D0
5ADB: 7664
5ADC: 2C30
5ADD: 63B1
5ADE: 19F0
5ADF: 4F77
5AE0: 0521
5AE1: 38E1
5AE2: 6EF0
5AE3: 247C
5AE4: 5A2A
5AE5: 11E2
5AE6: 4784
5AE7: 7D4D
5AE8: 3371
5AE9: 6937
5AEA: 1C90
5AEB: 528C
5AEC: 08B4
5AED: 3E4D
5AEE: 7475
5AEF: 2A14
5AF0: 6026
5AF1: 17C6
5AF2: 4DB0
5AF3: 0392
5AF4: 39AA
5AF5: 6F0D
5AF6: 2544
5AF7: 5B6D
5AF8: 1171
5AF9: 4745
5AFA: 7D00
5AFB: 3328
5AFC: 6920
5AFD: 1F38
5AFE: 5523
5AFF: 0B21
5B00: 4135
5B01: 7739
5B02: 2D70
5B03: 6334
5B04: 192A
5B05: 4F6D
5B06: 0504
5B07: 3B0D
5B08: 7171
5B09: 2725
5B0A: 5D51
5B0B: 1343
5B0C: 49B0
5B0D: 7F98
5B0E: 35F3
5B0F: 6BDD
5B10: 2035
5B11: 5618
5B12: 0C72
5B13: 4258
5B14: 78B6
5B15: 2ECD
5B16: 64C3
5B17: 1D2D
5B18: 537B
5B19: 0957
5B1A: 3F84
5B1B: 75E1
5B1C: 2A3D
5B1D: 603D
5B1E: 16A4
5B1F: 4CFD
5B20: 0531
5B21: 3B67
5B22: 71B5
5B23: 27FC
5B24: 5C22
5B25: 1279
5B26: 4895
5B27: 7ED7
5B28: 373A
5B29: 6DE5
5B2A: 2390
5B2B: 5824
5B2C: 0EB0
5B2D: 449D
5B2E: 7D71
5B2F: 3399
5B30: 6827
5B31: 1E5A
5B32: 54B0
5B33: 0D0E
5B34: 43A1
5B35: 79C8
5B36: 2E5D
5B37: 64F6
5B38: 1D34
5B39: 5391
5B3A: 081F
5B3B: 3EED
5B3C: 7720
5B3D: 2DB2
5B3E: 6270
5B3F: 18A1
5B40: 513C
5B41: 07BC
5B42: 3C23
5B43: 72FD
5B44: 2B21
5B45: 61BB
5B46: 1615
5B47: 4C8B
5B48: 0534
5B49: 3BF2
5B4A: 7058
5B4B: 26C8
5B4C: 5FAA
5B4D: 145D
5B4E: 4AE7
5B4F: 0350
5B50: 3874
5B51: 6E87
5B52: 2775
5B53: 5DC9
5B54: 12B1
5B55: 4B1F
5B56: 01DE
5B57: 36E5
5B58: 6F63
5B59: 25CC
5B5A: 5A84
5B5B: 1365
5B5C: 4864
5B5D: 7EF4
5B5E: 37A4
5B5F: 6C35
5B60: 2520
5B61: 5BFA
5B62: 10F0
5B63: 4969
5B64: 7E2C
5B65: 34E8
5B66: 6DD0
5B67: 2244
5B68: 5B7A
5B69: 1031
5B6A: 46D5
5B6B: 7F8E
5B6C: 34AC
5B6D: 6D5C
5B6E: 227D
5B6F: 5B17
5B70: 1031
5B71: 46C7
5B72: 7FB0
5B73: 349B
5B74: 6DB6
5B75: 2242
5B76: 5B5D
5B77: 1025
5B78: 4960
5B79: 7E0D
5B7A: 3715
5B7B: 6C6D
5B7C: 252B
5B7D: 5A29
5B7E: 1338
5B7F: 4830
5B80: 0126
5B81: 3675
5B82: 6F22
5B83: 2432
5B84: 5D2B
5B85: 1220
5B86: 4B03
5B87: 004B
5B88: 391E
5B89: 6E0F
5B8A: 2774
5B8B: 5C4C
5B8C: 15BD
5B8D: 4ADD
5B8E: 03A8
5B8F: 388F
5B90: 7074
5B91: 2922
5B92: 5E78
5B93: 1758
5B94: 4CAA
5B95: 05CD
5B96: 3AC4
5B97: 722D
5B98: 2B71
5B99: 6005
5B9A: 199F
5B9B: 4EFF
5B9C: 0626
5B9D: 3F3D
5B9E: 74B9
5B9F: 2DE6
5BA0: 6574
5BA1: 1A76
5BA2: 53B1
5BA3: 08EF
5BA4: 4036
5BA5: 7964
5BA6: 2E95
5BA7: 67C1
5BA8: 1F34
5BA9: 54B1
5BAA: 0DDF
5BAB: 454D
5BAC: 7AB0
5BAD: 33D5
5BAE: 6B75
5BAF: 20D5
5BB0: 5822
5BB1: 1154
5BB2: 46E5
5BB3: 7E11
5BB4: 37B0
5BB5: 6C8D
5BB6: 2454
5BB7: 5DEA
5BB8: 157B
5BB9: 4A97
5BBA: 025C
5BBB: 3BED
5BBC: 7330
5BBD: 28B5
5BBE: 6035
5BBF: 19F5
5BC0: 513A
5BC1: 06A0
5BC2: 3E3D
5BC3: 77BF
5BC4: 2F21
5BC5: 64BF
5BC6: 1C03
5BC7: 55C5
5BC8: 0D7B
5BC9: 42EB
5BCA: 7A10
5BCB: 33D9
5BCC: 6BAC
5BCD: 2318
5BCE: 58B0
5BCF: 1051
5BD0: 483B
5BD1: 019A
5BD2: 3962
5BD3: 6E9D
5BD4: 26A2
5BD5: 5E01
5BD6: 17D1
5BD7: 4FB6
5BD8: 077C
5BD9: 3C85
5BDA: 7492
5BDB: 2C61
5BDC: 6425
5BDD: 1DFE
5BDE: 55BB
5BDF: 0D39
5BE0: 4574
5BE1: 7AF4
5BE2: 32BE
5BE3: 6A79
5BE4: 2264
5BE5: 5BF9
5BE6: 1398
5BE7: 4B40
5BE8: 037A
5BE9: 3B65
5BEA: 70C4
5BEB: 2885
5BEC: 60A1
5BED: 181D
5BEE: 507F
5BEF: 0807
5BF0: 4036
5BF1: 7995
5BF2: 31F5
5BF3: 698B
5BF4: 21A5
5BF5: 595D
5BF6: 115F
5BF7: 4977
5BF8: 0175
5BF9: 3911
5BFA: 7115
5BFB: 293E
5BFC: 616A
5BFD: 197D
5BFE: 5170
5BFF: 0911
5C00: 413D
5C01: 7931
5C02: 3170
5C03: 692A
5C04: 2121
5C05: 596D
5C06: 1114
5C07: 490A
5C08: 0134
5C09: 3976
5C0A: 715F
5C0B: 2940
5C0C: 61A1
5C0D: 1989
5C0E: 51F8
5C0F: 09DC
5C10: 403A
5C11: 7812
5C12: 3030
5C13: 684A
5C14: 20B6
5C15: 5882
5C16: 10DE
5C17: 4B22
5C18: 032B
5C19: 3B05
5C1A: 73D0
5C1B: 2BC9
5C1C: 622B
5C1D: 1A78
5C1E: 52A3
5C1F: 0AFB
5C20: 4573
5C21: 7D61
5C22: 35F0
5C23: 6DE9
5C24: 242C
5C25: 5C68
5C26: 14D0
5C27: 4CC1
5C28: 077B
5C29: 3FAA
5C2A: 77C2
5C2B: 2E4D
5C2C: 66A8
5C2D: 1ED4
5C2E: 597B
5C2F: 1190
5C30: 4874
5C31: 0040
5C32: 38E3
5C33: 7342
5C34: 2BE4
5C35: 638D
5C36: 1A67
5C37: 52E0
5C38: 0D34
5C39: 4584
5C3A: 7C1C
5C3B: 34BE
5C3C: 6F2B
5C3D: 27FD
5C3E: 5E36
5C3F: 16BA
5C40: 5121
5C41: 09BB
5C42: 4034
5C43: 78FD
5C44: 3325
5C45: 6BED
5C46: 2203
5C47: 5A88
5C48: 1575
5C49: 4DE9
5C4A: 045C
5C4B: 3C8D
5C4C: 77AC
5C4D: 2E12
5C4E: 66E5
5C4F: 2147
5C50: 5833
5C51: 1099
5C52: 4B71
5C53: 03CE
5C54: 3AB7
5C55: 754D
5C56: 2DDE
5C57: 64A0
5C58: 1F75
5C59: 57D7
5C5A: 0ED0
5C5B: 4979
5C5C: 002C
5C5D: 38F8
5C5E: 73F0
5C5F: 2A71
5C60: 653B
5C61: 1DFA
5C62: 54A2
5C63: 0F31
5C64: 4664
5C65: 7EE8
5C66: 399E
5C67: 7041
5C68: 2B78
5C69: 6220
5C6A: 1AC3
5C6B: 559E
5C6C: 0CA8
5C6D: 4744
5C6E: 7E30
5C6F: 3907
5C70: 7021
5C71: 28DB
5C72: 63FE
5C73: 1A94
5C74: 55AA
5C75: 0C4A
5C76: 471E
5C77: 7E25
5C78: 3934
5C79: 702C
5C7A: 2B03
5C7B: 626D
5C7C: 1D2D
5C7D: 5429
5C7E: 0F70
5C7F: 4622
5C80: 0135
5C81: 383C
5C82: 7324
5C83: 2A34
5C84: 652A
5C85: 1C2A
5C86: 5750
5C87: 0E03
5C88: 497B
5C89: 0077
5C8A: 3B10
5C8B: 725E
5C8C: 2DAB
5C8D: 6490
5C8E: 1FF5
5C8F: 56C1
5C90: 103C
5C91: 4B1C
5C92: 027E
5C93: 3D5A
5C94: 74FB
5C95: 2FE7
5C96: 66BA
5C97: 2001
5C98: 5B75
5C99: 125C
5C9A: 4DD0
5C9B: 04BC
5C9C: 3E77
5C9D: 7927
5C9E: 30F0
5C9F: 6BC6
5CA0: 253B
5CA1: 5C78
5CA2: 17B5
5CA3: 4EBD
5CA4: 082B
5CA5: 436B
5CA6: 7AD0
5CA7: 35C8
5CA8: 6F6D
5CA9: 26E5
5CAA: 61D3
5CAB: 1B1F
5CAC: 52A1
5CAD: 0DCA
5CAE: 4730
5CAF: 7E86
5CB0: 3823
5CB1: 7350
5CB2: 2AF1
5CB3: 640F
5CB4: 1FE4
5CB5: 56D9
5CB6: 1058
5CB7: 4BE0
5CB8: 0534
5CB9: 3C8A
5CBA: 7602
5CBB: 31AF
5CBC: 6B64
5CBD: 22BC
5CBE: 5C33
5CBF: 17A1
5CC0: 5121
5CC1: 08B4
5CC2: 423C
5CC3: 7DB1
5CC4: 373D
5CC5: 6EED
5CC6: 2817
5CC7: 6380
5CC8: 1D60
5CC9: 54F6
5CCA: 0E10
5CCB: 49C5
5CCC: 03A1
5CCD: 3D1C
5CCE: 74E6
5CCF: 2E50
5CD0: 6826
5CD1: 23D5
5CD2: 5D7F
5CD3: 14CF
5CD4: 4EE4
5CD5: 0801
5CD6: 43D9
5CD7: 7DA2
5CD8: 377C
5CD9: 6ED1
5CDA: 2895
5CDB: 627F
5CDC: 1C64
5CDD: 57FC
5CDE: 11A3
5CDF: 4B35
5CE0: 0520
5CE1: 3CFD
5CE2: 76B5
5CE3: 3064
5CE4: 6A64
5CE5: 25FA
5CE6: 5F91
5CE7: 1949
5CE8: 537F
5CE9: 0D65
5CEA: 44D1
5CEB: 7E9F
5CEC: 38AB
5CED: 7248
5CEE: 2C7E
5CEF: 6611
5CF0: 2074
5CF1: 5BC2
5CF2: 15F9
5CF3: 4F89
5CF4: 09AC
5CF5: 430D
5CF6: 7D59
5CF7: 3771
5CF8: 713A
5CF9: 2B45
5CFA: 6550
5CFB: 1F04
5CFC: 5937
5CFD: 137D
5CFE: 4D24
5CFF: 073D
5D00: 4135
5D01: 7B21
5D02: 3570
5D03: 6F38
5D04: 2932
5D05: 6328
5D06: 1D1E
5D07: 5745
5D08: 1164
5D09: 4B6A
5D0A: 0543
5D0B: 3F5E
5D0C: 79AD
5D0D: 339F
5D0E: 6DFC
5D0F: 27D0
5D10: 606B
5D11: 1A55
5D12: 5430
5D13: 0E69
5D14: 48AC
5D15: 0288
5D16: 3CC9
5D17: 7965
5D18: 3367
5D19: 6D44
5D1A: 2789
5D1B: 61AD
5D1C: 1A30
5D1D: 5475
5D1E: 0EB1
5D1F: 48E1
5D20: 0574
5D21: 3F7C
5D22: 79B6
5D23: 33BD
5D24: 6C30
5D25: 2665
5D26: 6095
5D27: 1ADC
5D28: 5734
5D29: 11B2
5D2A: 4BD1
5D2B: 0401
5D2C: 3EAF
5D2D: 789D
5D2E: 3564
5D2F: 6F9D
5D30: 2826
5D31: 625A
5D32: 1CE5
5D33: 591A
5D34: 13AC
5D35: 4D8D
5D36: 0653
5D37: 40E0
5D38: 7D66
5D39: 3791
5D3A: 7011
5D3B: 2AA4
5D3C: 672A
5D3D: 21FD
5D3E: 5A22
5D3F: 14BA
5D40: 513B
5D41: 0BB8
5D42: 4423
5D43: 7EFD
5D44: 3B36
5D45: 75A8
5D46: 2E00
5D47: 6880
5D48: 2575
5D49: 5FF1
5D4A: 1855
5D4B: 52C9
5D4C: 0FA8
5D4D: 4804
5D4E: 02BC
5D4F: 3F15
5D50: 7820
5D51: 329D
5D52: 6F75
5D53: 29C4
5D54: 62E4
5D55: 1F0B
5D56: 59D5
5D57: 12A0
5D58: 4F78
5D59: 0985
5D5A: 4299
5D5B: 7F79
5D5C: 3864
5D5D: 72FA
5D5E: 2FB5
5D5F: 6861
5D60: 2520
5D61: 5FFC
5D62: 18BE
5D63: 557A
5D64: 0E64
5D65: 48E1
5D66: 0599
5D67: 3E42
5D68: 7B7C
5D69: 3431
5D6A: 6ED5
5D6B: 2B9F
5D6C: 64E4
5D6D: 215C
5D6E: 5A7E
5D6F: 1711
5D70: 5074
5D71: 0AD9
5D72: 47F9
5D73: 009A
5D74: 3DAC
5D75: 7659
5D76: 3355
5D77: 6C77
5D78: 2938
5D79: 6245
5D7A: 1F12
5D7B: 5838
5D7C: 1530
5D7D: 4E7D
5D7E: 0B39
5D7F: 4421
5D80: 0174
5D81: 3A30
5D82: 7726
5D83: 3038
5D84: 6D2A
5D85: 2639
5D86: 6305
5D87: 1C04
5D88: 5978
5D89: 1269
5D8A: 4F49
5D8B: 080D
5D8C: 45AE
5D8D: 7E88
5D8E: 3BE3
5D8F: 74C1
5D90: 3074
5D91: 6D10
5D92: 2666
5D93: 635C
5D94: 1CB4
5D95: 5982
5D96: 12C2
5D97: 4E24
5D98: 0B60
5D99: 4440
5D9A: 0183
5D9B: 3AAD
5D9C: 7625
5D9D: 3373
5D9E: 6CB4
5D9F: 29B5
5DA0: 6535
5DA1: 1E35
5DA2: 5BBE
5DA3: 14F8
5DA4: 5033
5DA5: 0D2D
5DA6: 469F
5DA7: 03CB
5DA8: 3F71
5DA9: 78E5
5DAA: 35D1
5DAB: 711D
5DAC: 2AB4
5DAD: 67D8
5DAE: 2371
5DAF: 5C87
5DB0: 1827
5DB1: 5515
5DB2: 0EF1
5DB3: 4A0E
5DB4: 07E4
5DB5: 40D8
5DB6: 7C43
5DB7: 39F0
5DB8: 7575
5DB9: 2E89
5DBA: 6A5E
5DBB: 27C7
5DBC: 634E
5DBD: 1C99
5DBE: 5831
5DBF: 15AC
5DC0: 5174
5DC1: 0AE7
5DC2: 4661
5DC3: 03E7
5DC4: 3F64
5DC5: 7883
5DC6: 341F
5DC7: 7192
5DC8: 2D34
5DC9: 66CC
5DCA: 2210
5DCB: 5FCE
5DCC: 1BA5
5DCD: 5713
5DCE: 10B0
5DCF: 4C53
5DD0: 0831
5DD1: 4590
5DD2: 017C
5DD3: 3A9D
5DD4: 76B0
5DD5: 3205
5DD6: 6FD5
5DD7: 2BE5
5DD8: 677B
5DD9: 20D7
5DDA: 5C92
5DDB: 182D
5DDC: 5427
5DDD: 11F5
5DDE: 4DB1
5DDF: 097B
5DE0: 4533
5DE1: 7EFC
5DE2: 3ABE
5DE3: 767A
5DE4: 3264
5DE5: 6FFA
5DE6: 2B95
5DE7: 674C
5DE8: 2373
5DE9: 5F2D
5DEA: 18C4
5DEB: 54CD
5DEC: 10A5
5DED: 4C4E
5DEE: 0830
5DEF: 443C
5DF0: 0074
5DF1: 3DC2
5DF2: 79F1
5DF3: 3591
5DF4: 71AF
5DF5: 2D0D
5DF6: 6951
5DF7: 2577
5DF8: 617B
5DF9: 1D10
5DFA: 591E
5DFB: 1529
5DFC: 516A
5DFD: 0D7D
5DFE: 4970
5DFF: 051C
5E00: 4120
5E01: 7D75
5E02: 3934
5E03: 7538
5E04: 3134
5E05: 6D28
5E06: 291E
5E07: 6501
5E08: 2167
5E09: 5D25
5E0A: 195F
5E0B: 5543
5E0C: 11E4
5E0D: 4D89
5E0E: 09F8
5E0F: 45D0
5E10: 0074
5E11: 3C14
5E12: 7862
5E13: 3458
5E14: 70A5
5E15: 2CCD
5E16: 689D
5E17: 2765
5E18: 6360
5E19: 1F4D
5E1A: 5B95
5E1B: 17AD
5E1C: 5227
5E1D: 0E75
5E1E: 4AB1
5E1F: 06FB
5E20: 4533
5E21: 0170
5E22: 3DF0
5E23: 79F4
5E24: 3437
5E25: 702D
5E26: 2C86
5E27: 68C0
5E28: 2766
5E29: 63BC
5E2A: 1F90
5E2B: 5A1E
5E2C: 16B1
5E2D: 52DF
5E2E: 1164
5E2F: 4D99
5E30: 0831
5E31: 4415
5E32: 00F9
5E33: 3F13
5E34: 7BE4
5E35: 37DE
5E36: 725F
5E37: 2EE8
5E38: 6D71
5E39: 29C5
5E3A: 6400
5E3B: 20A1
5E3C: 5F25
5E3D: 1BBE
5E3E: 5635
5E3F: 12A6
5E40: 5178
5E41: 0DF5
5E42: 4832
5E43: 04A8
5E44: 4330
5E45: 7FED
5E46: 3A13
5E47: 7680
5E48: 3566
5E49: 71F1
5E4A: 2C51
5E4B: 68C4
5E4C: 27AA
5E4D: 6211
5E4E: 1EE9
5E4F: 5D15
5E50: 1839
5E51: 549A
5E52: 1362
5E53: 4FD8
5E54: 0AE4
5E55: 4903
5E56: 05DF
5E57: 40B1
5E58: 7F7D
5E59: 3BC6
5E5A: 7695
5E5B: 356C
5E5C: 7026
5E5D: 2CF1
5E5E: 6BB5
5E5F: 2635
5E60: 653D
5E61: 21FB
5E62: 5CF0
5E63: 1B72
5E64: 5630
5E65: 12E5
5E66: 5195
5E67: 0C57
5E68: 4B67
5E69: 0669
5E6A: 4290
5E6B: 0188
5E6C: 3CB7
5E6D: 7B4D
5E6E: 3675
5E6F: 7516
5E70: 303D
5E71: 6CD4
5E72: 2BFC
5E73: 6691
5E74: 25BD
5E75: 600D
5E76: 1F47
5E77: 5A6D
5E78: 1971
5E79: 540B
5E7A: 1350
5E7B: 4E04
5E7C: 0D64
5E7D: 482A
5E7E: 0731
5E7F: 4239
5E80: 013F
5E81: 3C75
5E82: 7B39
5E83: 3633
5E84: 7530
5E85: 3022
5E86: 6F50
5E87: 2A04
5E88: 6934
5E89: 2477
5E8A: 635F
5E8B: 1E42
5E8C: 5DA9
5E8D: 18DD
5E8E: 57E7
5E8F: 12DC
5E90: 5020
5E91: 0F1D
5E92: 4A30
5E93: 095C
5E94: 44E4
5E95: 0381
5E96: 3ED1
5E97: 7C37
5E98: 3B73
5E99: 7640
5E9A: 3582
5E9B: 70AD
5E9C: 2E2A
5E9D: 6D68
5E9E: 28BD
5E9F: 67F7
5EA0: 2531
5EA1: 6067
5EA2: 1FF0
5EA3: 5AF2
5EA4: 1836
5EA5: 572D
5EA6: 129F
5EA7: 51D0
5EA8: 0F60
5EA9: 4AE5
5EAA: 09DF
5EAB: 470B
5EAC: 02E4
5EAD: 41DC
5EAE: 7F30
5EAF: 3A87
5EB0: 783B
5EB1: 375A
5EB2: 72FD
5EB3: 305D
5EB4: 6FA9
5EB5: 2ACC
5EB6: 6842
5EB7: 27EE
5EB8: 6571
5EB9: 2081
5EBA: 5E50
5EBB: 1DEA
5EBC: 5B6E
5EBD: 16FA
5EBE: 547E
5EBF: 13F5
5EC0: 5174
5EC1: 0C85
5EC2: 4A35
5EC3: 09AF
5EC4: 472C
5EC5: 02AC
5EC6: 4000
5EC7: 7F96
5EC8: 3D34
5EC9: 78F2
5ECA: 3655
5ECB: 758D
5ECC: 33A7
5ECD: 711C
5ECE: 2CFE
5ECF: 6A15
5ED0: 2835
5ED1: 6796
5ED2: 2564
5ED3: 60C8
5ED4: 1EA5
5ED5: 5C01
5ED6: 1BDC
5ED7: 59BC
5ED8: 1734
5ED9: 52C6
5EDA: 109F
5EDB: 4E63
5EDC: 0C30
5EDD: 4BEF
5EDE: 09BF
5EDF: 4779
5EE0: 0574
5EE1: 40E1
5EE2: 7EB8
5EE3: 3C78
5EE4: 7A64
5EE5: 39FA
5EE6: 7795
5EE7: 354C
5EE8: 7373
5EE9: 312D
5EEA: 6CC4
5EEB: 2ACD
5EEC: 68AB
5EED: 265B
5EEE: 6430
5EEF: 2201
5EF0: 603C
5EF1: 1FDC
5EF2: 5DE3
5EF3: 1BDD
5EF4: 59A9
5EF5: 1754
5EF6: 5543
5EF7: 1371
5EF8: 5171
5EF9: 0F17
5EFA: 4D19
5EFB: 0B22
5EFC: 4931
5EFD: 072E
5EFE: 4570
5EFF: 033A
5F00: 4126
5F01: 7F37
5F02: 3D6F
5F03: 7B57
5F04: 394E
5F05: 7709
5F06: 3511
5F07: 731C
5F08: 3134
5F09: 6F36
5F0A: 2D04
5F0B: 6B17
5F0C: 29E4
5F0D: 67B2
5F0E: 25FE
5F0F: 63D0
5F10: 2074
5F11: 5E1A
5F12: 1C76
5F13: 5A1D
5F14: 18B0
5F15: 5685
5F16: 14D5
5F17: 5565
5F18: 1377
5F19: 5157
5F1A: 0F95
5F1B: 4DFA
5F1C: 0A29
5F1D: 4878
5F1E: 06BD
5F1F: 44F7
5F20: 0531
5F21: 4367
5F22: 01A3
5F23: 3FBD
5F24: 7C33
5F25: 3A6C
5F26: 7883
5F27: 3685
5F28: 7763
5F29: 35A4
5F2A: 73DE
5F2B: 3009
5F2C: 6EA1
5F2D: 2CCF
5F2E: 6D79
5F2F: 2B9B
5F30: 6833
5F31: 2615
5F32: 64E4
5F33: 2515
5F34: 63A1
5F35: 218D
5F36: 5E42
5F37: 1CEA
5F38: 5D7B
5F39: 1B88
5F3A: 5803
5F3B: 16ED
5F3C: 5730
5F3D: 15B2
5F3E: 5234
5F3F: 10B4
5F40: 512D
5F41: 0FF5
5F42: 4C31
5F43: 0AB3
5F44: 4B20
5F45: 09ED
5F46: 4613
5F47: 0489
5F48: 4575
5F49: 03EC
5F4A: 405D
5F4B: 7EC8
5F4C: 3FA0
5F4D: 7C5D
5F4E: 3AE4
5F4F: 7B5D
5F50: 3835
5F51: 7681
5F52: 3730
5F53: 75C9
5F54: 32AC
5F55: 7308
5F56: 3190
5F57: 6EAB
5F58: 2F61
5F59: 6DC8
5F5A: 2A92
5F5B: 6B68
5F5C: 2836
5F5D: 66EE
5F5E: 27F0
5F5F: 647A
5F60: 253A
5F61: 63B5
5F62: 20A4
5F63: 6175
5F64: 1E21
5F65: 5CAD
5F66: 1D94
5F67: 5A4A
5F68: 1B7B
5F69: 5837
5F6A: 1690
5F6B: 578B
5F6C: 14A8
5F6D: 555C
5F6E: 1263
5F6F: 531D
5F70: 1031
5F71: 4ED1
5F72: 0FB0
5F73: 4C8A
5F74: 0DAC
5F75: 4A44
5F76: 0B44
5F77: 4860
5F78: 0934
5F79: 4604
5F7A: 0703
5F7B: 446D
5F7C: 052C
5F7D: 4238
5F7E: 0370
5F7F: 4034
5F80: 0124
5F81: 3E25
5F82: 7F22
5F83: 3C32
5F84: 7D25
5F85: 3A2E
5F86: 7B18
5F87: 3800
5F88: 7970
5F89: 3624
5F8A: 7710
5F8B: 340D
5F8C: 758C
5F8D: 3298
5F8E: 73B0
5F8F: 30C6
5F90: 7035
5F91: 311C
5F92: 6E74
5F93: 2F1D
5F94: 6CB0
5F95: 2D85
5F96: 6AD5
5F97: 2A65
5F98: 6B70
5F99: 284A
5F9A: 699F
5F9B: 26FF
5F9C: 6664
5F9D: 276E
5F9E: 64A4
5F9F: 25FC
5FA0: 6538
5FA1: 2279
5FA2: 63F0
5FA3: 20F9
5FA4: 602D
5FA5: 2169
5FA6: 5E9E
5FA7: 1F82
5FA8: 5F60
5FA9: 1CE5
5FAA: 5DDF
5FAB: 1D1D
5FAC: 5AA1
5FAD: 1BD3
5FAE: 5B3C
5FAF: 18D5
5FB0: 5836
5FB1: 1940
5FB2: 56E4
5FB3: 165D
5FB4: 57AC
5FB5: 14C8
5FB6: 5410
5FB7: 15EB
5FB8: 557B
5FB9: 1291
5FBA: 5219
5FBB: 13AE
5FBC: 5321
5FBD: 10B9
5FBE: 5070
5FBF: 11A1
5FC0: 513C
5FC1: 0EB4
5FC2: 4E24
5FC3: 0FFD
5FC4: 4F30
5FC5: 0CA5
5FC6: 4C15
5FC7: 0DC5
5FC8: 4D7C
5FC9: 0AEA
5FCA: 4A45
5FCB: 0BDF
5FCC: 4BA3
5FCD: 0B11
5FCE: 48F1
5FCF: 0846
5FD0: 4827
5FD1: 09D5
5FD2: 4978
5FD3: 06DC
5FD4: 46A0
5FD5: 064D
5FD6: 47C2
5FD7: 07B0
5FD8: 477A
5FD9: 0485
5FDA: 449F
5FDB: 0478
5FDC: 4430
5FDD: 05BD
5FDE: 45B1
5FDF: 057B
5FE0: 4530
5FE1: 02B5
5FE2: 42B6
5FE3: 0271
5FE4: 4225
5FE5: 03FE
5FE6: 4398
5FE7: 0340
5FE8: 4370
5FE9: 0365
5FEA: 40D2
5FEB: 0081
5FEC: 40A5
5FED: 005E
5FEE: 407B
5FEF: 005B
5FF0: 4074
5FF1: 0195
5FF2: 41C7
5FF3: 0195
5FF4: 41A1
5FF5: 0143
5FF6: 4110
5FF7: 0172
5FF8: 4171
5FF9: 0145
5FFA: 4107
5FFB: 0128
5FFC: 412A
5FFD: 0129
5FFE: 4170
5FFF: 0121
6000: 413B
6001: 0175
6002: 4133
6003: 0135
6004: 4121
6005: 012E
6006: 411B
6007: 0145
6008: 417B
6009: 016B
600A: 4110
600B: 0144
600C: 41B0
600D: 01D1
600E: 41B0
600F: 01DC
6010: 4020
6011: 0055
6012: 4067
6013: 005C
6014: 40B7
6015: 00CD
6016: 40C3
6017: 0331
6018: 437D
6019: 0349
601A: 439C
601B: 03AD
601C: 4236
601D: 0268
601E: 42BE
601F: 02FB
6020: 453D
6021: 057B
6022: 45B7
6023: 05BD
6024: 4428
6025: 0464
6026: 449B
6027: 04C0
6028: 4734
6029: 07AC
602A: 47C4
602B: 064D
602C: 46A5
602D: 06D1
602E: 4967
602F: 0994
6030: 482D
6031: 0846
6032: 48B0
6033: 0B19
6034: 4BAB
6035: 0BC8
6036: 4A43
6037: 0AAB
6038: 4D34
6039: 0DC5
603A: 4C20
603B: 0CA8
603C: 4F36
603D: 0FB5
603E: 4E31
603F: 0EA5
6040: 5127
6041: 11F5
6042: 5038
6043: 10B8
6044: 5364
6045: 13A4
6046: 5203
6047: 12C5
6048: 5573
6049: 15EA
604A: 5459
604B: 14C3
604C: 57A3
604D: 165D
604E: 56FD
604F: 1954
6050: 5830
6051: 18CA
6052: 5B30
6053: 1B9D
6054: 5A8D
6055: 1D0B
6056: 5D90
6057: 1CAB
6058: 5F7B
6059: 1FD1
605A: 5EDC
605B: 212D
605C: 6033
605D: 20F5
605E: 63B9
605F: 2276
6060: 653C
6061: 25B5
6062: 64B4
6063: 2772
6064: 6664
6065: 26FA
6066: 6995
6067: 2805
6068: 6B7A
6069: 2A20
606A: 6AD5
606B: 2D89
606C: 6CE4
606D: 2F49
606E: 6E7F
606F: 3155
6070: 7035
6071: 30C5
6072: 73E0
6073: 3298
6074: 75A5
6075: 345E
6076: 7755
6077: 363F
6078: 7934
6079: 3811
607A: 7B18
607B: 3A28
607C: 7D64
607D: 3C39
607E: 7F3F
607F: 3E3A
6080: 0126
6081: 4075
6082: 033F
6083: 422F
6084: 0564
6085: 4439
6086: 0718
6087: 4600
6088: 0934
6089: 486D
608A: 0B5F
608B: 4A58
608C: 0DB6
608D: 4C9A
608E: 0FFC
608F: 4ED4
6090: 1027
6091: 5306
6092: 122F
6093: 551D
6094: 14E4
6095: 57AF
6096: 16DF
6097: 5831
6098: 1B7C
6099: 5A1A
609A: 1DFA
609B: 5C87
609C: 1E00
609D: 617C
609E: 20A9
609F: 63B5
60A0: 2561
60A1: 6420
60A2: 27EA
60A3: 66BD
60A4: 2810
60A5: 6B65
60A6: 2A95
60A7: 6D85
60A8: 2F72
60A9: 6EAC
60AA: 31C2
60AB: 7308
60AC: 32A2
60AD: 75D1
60AE: 3779
60AF: 7690
60B0: 3827
60B1: 7B15
60B2: 3AF1
60B3: 7C0F
60B4: 3FA1
60B5: 7E8D
60B6: 4057
60B7: 03E0
60B8: 4560
60B9: 0491
60BA: 4619
60BB: 09A3
60BC: 4B23
60BD: 0AFD
60BE: 4C23
60BF: 0FA0
60C0: 5127
60C1: 10A5
60C2: 5239
60C3: 15BE
60C4: 572D
60C5: 16A2
60C6: 5805
60C7: 1B96
60C8: 5D3A
60C9: 1CA5
60CA: 5E10
60CB: 21E2
60CC: 63AA
60CD: 2518
60CE: 64B0
60CF: 265A
60D0: 6832
60D1: 2BD5
60D2: 6D64
60D3: 2CD5
60D4: 6EA1
60D5: 3000
60D6: 7390
60D7: 35A9
60D8: 777B
60D9: 36CA
60DA: 789B
60DB: 3A68
60DC: 7C20
60DD: 3FBD
60DE: 01B1
60DF: 4361
60E0: 0574
60E1: 44F8
60E2: 06B5
60E3: 483D
60E4: 0A22
60E5: 4DF8
60E6: 0F9E
60E7: 514B
60E8: 136D
60E9: 5565
60EA: 14C4
60EB: 5682
60EC: 18A0
60ED: 5A5C
60EE: 1C69
60EF: 5E55
60F0: 2035
60F1: 63DB
60F2: 25F4
60F3: 67DD
60F4: 29B0
60F5: 6B45
60F6: 2D55
60F7: 6F6B
60F8: 3134
60F9: 7303
60FA: 351C
60FB: 7728
60FC: 3933
60FD: 7B7D
60FE: 3D3F
60FF: 7F33
6100: 4132
6101: 037B
6102: 4570
6103: 077D
6104: 490D
6105: 0B6D
6106: 4D04
6107: 0F0D
6108: 517D
6109: 136B
610A: 555B
610B: 170D
610C: 598D
610D: 1BDD
610E: 5DE3
610F: 1FD4
6110: 6023
6111: 2255
6112: 6471
6113: 2653
6114: 68AB
6115: 2A99
6116: 6CD8
6117: 3120
6118: 7366
6119: 3505
611A: 779F
611B: 39E3
611C: 7A21
611D: 3C3D
611E: 7EB2
611F: 40F9
6120: 053D
6121: 477B
6122: 09BB
6123: 4BF4
6124: 0C2A
6125: 4E6A
6126: 10D0
6127: 52C4
6128: 1734
6129: 59A9
612A: 1BD9
612B: 5C19
612C: 1EB0
612D: 60D1
612E: 2575
612F: 67D5
6130: 2832
6131: 6A54
6132: 2CE3
6133: 7109
6134: 33A1
6135: 75DF
6136: 3610
6137: 78F1
6138: 3D7C
6139: 7F84
613A: 401E
613B: 02ED
613C: 4731
613D: 09AE
613E: 4A25
613F: 0CB4
6140: 5138
6141: 13FB
6142: 5470
6143: 16FD
6144: 5B0B
6145: 1DBF
6146: 5E50
6147: 2092
6148: 6575
6149: 27F6
614A: 6810
614B: 2AC4
614C: 6FB0
614D: 305D
614E: 72F1
614F: 3715
6150: 7838
6151: 3A9C
6152: 7F64
6153: 41C9
6154: 02A8
6155: 4708
6156: 0990
6157: 4AB6
6158: 0F78
6159: 51CA
615A: 1287
615B: 5768
615C: 1836
615D: 5AA2
615E: 1FF0
615F: 6035
6160: 2503
6161: 67F0
6162: 28F0
6163: 6D7C
6164: 2E36
6165: 70E8
6166: 35D0
6167: 7642
6168: 3B71
6169: 7C31
616A: 3EC4
616B: 0384
616C: 44AA
616D: 095A
616E: 4A30
616F: 0F17
6170: 5031
6171: 12C1
6172: 57E4
6173: 1898
6174: 5DB6
6175: 1E0D
6176: 6351
6177: 2471
6178: 6934
6179: 2A06
617A: 6F1F
617B: 3023
617C: 7530
617D: 362F
617E: 7B3F
617F: 3C39
6180: 0138
6181: 423C
6182: 073E
6183: 483A
6184: 0D64
6185: 4E39
6186: 1318
6187: 5400
6188: 1934
6189: 5A72
618A: 1F55
618B: 6044
618C: 25A3
618D: 6695
618E: 2BE4
618F: 6C95
6190: 303B
6191: 7513
6192: 3630
6193: 7B49
6194: 3CAC
6195: 0188
6196: 4290
6197: 062A
6198: 4B66
6199: 0C47
619A: 51DC
619B: 12AD
619C: 5625
619D: 1B73
619E: 5CB4
619F: 21B5
61A0: 6523
61A1: 2670
61A2: 6BF0
61A3: 2CE9
61A4: 702C
61A5: 3564
61A6: 769E
61A7: 3BCE
61A8: 7F34
61A9: 40B1
61AA: 05D8
61AB: 490C
61AC: 0AB0
61AD: 4F9A
61AE: 1363
61AF: 54D5
61B0: 1823
61B1: 5D5D
61B2: 1EF1
61B3: 6209
61B4: 27E4
61B5: 68D9
61B6: 2C58
61B7: 71E0
61B8: 3534
61B9: 768B
61BA: 3A05
61BB: 7FA0
61BC: 4326
61BD: 04B8
61BE: 4822
61BF: 0DA6
61C0: 5174
61C1: 12B4
61C2: 5622
61C3: 1BB8
61C4: 5F64
61C5: 20AC
61C6: 641C
61C7: 2989
61C8: 6D34
61C9: 2EE4
61CA: 7252
61CB: 37C2
61CC: 7BB1
61CD: 3F09
61CE: 00BE
61CF: 4415
61D0: 0874
61D1: 4DA1
61D2: 1178
61D3: 52D8
61D4: 16E4
61D5: 5A02
61D6: 1FC2
61D7: 63A7
61D8: 2734
61D9: 68D6
61DA: 2C84
61DB: 706C
61DC: 3436
61DD: 79E9
61DE: 3DA3
61DF: 0135
61E0: 4535
61E1: 06E1
61E2: 4AF0
61E3: 0E69
61E4: 522C
61E5: 17E8
61E6: 5BD0
61E7: 1F52
61E8: 6371
61E9: 272C
61EA: 68D7
61EB: 2C85
61EC: 70B0
61ED: 341D
61EE: 787C
61EF: 3C14
61F0: 0036
61F1: 45D0
61F2: 09FC
61F3: 4D98
61F4: 11A0
61F5: 550D
61F6: 195F
61F7: 5D6B
61F8: 2134
61F9: 6511
61FA: 2918
61FB: 6D28
61FC: 3164
61FD: 752D
61FE: 3935
61FF: 7D31
6200: 4131
6201: 0526
6202: 4924
6203: 0D3C
6204: 5128
6205: 1561
6206: 5950
6207: 1D04
6208: 617A
6209: 2561
620A: 6910
620B: 2D4A
620C: 71AB
620D: 3598
620E: 79E3
620F: 3D95
6210: 0030
6211: 441A
6212: 0867
6213: 4C53
6214: 10E4
6215: 548C
6216: 18C3
6217: 5F65
6218: 2363
6219: 6740
621A: 2BD0
621B: 6FE1
621C: 3221
621D: 767C
621E: 3AA6
621F: 7EF0
6220: 4574
6221: 0974
6222: 4DF0
6223: 11EF
6224: 542B
6225: 1862
6226: 5C9D
6227: 2085
6228: 6779
6229: 2BA4
622A: 6FC2
622B: 3206
622C: 76A1
622D: 3AD9
622E: 0130
622F: 45D2
6230: 0879
6231: 4C12
6232: 10BC
6233: 575D
6234: 1BB1
6235: 5FDD
6236: 2210
6237: 66E4
6238: 2D67
6239: 71C5
623A: 3407
623B: 78A8
623C: 3F64
623D: 03B1
623E: 4635
623F: 0AB4
6240: 5122
6241: 15B0
6242: 5870
6243: 1CBC
6244: 6364
6245: 27BF
6246: 6A1F
6247: 2E8A
6248: 7579
6249: 39A5
624A: 7C5D
624B: 40CC
624C: 07B6
624D: 4A16
624E: 0EF5
624F: 5551
6250: 1874
6251: 5CD2
6252: 233B
6253: 679A
6254: 2AE8
6255: 714D
6256: 35D1
6257: 78AB
6258: 3F70
6259: 0385
625A: 4685
625B: 0D7D
625C: 5064
625D: 14F8
625E: 5BA6
625F: 1E70
6260: 653A
6261: 29B5
6262: 6CBD
6263: 3372
6264: 7636
6265: 3AE8
6266: 01D0
6267: 4444
6268: 0B67
6269: 4E65
626A: 12C7
626B: 5988
626C: 1CE4
626D: 6351
626E: 2675
626F: 6D14
6270: 3022
6271: 74D0
6272: 3BB0
6273: 7E9C
6274: 45E4
6275: 085F
6276: 4F5F
6277: 126A
6278: 5979
6279: 1C45
627A: 631D
627B: 262C
627C: 6D36
627D: 3036
627E: 7735
627F: 3A31
6280: 0174
6281: 4472
6282: 0B7A
6283: 4E7A
6284: 156A
6285: 586D
6286: 1F50
6287: 6220
6288: 297A
6289: 6C71
628A: 3355
628B: 765F
628C: 3DAD
628D: 0093
628E: 47F7
628F: 0A95
6290: 5026
6291: 171A
6292: 5A7F
6293: 2150
6294: 64B7
6295: 2BCD
6296: 6EC7
6297: 342C
6298: 7B60
6299: 3E4D
629A: 05D0
629B: 48E1
629C: 0E25
629D: 556F
629E: 18B7
629F: 5FF0
62A0: 2526
62A1: 6835
62A2: 2FBE
62A3: 72E8
62A4: 3829
62A5: 7F6F
62A6: 4295
62A7: 09D7
62A8: 4F67
62A9: 12E5
62AA: 59D8
62AB: 1F0C
62AC: 62B7
62AD: 299D
62AE: 6F71
62AF: 32D5
62B0: 7833
62B1: 3F47
62B2: 02F5
62B3: 481C
62B4: 0FB0
62B5: 52C8
62B6: 1842
62B7: 5FA5
62B8: 2571
62B9: 6883
62BA: 2E16
62BB: 75A8
62BC: 3B27
62BD: 7EA9
62BE: 447E
62BF: 0BDF
62C0: 515E
62C1: 1491
62C2: 5A31
62C3: 21A4
62C4: 6764
62C5: 2AF5
62C6: 7049
62C7: 37DF
62C8: 7D34
62C9: 40C0
62CA: 0646
62CB: 4DC8
62CC: 13B6
62CD: 5904
62CE: 1CB0
62CF: 625A
62D0: 283A
62D1: 6F96
62D2: 3575
62D3: 789D
62D4: 3EAD
62D5: 0403
62D6: 4B90
62D7: 11A4
62D8: 5734
62D9: 1AC2
62DA: 6082
62DB: 2668
62DC: 6C25
62DD: 33E9
62DE: 79F0
62DF: 3F62
62E0: 053C
62E1: 48FC
62E2: 0EBC
62E3: 5478
62E4: 1A68
62E5: 61AD
62E6: 279F
62E7: 6D4B
62E8: 3371
62E9: 7965
62EA: 3CDF
62EB: 028B
62EC: 48E4
62ED: 0E49
62EE: 5478
62EF: 1A10
62F0: 6074
62F1: 27D6
62F2: 6DE2
62F3: 3398
62F4: 79B3
62F5: 3F40
62F6: 0555
62F7: 4B68
62F8: 1176
62F9: 5700
62FA: 1D02
62FB: 633E
62FC: 2964
62FD: 6F35
62FE: 3531
62FF: 7B26
6300: 4174
6301: 0721
6302: 4D38
6303: 1338
6304: 5964
6305: 1F3E
6306: 6511
6307: 2B08
6308: 7171
6309: 3725
630A: 7D43
630B: 4359
630C: 09AB
630D: 4F8F
630E: 15E9
630F: 5B8F
6310: 2074
6311: 6601
6312: 2C78
6313: 725C
6314: 38B0
6315: 7ECD
6316: 44C4
6317: 0D2D
6318: 5371
6319: 1905
631A: 5F94
631B: 25E2
631C: 6A2B
631D: 306F
631E: 76F0
631F: 3CF3
6320: 0538
6321: 4B74
6322: 11A3
6323: 57F5
6324: 1C21
6325: 627E
6326: 28D0
6327: 6ED2
6328: 377C
6329: 7DAC
632A: 43C4
632B: 0808
632C: 4EE8
632D: 149D
632E: 5D64
632F: 239D
6330: 6831
6331: 2E15
6332: 74F8
6333: 3D12
6334: 03B1
6335: 49DF
6336: 0E57
6337: 54E9
6338: 1D75
6339: 6396
633A: 2803
633B: 6EED
633C: 372C
633D: 7DBC
633E: 4234
633F: 08F5
6340: 5135
6341: 17B9
6342: 5C22
6343: 22B8
6344: 6B25
6345: 31A9
6346: 7609
6347: 3CC5
6348: 0566
6349: 4BF0
634A: 105E
634B: 568D
634C: 1FAB
634D: 6408
634E: 2AE4
634F: 7319
6350: 3874
6351: 7E9C
6352: 4764
6353: 0D9D
6354: 52A2
6355: 1B01
6356: 61D1
6357: 26B6
6358: 6F7C
6359: 35C0
635A: 7A83
635B: 432D
635C: 0826
635D: 4EF1
635E: 17B1
635F: 5C76
6360: 253F
6361: 6BB9
6362: 30F0
6363: 797C
6364: 3E2A
6365: 04E9
6366: 4DD0
6367: 1251
6368: 5B7C
6369: 2020
636A: 6690
636B: 2F82
636C: 74B6
636D: 3D5F
636E: 0230
636F: 4B10
6370: 1022
6371: 56D4
6372: 1FE0
6373: 6492
6374: 2DB6
6375: 724C
6376: 3B44
6377: 0060
6378: 4967
6379: 0E4B
637A: 5750
637B: 1C6D
637C: 6505
637D: 2A2F
637E: 7335
637F: 3875
6380: 0123
6381: 4630
6382: 0F70
6383: 5429
6384: 1D2B
6385: 6222
6386: 2B50
6387: 7016
6388: 3978
6389: 7E6A
638A: 4747
638B: 0C12
638C: 55E4
638D: 1ADD
638E: 63C7
638F: 28D0
6390: 7074
6391: 3916
6392: 7E71
6393: 4753
6394: 0CE3
6395: 5599
6396: 1A90
6397: 6236
6398: 2B71
6399: 7040
639A: 399D
639B: 7EAD
639C: 4630
639D: 0F72
639E: 54F0
639F: 1DF3
63A0: 653D
63A1: 2A7B
63A2: 73B4
63A3: 38BD
63A4: 0025
63A5: 492D
63A6: 0E87
63A7: 57C4
63A8: 1F6D
63A9: 64E5
63AA: 2DC4
63AB: 7502
63AC: 3AE4
63AD: 03D0
63AE: 4B71
63AF: 109E
63B0: 5831
63B1: 2115
63B2: 66E4
63B3: 2E15
63B4: 77A1
63B5: 3C8D
63B6: 045F
63B7: 4DF7
63B8: 1576
63B9: 5AC2
63BA: 2203
63BB: 6BED
63BC: 3333
63BD: 78B8
63BE: 4039
63BF: 09B2
63C0: 513C
63C1: 16A1
63C2: 5E70
63C3: 27B0
63C4: 6F25
63C5: 34B9
63C6: 7C13
63C7: 458D
63C8: 0D34
63C9: 52F2
63CA: 1A58
63CB: 63CC
63CC: 2BB0
63CD: 735D
63CE: 38E4
63CF: 005D
63D0: 4831
63D1: 11D5
63D2: 5974
63D3: 1ED2
63D4: 66AB
63D5: 2E1F
63D6: 7790
63D7: 3FB2
63D8: 0775
63D9: 4CCB
63DA: 1484
63DB: 5C7E
63DC: 2464
63DD: 6DFF
63DE: 35B5
63DF: 7D73
63E0: 453B
63E1: 0AE7
63E2: 52B5
63E3: 1A3D
63E4: 6230
63E5: 2BE5
63E6: 7395
63E7: 3B05
63E8: 037C
63E9: 4B2A
63EA: 10C5
63EB: 589F
63EC: 20A3
63ED: 6851
63EE: 3071
63EF: 7806
63F0: 4027
63F1: 0995
63F2: 51E2
63F3: 1988
63F4: 61AA
63F5: 295E
63F6: 7110
63F7: 396A
63F8: 0161
63F9: 4911
63FA: 115E
63FB: 596D
63FC: 2164
63FD: 6914
63FE: 3136
63FF: 7975
6400: 413B
6401: 093B
6402: 513C
6403: 1924
6404: 6164
6405: 293A
6406: 7115
6407: 3945
6408: 0177
6409: 496A
640A: 1145
640B: 5941
640C: 21A0
640D: 69DD
640E: 31F6
640F: 79DC
6410: 403A
6411: 0811
6412: 5030
6413: 185C
6414: 60E4
6415: 289E
6416: 70D8
6417: 3B2A
6418: 0366
6419: 4B51
641A: 1395
641B: 5BFF
641C: 2264
641D: 6A6F
641E: 32BF
641F: 7AE0
6420: 4520
6421: 0D70
6422: 55F0
6423: 1DE9
6424: 642C
6425: 2C7F
6426: 749F
6427: 3CD0
6428: 0773
6429: 4FAD
642A: 1790
642B: 5E19
642C: 26AC
642D: 6ED8
642E: 3930
642F: 0187
6430: 483B
6431: 105A
6432: 58FD
6433: 230E
6434: 6BEA
6435: 3383
6436: 7A1E
6437: 428F
6438: 0D1E
6439: 55A1
643A: 1C11
643B: 64B4
643C: 2F64
643D: 77EC
643E: 3E64
643F: 06E1
6440: 516E
6441: 19F5
6442: 6007
6443: 28B8
6444: 7364
6445: 3BAC
6446: 0202
6447: 4A80
6448: 1534
6449: 5DE4
644A: 2452
644B: 6CCC
644C: 37AA
644D: 7E19
644E: 46FF
644F: 115B
6450: 583D
6451: 209B
6452: 6B77
6453: 339D
6454: 7AB0
6455: 4505
6456: 0DD5
6457: 54E5
6458: 1F79
6459: 67CC
645A: 2E83
645B: 797E
645C: 402D
645D: 08F2
645E: 53BE
645F: 1A3B
6460: 6574
6461: 2DB5
6462: 749E
6463: 3F72
6464: 062A
6465: 4EE8
6466: 19D0
6467: 604A
6468: 2B72
6469: 7265
646A: 3AC5
646B: 059E
646C: 4CE4
646D: 175E
646E: 5E71
646F: 291B
6470: 7074
6471: 38C2
6472: 03FF
6473: 4A8F
6474: 15AF
6475: 5C0D
6476: 275F
6477: 6E70
6478: 3960
6479: 0045
647A: 4B04
647B: 1225
647C: 5D21
647D: 247D
647E: 6F23
647F: 363A
6480: 0138
6481: 4820
6482: 1324
6483: 5A34
6484: 252B
6485: 6C23
6486: 3750
6487: 7E11
6488: 497B
6489: 1025
648A: 5B44
648B: 2245
648C: 6DA1
648D: 34DD
648E: 7FE0
648F: 46C0
6490: 102E
6491: 5B0F
6492: 227C
6493: 6D58
6494: 34EA
6495: 7FCD
6496: 4690
6497: 100C
6498: 5B34
6499: 2252
649A: 6D99
649B: 34E1
649C: 7E28
649D: 493D
649E: 10BC
649F: 5BF0
64A0: 2535
64A1: 6C63
64A2: 37B5
64A3: 7EBD
64A4: 4830
64A5: 1365
64A6: 5A99
64A7: 25D6
64A8: 6F34
64A9: 36AF
64AA: 01DF
64AB: 4B18
64AC: 12B6
64AD: 5DD3
64AE: 2771
64AF: 6E99
64B0: 3874
64B1: 035D
64B2: 4AF5
64B3: 140F
64B4: 5FA1
64B5: 268D
64B6: 7044
64B7: 3BEA
64B8: 0534
64B9: 4C8D
64BA: 1615
64BB: 61A1
64BC: 2B34
64BD: 72FD
64BE: 3C36
64BF: 07A0
64C0: 5120
64C1: 18A0
64C2: 6222
64C3: 2DB8
64C4: 7764
64C5: 3EAC
64C6: 0814
64C7: 5393
64C8: 1D71
64C9: 64EB
64CA: 2E44
64CB: 79D8
64CC: 43B6
64CD: 0D18
64CE: 54E2
64CF: 1E46
64D0: 6878
64D1: 33D5
64D2: 7D64
64D3: 44D5
64D4: 0EAB
64D5: 5818
64D6: 23D7
64D7: 6DAD
64D8: 3734
64D9: 7EEC
64DA: 48D0
64DB: 126C
64DC: 5C29
64DD: 27BD
64DE: 71BE
64DF: 3B7A
64E0: 0520
64E1: 4CB5
64E2: 16A3
64E3: 6068
64E4: 2A36
64E5: 75E8
64E6: 3FD0
64E7: 0952
64E8: 537C
64E9: 1D24
64EA: 64C4
64EB: 2ECD
64EC: 78AC
64ED: 4258
64EE: 0C7C
64EF: 5605
64F0: 2074
64F1: 6BDC
64F2: 35E4
64F3: 7FDD
64F4: 49B3
64F5: 1344
64F6: 5D5C
64F7: 2769
64F8: 7134
64F9: 3B02
64FA: 0519
64FB: 4F3B
64FC: 1921
64FD: 6373
64FE: 2D70
64FF: 7775
6500: 4113
6501: 0B3A
6502: 553F
6503: 1F39
6504: 6964
6505: 3321
6506: 7D05
6507: 4706
6508: 117F
6509: 5B24
650A: 2504
650B: 6F4C
650C: 39A6
650D: 039E
650E: 4DF4
650F: 17D0
6510: 6032
6511: 2A12
6512: 7478
6513: 3E54
6514: 08AE
6515: 5286
6516: 1CDC
6517: 6928
6518: 337A
6519: 7D4A
651A: 4780
651B: 11FC
651C: 5A36
651D: 246E
651E: 6EA4
651F: 38E0
6520: 0522
6521: 4F62
6522: 19A8
6523: 63E4
6524: 2C3E
6525: 764C
6526: 40B2
6527: 0AE6
6528: 5750
6529: 2180
652A: 6BF6
652B: 342A
652C: 7E8C
652D: 48F4
652E: 155A
652F: 5FBE
6530: 2818
6531: 7278
6532: 3CDE
6533: 0932
6534: 5394
6535: 1DFC
6536: 6662
6537: 30D6
6538: 7D40
6539: 47B0
653A: 1026
653B: 5A9A
653C: 271C
653D: 7184
653E: 3A0A
653F: 04C2
6540: 5130
6541: 1BB7
6542: 6421
6543: 2EAD
6544: 7B33
6545: 45B8
6546: 0E19
6547: 588A
6548: 2578
6549: 6FFD
654A: 3846
654B: 0295
654C: 4F93
654D: 1829
654E: 62C9
654F: 2F60
6550: 781D
6551: 42BA
6552: 0F51
6553: 59F5
6554: 229C
6555: 6F3B
6556: 39FD
6557: 02C7
6558: 4F73
6559: 19CA
655A: 62F4
655B: 2F61
655C: 782B
655D: 42F2
655E: 0FBB
655F: 5811
6560: 253C
6561: 6FF0
6562: 38BC
6563: 056D
6564: 4E47
6565: 18E4
6566: 659E
6567: 2E53
6568: 7B10
6569: 4431
656A: 0ED1
656B: 5B86
656C: 24A1
656D: 7139
656E: 3A74
656F: 0707
6570: 503B
6571: 1AC5
6572: 6793
6573: 3088
6574: 7DB7
6575: 4648
6576: 1310
6577: 5C05
6578: 2914
6579: 7265
657A: 3F70
657B: 084D
657C: 5544
657D: 1E5D
657E: 6B50
657F: 3455
6580: 0154
6581: 4A55
6582: 1750
6583: 605D
6584: 2D44
6585: 764D
6586: 4370
6587: 0C65
6588: 5914
6589: 2205
658A: 6F30
658B: 382D
658C: 05C4
658D: 4EFD
658E: 1B90
658F: 64B5
6590: 3054
6591: 7D75
6592: 4610
6593: 133D
6594: 5CC4
6595: 29ED
6596: 72B0
6597: 3E40
6598: 0B73
6599: 5457
659A: 2195
659B: 6AE8
659C: 362A
659D: 031E
659E: 4CA2
659F: 19F0
65A0: 6530
65A1: 2E13
65A2: 7BA9
65A3: 44F8
65A4: 1028
65A5: 5D61
65A6: 269F
65A7: 73D2
65A8: 3F2B
65A9: 0884
65AA: 55C3
65AB: 214D
65AC: 6ABD
65AD: 37D2
65AE: 0365
65AF: 4CD5
65B0: 1831
65B1: 655B
65B2: 2EE4
65B3: 7A18
65B4: 47B6
65B5: 108D
65B6: 5C44
65B7: 29ED
65B8: 7571
65B9: 3EC5
65BA: 0A02
65BB: 57A2
65BC: 232B
65BD: 6CB0
65BE: 387C
65BF: 05F5
65C0: 5120
65C1: 1ABD
65C2: 6635
65C3: 33FD
65C4: 7F37
65C5: 48B4
65C6: 141D
65C7: 6187
65C8: 2D7B
65C9: 76E9
65CA: 4210
65CB: 0FC2
65CC: 5BAA
65CD: 275D
65CE: 70E4
65CF: 3C5D
65D0: 0831
65D1: 55D5
65D2: 2176
65D3: 6AD1
65D4: 36AB
65D5: 0202
65D6: 4FC2
65D7: 1BE5
65D8: 6776
65D9: 30D7
65DA: 7C99
65DB: 4868
65DC: 1422
65DD: 61F1
65DE: 2DA9
65DF: 7935
65E0: 4532
65E1: 0EF9
65E2: 5AB1
65E3: 266E
65E4: 722C
65E5: 3FE8
65E6: 0B83
65E7: 5705
65E8: 2335
65E9: 6F6B
65EA: 3890
65EB: 04CD
65EC: 5090
65ED: 1C55
65EE: 6875
65EF: 3455
65F0: 003B
65F1: 4DC7
65F2: 19F2
65F3: 65DD
65F4: 31A6
65F5: 7D48
65F6: 4957
65F7: 156C
65F8: 617A
65F9: 2D16
65FA: 7950
65FB: 453E
65FC: 1131
65FD: 5D3F
65FE: 2924
65FF: 7539
6600: 412D
6601: 0D75
6602: 5937
6603: 2531
6604: 712B
6605: 3D3A
6606: 0919
6607: 550B
6608: 2173
6609: 6D25
660A: 391F
660B: 056C
660C: 51B7
660D: 1DDD
660E: 69E9
660F: 35DA
6610: 0021
6611: 4C55
6612: 1875
6613: 6453
6614: 30B0
6615: 7C88
6616: 48C2
6617: 1765
6618: 6360
6619: 2F4D
661A: 7B95
661B: 47AD
661C: 1236
661D: 5E72
661E: 2ABF
661F: 76F8
6620: 4578
6621: 1135
6622: 5DA4
6623: 29F5
6624: 7421
6625: 402D
6626: 0C9F
6627: 58D7
6628: 2776
6629: 73E5
662A: 3FD2
662B: 0A1F
662C: 56AD
662D: 22D8
662E: 7176
662F: 3D99
6630: 082D
6631: 5415
6632: 20F6
6633: 6F11
6634: 3BA5
6635: 07DE
6636: 5258
6637: 1EE0
6638: 6D67
6639: 39C5
663A: 0430
663B: 50E3
663C: 1F64
663D: 6BFD
663E: 3604
663F: 02BD
6640: 5131
6641: 1DF5
6642: 683E
6643: 34A8
6644: 0329
6645: 4FAF
6646: 1A15
6647: 6697
6648: 3534
6649: 01EA
664A: 4C5E
664B: 188D
664C: 67B0
664D: 3215
664E: 7EF5
664F: 4D15
6650: 1832
6651: 6499
6652: 337F
6653: 7FD2
6654: 4AB6
6655: 194D
6656: 65C6
6657: 30AC
6658: 7F76
6659: 4BD7
665A: 1691
665B: 6579
665C: 3021
665D: 7CEE
665E: 4BF0
665F: 1666
6660: 6520
6661: 31E7
6662: 7CB1
6663: 4B73
6664: 1623
6665: 62E8
6666: 319C
6667: 7C5C
6668: 4B34
6669: 1627
666A: 62D5
666B: 3183
666C: 7CA1
666D: 4B5C
666E: 1664
666F: 651D
6670: 3074
6671: 7CCC
6672: 4BFF
6673: 1688
6674: 65B6
6675: 300D
6676: 7F56
6677: 4A60
6678: 1971
6679: 6411
667A: 335E
667B: 7E52
667C: 4D64
667D: 187D
667E: 6704
667F: 323D
6680: 0131
6681: 4C75
6682: 1B3F
6683: 662F
6684: 3526
6685: 006D
6686: 4F03
6687: 1A00
6688: 6971
6689: 3468
668A: 0343
668B: 4E0D
668C: 1DB0
668D: 6892
668E: 37B0
668F: 02D2
6690: 5031
6691: 1F01
6692: 6A30
6693: 3955
6694: 04A1
6695: 538C
6696: 1EC6
6697: 6C2C
6698: 3B71
6699: 0657
669A: 55DE
669B: 2092
669C: 6E64
669D: 3D3D
669E: 0884
669F: 57FD
66A0: 2531
66A1: 7035
66A2: 3FBF
66A3: 0AEF
66A4: 5826
66A5: 272D
66A6: 7283
66A7: 41C0
66A8: 0F71
66A9: 5AA8
66AA: 29C3
66AB: 774D
66AC: 42B0
66AD: 11D2
66AE: 5F30
66AF: 2A92
66B0: 7831
66B1: 4741
66B2: 12B0
66B3: 6011
66B4: 2FAD
66B5: 7ACA
66B6: 4858
66B7: 17F1
66B8: 6571
66B9: 3097
66BA: 7E5E
66BB: 4DD8
66BC: 1B64
66BD: 66FD
66BE: 3404
66BF: 03BD
66C0: 5131
66C1: 1CF5
66C2: 6A3F
66C3: 39AF
66C4: 0726
66C5: 52ED
66C6: 2003
66C7: 6F8D
66C8: 3D75
66C9: 08F1
66CA: 5644
66CB: 25C8
66CC: 73B6
66CD: 410E
66CE: 0CB1
66CF: 5A3F
66D0: 285E
66D1: 77D5
66D2: 4551
66D3: 10CE
66D4: 5EE4
66D5: 2C14
66D6: 7BDF
66D7: 49B0
66D8: 1734
66D9: 62C4
66DA: 3080
66DB: 7E7D
66DC: 4C36
66DD: 1BF2
66DE: 69B1
66DF: 3776
66E0: 053C
66E1: 50B5
66E2: 1EA4
66E3: 6C75
66E4: 3A21
66E5: 09AD
66E6: 5786
66E7: 2544
66E8: 7361
66E9: 4129
66EA: 0CC4
66EB: 5ACD
66EC: 28A0
66ED: 7652
66EE: 447F
66EF: 1207
66F0: 6078
66F1: 2F95
66F2: 7DBB
66F3: 4B89
66F4: 19AC
66F5: 6748
66F6: 3510
66F7: 036B
66F8: 5161
66F9: 1F08
66FA: 6D12
66FB: 3B28
66FC: 0936
66FD: 577D
66FE: 253F
66FF: 733B
6700: 4174
6701: 0F21
6702: 5D38
6703: 2B38
6704: 7964
6705: 473B
6706: 1511
6707: 6310
6708: 3178
6709: 7F71
670A: 4D10
670B: 1B49
670C: 69AB
670D: 3792
670E: 05E2
670F: 5395
6710: 2032
6711: 6E19
6712: 3C71
6713: 0A4E
6714: 58AC
6715: 2688
6716: 74C3
6717: 4565
6718: 1376
6719: 6149
671A: 2F91
671B: 7DEE
671C: 4A2F
671D: 1833
671E: 66F9
671F: 34B5
6720: 0574
6721: 5341
6722: 21B8
6723: 6FF8
6724: 3C64
6725: 0A62
6726: 5882
6727: 26C7
6728: 7734
6729: 45A0
672A: 13C6
672B: 600C
672C: 2EB4
672D: 7CD2
672E: 4D62
672F: 1B94
6730: 6820
6731: 3650
6732: 04E3
6733: 555D
6734: 23AB
6735: 71D8
6736: 3E44
6737: 0CA5
6738: 5D7B
6739: 2B83
673A: 7850
673B: 46B4
673C: 172B
673D: 65A8
673E: 3222
673F: 00F5
6740: 513C
6741: 1FB4
6742: 6C3E
6743: 3AB9
6744: 0B37
6745: 59E3
6746: 267A
6747: 74EF
6748: 453F
6749: 13F1
674A: 6058
674B: 2EC8
674C: 7FE4
674D: 4C13
674E: 1AE5
674F: 6B58
6750: 3836
6751: 0690
6752: 5762
6753: 259D
6754: 72AB
6755: 4303
6756: 1190
6757: 5EB1
6758: 2F7C
6759: 7DC0
675A: 4AD0
675B: 1B7B
675C: 6825
675D: 36E8
675E: 07BC
675F: 5461
6760: 2574
6761: 73F1
6762: 40BF
6763: 1172
6764: 5E36
6765: 2CAD
6766: 7D96
6767: 4A49
6768: 1B75
6769: 6836
676A: 36D8
676B: 0788
676C: 54B7
676D: 251D
676E: 7267
676F: 431D
6770: 103D
6771: 5EC1
6772: 2FF5
6773: 7CDC
6774: 4DA7
6775: 1A0D
6776: 6B10
6777: 3851
6778: 097C
6779: 5600
677A: 2750
677B: 7425
677C: 452B
677D: 1228
677E: 6322
677F: 3032
6780: 0138
6781: 4E34
6782: 1F23
6783: 6C2E
6784: 3D64
6785: 0A25
6786: 5B11
6787: 2816
6788: 7934
6789: 4664
678A: 175C
678B: 645F
678C: 35A1
678D: 029C
678E: 53F4
678F: 20CC
6790: 7074
6791: 4107
6792: 0E65
6793: 5F53
6794: 2CE4
6795: 7D82
6796: 4AC5
6797: 1A31
6798: 6B3A
6799: 3805
679A: 09D0
679B: 56C4
679C: 2630
679D: 773D
679E: 44B6
679F: 15F9
67A0: 6535
67A1: 3266
67A2: 03B8
67A3: 50F8
67A4: 2037
67A5: 712D
67A6: 3E92
67A7: 0FC9
67A8: 5F75
67A9: 2CA6
67AA: 7DDB
67AB: 4D4D
67AC: 1AA5
67AD: 6BD3
67AE: 3B74
67AF: 08D5
67B0: 5832
67B1: 2959
67B2: 76F9
67B3: 460D
67B4: 17B7
67B5: 648D
67B6: 345F
67B7: 05F3
67B8: 5571
67B9: 2297
67BA: 725C
67BB: 43ED
67BC: 1336
67BD: 60B8
67BE: 3023
67BF: 01A1
67C0: 5135
67C1: 1EA7
67C2: 6E24
67C3: 3FB4
67C4: 0F2A
67C5: 5CAA
67C6: 2C50
67C7: 7D91
67C8: 4D7C
67C9: 1AE0
67CA: 6A10
67CB: 3BCB
67CC: 0BA8
67CD: 5B12
67CE: 28E7
67CF: 7815
67D0: 483B
67D1: 1993
67D2: 6930
67D3: 36CE
67D4: 06A5
67D5: 5603
67D6: 27D4
67D7: 77EB
67D8: 4790
67D9: 1485
67DA: 64D0
67DB: 3459
67DC: 042C
67DD: 55F8
67DE: 25F0
67DF: 757D
67E0: 453B
67E1: 12E0
67E2: 62A2
67E3: 327A
67E4: 0228
67E5: 53EC
67E6: 2383
67E7: 7356
67E8: 4334
67E9: 132C
67EA: 60C3
67EB: 30CD
67EC: 00B7
67ED: 5049
67EE: 2079
67EF: 7019
67F0: 4038
67F1: 1195
67F2: 61E2
67F3: 3188
67F4: 01AA
67F5: 5143
67F6: 2159
67F7: 716B
67F8: 4173
67F9: 1144
67FA: 6150
67FB: 316D
67FC: 010D
67FD: 5129
67FE: 2170
67FF: 7133
6800: 4138
6801: 1134
6802: 6123
6803: 3135
6804: 0121
6805: 513E
6806: 2150
6807: 7112
6808: 417C
6809: 116C
680A: 6144
680B: 3148
680C: 01E5
680D: 51DD
680E: 21B0
680F: 71EC
6810: 403B
6811: 1000
6812: 6030
6813: 3055
6814: 00A1
6815: 508C
6816: 20C2
6817: 7365
6818: 4375
6819: 1305
681A: 6393
681B: 33E1
681C: 022D
681D: 527E
681E: 22BB
681F: 72B5
6820: 4532
6821: 1567
6822: 65BF
6823: 35F0
6824: 0464
6825: 5479
6826: 2498
6827: 74C0
6828: 4734
6829: 17B3
682A: 67D1
682B: 3618
682C: 06A8
682D: 56C9
682E: 2930
682F: 7991
6830: 483B
6831: 185A
6832: 68E2
6833: 3B53
6834: 0BE4
6835: 5B8D
6836: 2A64
6837: 7AED
6838: 4D71
6839: 1DC5
683A: 6C1F
683B: 3CBF
683C: 0F26
683D: 5FFD
683E: 2E35
683F: 7EA3
6840: 5135
6841: 21A5
6842: 703F
6843: 40AF
6844: 1325
6845: 63B9
6846: 3215
6847: 0296
6848: 5534
6849: 25EA
684A: 7445
684B: 44D9
684C: 17E4
684D: 6612
684E: 36F6
684F: 0915
6850: 583C
6851: 289A
6852: 7B65
6853: 4BCF
6854: 1AE4
6855: 6D05
6856: 3DD1
6857: 0CAB
6858: 5F70
6859: 2FD6
685A: 7EDE
685B: 5107
685C: 204E
685D: 709A
685E: 4391
685F: 1266
6860: 6574
6861: 35EC
6862: 04BF
6863: 5768
6864: 2664
6865: 7688
6866: 499C
6867: 1840
6868: 6B75
6869: 3A33
686A: 0AD5
686B: 5DE8
686C: 2CA1
686D: 7F53
686E: 4E64
686F: 2110
6870: 7026
6871: 40E3
6872: 13B0
6873: 6289
6874: 35AC
6875: 0448
6876: 5710
6877: 2677
6878: 797B
6879: 480A
687A: 1B1D
687B: 6A61
687C: 3D64
687D: 0C29
687E: 5F38
687F: 2E30
6880: 0174
6881: 503A
6882: 2322
6883: 723F
6884: 4564
6885: 1428
6886: 6706
6887: 3604
6888: 0964
6889: 586A
688A: 2B42
688B: 7A4C
688C: 4DB0
688D: 1C98
688E: 6FE3
688F: 3E95
6890: 103B
6891: 6300
6892: 3264
6893: 051D
6894: 54AB
6895: 278B
6896: 7690
6897: 483C
6898: 1B7B
6899: 6A50
689A: 3D82
689B: 0CAD
689C: 5E2C
689D: 317C
689E: 00BE
689F: 53F1
68A0: 2527
68A1: 7434
68A2: 47F0
68A3: 16BD
68A4: 680D
68A5: 3B79
68A6: 0AD0
68A7: 5DD7
68A8: 2F71
68A9: 7EA8
68AA: 51D1
68AB: 2319
68AC: 72A1
68AD: 45CF
68AE: 1779
68AF: 6694
68B0: 3838
68B1: 0B5C
68B2: 5AEA
68B3: 2C18
68B4: 7FB7
68B5: 4E8D
68B6: 205F
68B7: 73EB
68B8: 4534
68B9: 148C
68BA: 6604
68BB: 39BE
68BC: 0B64
68BD: 5AAD
68BE: 2C35
68BF: 7FB1
68C0: 5131
68C1: 20A6
68C2: 7224
68C3: 45BC
68C4: 1728
68C5: 66E3
68C6: 387A
68C7: 0BEF
68C8: 5D0E
68C9: 2CD1
68CA: 7E58
68CB: 51C8
68CC: 23E4
68CD: 750B
68CE: 44F1
68CF: 1640
68D0: 6838
68D1: 3B81
68D2: 0D30
68D3: 5CD9
68D4: 2EAB
68D5: 0002 53C2           PUSH 53C2
68D7: 25E5
68D8: 777D
68D9: 46D6
68DA: 18D0
68DB: 6A7E
68DC: 3C21
68DD: 0FFC
68DE: 61BC
68DF: 3370
68E0: 0530
68E1: 54BB
68E2: 26DA
68E3: 782D
68E4: 3A61
68E5: 6D94
68E6: 1FE4
68E7: 3174
68E8: 6316
68E9: 1551
68EA: 44AD
68EB: 76FA
68EC: 2898
68ED: 5A38
68EE: 0C04
68EF: 3E77
68F0: 5051
68F1: 03E4
68F2: 3582
68F3: 67E3
68F4: 19D8
68F5: 4B2C
68F6: 7D2D
68F7: 2F11
68F8: 4111
68F9: 737D
68FA: 256E
68FB: 5752
68FC: 0915
68FD: 3B4F
68FE: 6D4E
68FF: 1F40
6900: 3140
6901: 6304
6902: 1548
6903: 475F
6904: 790F
6905: 2B1C
6906: 5D4A
6907: 0F62
6908: 2102
6909: 5302
690A: 0504
690B: 3712
690C: 69C6
690D: 1BE8
690E: 4DA6
690F: 7F82
6910: 1062
6911: 427E
6912: 746B
6913: 2646
6914: 28C6
6915: 622D
6916: 5478
6917: 2147
6918: 7A03
6919: 4C37
691A: 17F1
691B: 70AE
691C: 3A45
691D: 0510
691E: 5ED2
691F: 292C
6920: 1CEB
6921: 5717
6922: 20CC
6923: 7290
6924: 4C46
6925: 0426
6926: 6AC1
6927: 42A7
6928: 1E35
6929: 60D2
692A: 3BB2
692B: 1690
692C: 45C0
692D: 30BF
692E: 0C36
692F: 5EE2
6930: 2856
6931: 61A5
6932: 5709
6933: 217F
6934: 7AEF
6935: 4C8C
6936: 1631
6937: 74E4
6938: 3D15
6939: 06D5
693A: 6072
693B: 2F89
693C: 1A0D
693D: 59DF
693E: 236A
693F: 75E0
6940: 5155
6941: 3E6E
6942: 7451
6943: 4FED
6944: 1B46
6945: 73A7
6946: 201F
6947: 10E7
6948: 6C24
6949: 3EBA
694A: 0833
694B: 459D
694C: 30F3
694D: 1F43
694E: 5293
694F: 2E0F
6950: 711D
6951: 43B1
6952: 1F12
6953: 6EF2
6954: 5D4D
6955: 176F
6956: 7665
6957: 251B
6958: 0F16
6959: 68DE
695A: 3BCF
695B: 0708
695C: 782B
695D: 0AEB
695E: 5FAC
695F: 7097
6960: 05D3
6961: 7790
6962: 41EF
6963: 1453
6964: 6717
6965: 49D5
6966: 1CAD
6967: 6626
6968: 1BC0
6969: 2C9F
696A: 7E50
696B: 33EE
696C: 0D97
696D: 5074
696E: 235E
696F: 7F76
6970: 7179
6971: 0386
6972: 56A9
6973: 48FE
6974: 148D
6975: 6763
6976: 4A63
6977: 1401
6978: 48DF
6979: 1BB4
697A: 2EA7
697B: 4191
697C: 3540
697D: 0F3A
697E: 5208
697F: 251C
6980: 0822
6981: 5256
6982: 0579
6983: 5A72
6984: 6F71
6985: 1E4E
6986: 7A2D
6987: 4D07
6988: 105D
6989: 6A01
698A: 1DFE
698B: 32F9
698C: 471E
698D: 1422
698E: 0B94
698F: 55D9
6990: 391A
6991: 0C26
6992: 5F66
6993: 2B3E
6994: 5FE8
6995: 72DF
6996: 0187
6997: 7646
6998: 4247
6999: 156B
699A: 7897
699B: 428C
699C: 35C1
699D: 6B1C
699E: 3599
699F: 1194
69A0: 4686
69A1: 3614
69A2: 0299
69A3: 5C9F
69A4: 145B
69A5: 2128
69A6: 56F2
69A7: 22F6
69A8: 765A
69A9: 50C7
69AA: 011B
69AB: 5DDD
69AC: 4AC6
69AD: 163D
69AE: 7A54
69AF: 44F7
69B0: 3CB1
69B1: 49DF
69B2: 3E92
69B3: 1B06
69B4: 6E41
69B5: 38AF
69B6: 292F
69B7: 44A1
69B8: 3516
69B9: 0F65
69BA: 53FA
69BB: 2FCF
69BC: 26DF
69BD: 717D
69BE: 2852
69BF: 7450
69C0: 58DB
69C1: 22D7
69C2: 50F4
69C3: 6D74
69C4: 1F46
69C5: 7947
69C6: 4DE4
69C7: 19E7
69C8: 4A7F
69C9: 19F4
69CA: 1232
69CB: 6E34
69CC: 324B
69CD: 0F79
69CE: 4833
69CF: 1C9C
69D0: 20FB
69D1: 7541
69D2: 3114
69D3: 0B22
69D4: 5F50
69D5: 23C9
69D6: 761E
69D7: 53C0
69D8: 261F
69D9: 79AA
69DA: 4DE3
69DB: 2114
69DC: 755B
69DD: 4998
69DE: 1DD0
69DF: 7115
69E0: 4554
69E1: 1695
69E2: 6AD0
69E3: 3E1C
69E4: 3B23
69E5: 678C
69E6: 3269
69E7: 0F27
69E8: 4AEA
69E9: 1D46
69EA: 08B2
69EB: 5544
69EC: 395D
69ED: 043C
69EE: 7299
69EF: 2C74
69F0: 09F0
69F1: 55B7
69F2: 02D6
69F3: 56B4
69F4: 51C6
69F5: 2C9E
69F6: 70A9
69F7: 4D04
69F8: 0AEA
69F9: 7564
69FA: 40DE
69FB: 1D4C
69FC: 5C5C
69FD: 455C
69FE: 10ED
69FF: 6D54
6A00: 6C93
6A01: 1554
6A02: 60E8
6A03: 3D5E
6A04: 3F3B
6A05: 4BC9
6A06: 17F9
6A07: 0D66
6A08: 68D3
6A09: 3CC9
6A0A: 00E1
6A0B: 5D2F
6A0C: 1E58
6A0D: 2A5C
6A0E: 5992
6A0F: 2477
6A10: 0985
6A11: 5477
6A12: 18B0
6A13: 4C98
6A14: 50C6
6A15: 2D2F
6A16: 7166
6A17: 4F46
6A18: 1296
6A19: 46AD
6A1A: 7A7E
6A1B: 1F8E
6A1C: 7B9F
6A1D: 4FDF
6A1E: 1306
6A1F: 6E96
6A20: 774A
6A21: 2B31
6A22: 5FFA
6A23: 419E
6A24: 1D9F
6A25: 61C1
6A26: 3521
6A27: 10A7
6A28: 5432
6A29: 08E9
6A2A: 0FB2
6A2B: 6B8D
6A2C: 3F15
6A2D: 0ABF
6A2E: 5570
6A2F: 0193
6A30: 0856
6A31: 55D0
6A32: 394B
6A33: 077F
6A34: 6EB6
6A35: 1AD5
6A36: 0232
6A37: 5F6F
6A38: 24F4
6A39: 01E7
6A3A: 6219
6A3B: 1EA2
6A3C: 7F46
6A3D: 5A32
6A3E: 2FB5
6A3F: 7AD7
6A40: 67AA
6A41: 12D1
6A42: 7852
6A43: 4529
6A44: 2AAE
6A45: 77CE
6A46: 722B
6A47: 2684
6A48: 4D73
6A49: 4986
6A4A: 15CE
6A4B: 7942
6A4C: 4E3D
6A4D: 1A7C
6A4E: 57B5
6A4F: 4534
6A50: 11A0
6A51: 6CF7
6A52: 7AB1
6A53: 2E1A
6A54: 6AC6
6A55: 4B52
6A56: 1C44
6A57: 68C7
6A58: 052D
6A59: 299B
6A5A: 66F2
6A5B: 3705
6A5C: 1A53
6A5D: 649E
6A5E: 0102
6A5F: 34C2
6A60: 5F89
6A61: 3996
6A62: 06DD
6A63: 6901
6A64: 3C47
6A65: 0A8E
6A66: 5A9E
6A67: 0F56
6A68: 306D
6A69: 5E46
6A6A: 38A2
6A6B: 03CC
6A6C: 56CC
6A6D: 333E
6A6E: 3A90
6A6F: 61F3
6A70: 0CDF
6A71: 04B6
6A72: 51B6
6A73: 24F0
6A74: 0F97
6A75: 582E
6A76: 122F
6A77: 3F20
6A78: 643E
6A79: 2C66
6A7A: 0973
6A7B: 5C51
6A7C: 276F
6A7D: 0059
6A7E: 6AEC
6A7F: 1797
6A80: 3C93
6A81: 6998
6A82: 2B54
6A83: 7455
6A84: 5F65
6A85: 227D
6A86: 7567
6A87: 5261
6A88: 1775
6A89: 4262
6A8A: 6D5C
6A8B: 185F
6A8C: 7DC0
6A8D: 5AF0
6A8E: 2DB6
6A8F: 7080
6A90: 5A48
6A91: 2776
6A92: 4513
6A93: 6E34
6A94: 1BCB
6A95: 7BEE
6A96: 44A2
6A97: 2E7F
6A98: 7135
6A99: 4E26
6A9A: 1A50
6A9B: 472B
6A9C: 71EF
6A9D: 251E
6A9E: 72C7
6A9F: 45A5
6AA0: 2F6B
6AA1: 7811
6AA2: 0FEF
6AA3: 62D8
6AA4: 380E
6AA5: 0F5D
6AA6: 22F4
6AA7: 73B9
6AA8: 4521
6AA9: 2881
6AAA: 739B
6AAB: 4F69
6AAC: 6225
6AAD: 395A
6AAE: 0FFC
6AAF: 6207
6AB0: 7850
6AB1: 4514
6AB2: 28AA
6AB3: 7234
6AB4: 45F4
6AB5: 22AE
6AB6: 39B6
6AB7: 0E09
6AB8: 6486
6AB9: 78E6
6ABA: 4456
6ABB: 2F83
6ABC: 7171
6ABD: 4EDE
6ABE: 666A
6ABF: 3995
6AC0: 1311
6AC1: 24D6
6AC2: 707B
6AC3: 5B99
6AC4: 2EBA
6AC5: 7ACE
6AC6: 12A7
6AC7: 6538
6AC8: 3FF6
6AC9: 5086
6ACA: 2C00
6ACB: 77E4
6ACC: 59FB
6ACD: 297E
6ACE: 3FE5
6ACF: 114E
6AD0: 6BD4
6AD1: 7FF6
6AD2: 5F25
6AD3: 22F3
6AD4: 7480
6AD5: 546F
6AD6: 6FA1
6AD7: 45D2
6AD8: 5716
6AD9: 209F
6ADA: 0AB9
6ADB: 560C
6ADC: 68B3
6ADD: 039C
6ADE: 53C2
6ADF: 2F17
6AE0: 40D5
6AE1: 1D1C
6AE2: 2ED2
6AE3: 0E40
6AE4: 5019
6AE5: 318F
6AE6: 41FD
6AE7: 1B34
6AE8: 3316
6AE9: 0327
6AEA: 56D2
6AEB: 32EE
6AEC: 4EBD
6AED: 1840
6AEE: 7292
6AEF: 0A76
6AF0: 6A33
6AF1: 3DD2
6AF2: 07F7
6AF3: 63FD
6AF4: 39C4
6AF5: 0F3D
6AF6: 6F5C
6AF7: 3175
6AF8: 1B60
6AF9: 6D1D
6AFA: 370C
6AFB: 19CD
6AFC: 63C0
6AFD: 35D5
6AFE: 1FDC
6AFF: 61C5
6B00: 4BC0
6B01: 1DCD
6B02: 67F4
6B03: 49F5
6B04: 13D8
6B05: 65ED
6B06: 4577
6B07: 7E32
6B08: 144E
6B09: 225A
6B0A: 7854
6B0B: 1645
6B0C: 2CA9
6B0D: 7A8F
6B0E: 7597
6B0F: 4718
6B10: 2BC0
6B11: 7B70
6B12: 4132
6B13: 2F75
6B14: 7564
6B15: 431D
6B16: 24A1
6B17: 3539
6B18: 1B35
6B19: 613B
6B1A: 37E7
6B1B: 1D8F
6B1C: 6212
6B1D: 480F
6B1E: 1EC9
6B1F: 64C3
6B20: 4D5B
6B21: 130C
6B22: 79D3
6B23: 4FCB
6B24: 1456
6B25: 7A14
6B26: 40B9
6B27: 16D9
6B28: 3702
6B29: 2B6A
6B2A: 4529
6B2B: 1EEE
6B2C: 2812
6B2D: 4238
6B2E: 1B83
6B2F: 3566
6B30: 4E82
6B31: 18AD
6B32: 3209
6B33: 4BAB
6B34: 6541
6B35: 3F2E
6B36: 48A5
6B37: 621B
6B38: 3BC2
6B39: 557A
6B3A: 6EF2
6B3B: 385E
6B3C: 51DF
6B3D: 6B05
6B3E: 04AC
6B3F: 78CF
6B40: 5430
6B41: 22EF
6B42: 7956
6B43: 57DA
6B44: 2E44
6B45: 04C4
6B46: 536D
6B47: 29AB
6B48: 0015                NOOP
6B49: 5E8D
6B4A: 357E
6B4B: 03AA
6B4C: 5AC4
6B4D: 3167
6B4E: 0F9B
6B4F: 6629
6B50: 3D5F
6B51: 0BE8
6B52: 620A
6B53: 38F3
6B54: 17C2
6B55: 6E66
6B56: 44AC
6B57: 13CE
6B58: 6A40
6B59: 40C1
6B5A: 1AC1
6B5B: 0A37
6B5C: 3117
6B5D: 678A
6B5E: 0ECC
6B5F: 3508
6B60: 5C00
6B61: 0292
6B62: 2983
6B63: 501B
6B64: 0759
6B65: 2D9A
6B66: 54E6
6B67: 7B24
6B68: 2214
6B69: 4942
6B6A: 7FA2
6B6B: 26F0
6B6C: 4DD3
6B6D: 7475
6B6E: 1B43
6B6F: 4272
6B70: 6955
6B71: 1FBF
6B72: 46C3
6B73: 6DA9
6B74: 14DF
6B75: 3B3B
6B76: 622F
6B77: 0906
6B78: 3040
6B79: 6736
6B7A: 0E65
6B7B: 3551
6B7C: 5C45
6B7D: 030E
6B7E: 2A4A
6B7F: 5148
6B80: 7854
6B81: 2F52
6B82: 5651
6B83: 7D5B
6B84: 2454
6B85: 4B4A
6B86: 726A
6B87: 1979
6B88: 4009
6B89: 7705
6B8A: 1E6D
6B8B: 4554
6B8C: 143C
6B8D: 07E3
6B8E: 2E8D
6B8F: 75A8
6B90: 1D4D
6B91: 240D
6B92: 7342
6B93: 1A6F
6B94: 21EF
6B95: 48F0
6B96: 17B7
6B97: 3F17
6B98: 460B
6B99: 6D36
6B9A: 34FB
6B9B: 43DF
6B9C: 6B5B
6B9D: 320A
6B9E: 59D0
6B9F: 6082
6BA0: 084A
6BA1: 571E
6BA2: 7E82
6BA3: 05C8
6BA4: 2D5A
6BA5: 7410
6BA6: 03ED
6BA7: 2ABC
6BA8: 7241
6BA9: 1997
6BAA: 20B6
6BAB: 4870
6BAC: 1796
6BAD: 3EAA
6BAE: 461A
6BAF: 6DE6
6BB0: 354B
6BB1: 5C2E
6BB2: 6B8C
6BB3: 336A
6BB4: 5A96
6BB5: 61AB
6BB6: 092A
6BB7: 5092
6BB8: 7846
6BB9: 07E5
6BBA: 2F6D
6BBB: 76D0
6BBC: 1E5B
6BBD: 2583
6BBE: 4D02
6BBF: 14C8
6BC0: 3C54
6BC1: 4B87
6BC2: 135B
6BC3: 3AC0
6BC4: 4243
6BC5: 699F
6BC6: 316F
6BC7: 58F6
6BC8: 601F
6BC9: 0FD7
6BCA: 5765
6BCB: 7EB3
6BCC: 06D9
6BCD: 2E60
6BCE: 7589
6BCF: 1D67
6BD0: 251A
6BD1: 4CF4
6BD2: 1417
6BD3: 23AD
6BD4: 4BDC
6BD5: 137A
6BD6: 3AA1
6BD7: 42C3
6BD8: 6A58
6BD9: 31F0
6BDA: 59A2
6BDB: 6157
6BDC: 0945
6BDD: 509A
6BDE: 78C1
6BDF: 000F 2806 7786      RMEM 2806 7786
6BE2: 1FD1
6BE3: 274F
6BE4: 4F11
6BE5: 1693
6BE6: 3EED
6BE7: 4638
6BE8: 6E0D
6BE9: 3617
6BEA: 5DA1
6BEB: 65F7
6BEC: 0DD7
6BED: 5526
6BEE: 7D10
6BEF: 0520
6BF0: 2D0F
6BF1: 74E7
6BF2: 1C96
6BF3: 24E0
6BF4: 4C96
6BF5: 143A
6BF6: 3C3A
6BF7: 4416
6BF8: 6C0B
6BF9: 347E
6BFA: 5C6C
6BFB: 645A
6BFC: 0C16
6BFD: 545C
6BFE: 7C4D
6BFF: 044A
6C00: 2C43
6C01: 7453
6C02: 1C4A
6C03: 2446
6C04: 4C58
6C05: 1458
6C06: 3C22
6C07: 4464
6C08: 6C16
6C09: 3412
6C0A: 5C21
6C0B: 6436
6C0C: 0CD0
6C0D: 54E6
6C0E: 7C81
6C0F: 04E9
6C10: 2D2C
6C11: 7560
6C12: 1D0D
6C13: 2545
6C14: 4D96
6C15: 15BF
6C16: 3D9B
6C17: 4658
6C18: 6E13
6C19: 3677
6C1A: 5EEF
6C1B: 669E
6C1C: 0F4F
6C1D: 574F
6C1E: 7F85
6C1F: 0780
6C20: 2849
6C21: 7047
6C22: 189E
6C23: 208A
6C24: 494E
6C25: 1116
6C26: 39F6
6C27: 41E9
6C28: 6A41
6C29: 3297
6C2A: 5AB6
6C2B: 6370
6C2C: 0B96
6C2D: 53BB
6C2E: 7410
6C2F: 1CE6
6C30: 2550
6C31: 4D22
6C32: 158E
6C33: 3E2F
6C34: 46DF
6C35: 6EB1
6C36: 3762
6C37: 5F83
6C38: 600E
6C39: 08F6
6C3A: 5176
6C3B: 799F
6C3C: 0252
6C3D: 2AC6
6C3E: 7350
6C3F: 1BC2
6C40: 3C45
6C41: 44D3
6C42: 6D4B
6C43: 35C0
6C44: 5E58
6C45: 669F
6C46: 0F2A
6C47: 57E4
6C48: 7813
6C49: 0094
6C4A: 292A
6C4B: 71FF
6C4C: 1AD7
6C4D: 237C
6C4E: 4BC2
6C4F: 6C60
6C50: 3541
6C51: 5DE8
6C52: 6642
6C53: 0EB8
6C54: 57D3
6C55: 786C
6C56: 00B6
6C57: 2990
6C58: 724F
6C59: 1AFB
6C5A: 23A2
6C5B: 4410
6C5C: 6D44
6C5D: 35CF
6C5E: 5EDB
6C5F: 6708
6C60: 0853
6C61: 50C7
6C62: 79CF
6C63: 020E
6C64: 2B4F
6C65: 73DF
6C66: 14EF
6C67: 3D32
6C68: 4614
6C69: 6F52
6C6A: 37AE
6C6B: 58E6
6C6C: 6196
6C6D: 0A68
6C6E: 535E
6C6F: 7462
6C70: 1D5E
6C71: 25AE
6C72: 4E96
6C73: 17B1
6C74: 3891
6C75: 417F
6C76: 6A6A
6C77: 3304
6C78: 5413
6C79: 7D74
6C7A: 066A
6C7B: 2F1F
6C7C: 7057
6C7D: 195C
6C7E: 2202
6C7F: 4B00
6C80: 6C51
6C81: 3542
6C82: 5E51
6C83: 675B
6C84: 0811
6C85: 5116
6C86: 7A2C
6C87: 031D
6C88: 240F
6C89: 4D19
6C8A: 1634
6C8B: 3F55
6C8C: 4096
6C8D: 69AF
6C8E: 32B6
6C8F: 5BA8
6C90: 7D06
6C91: 0674
6C92: 2F07
6C93: 702A
6C94: 1996
6C95: 22EB
6C96: 4BAA
6C97: 6D52
6C98: 3646
6C99: 5F34
6C9A: 60ED
6C9B: 0991
6C9C: 5342
6C9D: 740A
6C9E: 1DCC
6C9F: 2693
6CA0: 4855
6CA1: 1147
6CA2: 3ACD
6CA3: 4389
6CA4: 6516
6CA5: 0E06
6CA6: 57ED
6CA7: 78A2
6CA8: 0214
6CA9: 2B97
6CAA: 4CAB
6CAB: 1671
6CAC: 3FC0
6CAD: 40AA
6CAE: 6A0C
6CAF: 33F3
6CB0: 5549
6CB1: 7E35
6CB2: 079B
6CB3: 2923
6CB4: 7296
6CB5: 1BB2
6CB6: 3D27
6CB7: 4685
6CB8: 6803
6CB9: 31FB
6CBA: 5B7B
6CBB: 7C9F
6CBC: 0611
6CBD: 2FC6
6CBE: 714C
6CBF: 1AD1
6CC0: 3C01
6CC1: 4589
6CC2: 6F28
6CC3: 30DB
6CC4: 5A57
6CC5: 63D4
6CC6: 0567
6CC7: 2E9D
6CC8: 7046
6CC9: 19D7
6CCA: 231B
6CCB: 44B0
6CCC: 6EC3
6CCD: 302F
6CCE: 598F
6CCF: 6326
6CD0: 055F
6CD1: 2EA7
6CD2: 7045
6CD3: 19BB
6CD4: 23D7
6CD5: 4574
6CD6: 6EA7
6CD7: 3097
6CD8: 5A5A
6CD9: 63BE
6CDA: 05F6
6CDB: 2F1A
6CDC: 715B
6CDD: 1AD1
6CDE: 3C85
6CDF: 4647
6CE0: 680E
6CE1: 3194
6CE2: 5BD7
6CE3: 7D0C
6CE4: 075E
6CE5: 28DF
6CE6: 72E3
6CE7: 1424
6CE8: 3E46
6CE9: 4010
6CEA: 69B6
6CEB: 33FE
6CEC: 55DD
6CED: 7F2A
6CEE: 0142
6CEF: 2B6B
6CF0: 4D47
6CF1: 16B5
6CF2: 3885
6CF3: 42EA
6CF4: 6496
6CF5: 0E2D
6CF6: 502D
6CF7: 7A14
6CF8: 1C0D
6CF9: 2630
6CFA: 482B
6CFB: 1211
6CFC: 343C
6CFD: 5E4B
6CFE: 6050
6CFF: 0A48
6D00: 2C56
6D01: 762D
6D02: 1802
6D03: 220F
6D04: 4462
6D05: 6E50
6D06: 3022
6D07: 5A73
6D08: 7C14
6D09: 0618
6D0A: 2832
6D0B: 727F
6D0C: 14C5
6D0D: 3EE0
6D0E: 408F
6D0F: 6AA2
6D10: 0D52
6D11: 576F
6D12: 790B
6D13: 0321
6D14: 25D1
6D15: 4FBF
6D16: 11AB
6D17: 3459
6D18: 5E46
6D19: 602E
6D1A: 0AED
6D1B: 2C8A
6D1C: 7744
6D1D: 194F
6D1E: 23CB
6D1F: 4589
6D20: 6850
6D21: 3202
6D22: 54CC
6D23: 7E9B
6D24: 0159
6D25: 2B0D
6D26: 4DFB
6D27: 17FB
6D28: 3A46
6D29: 5CCE
6D2A: 66AD
6D2B: 096A
6D2C: 5396
6D2D: 75A2
6D2E: 1803
6D2F: 22FE
6D30: 4506
6D31: 6F60
6D32: 3186
6D33: 547D
6D34: 7ED9
6D35: 00AF
6D36: 2B62
6D37: 4DCB
6D38: 100F
6D39: 3AE3
6D3A: 5D67
6D3B: 67D2
6D3C: 0A08
6D3D: 2C88
6D3E: 770C
6D3F: 19AD
6D40: 3C53
6D41: 46D4
6D42: 6947
6D43: 33A5
6D44: 5616
6D45: 789F
6D46: 035B
6D47: 25F8
6D48: 4813
6D49: 12D7
6D4A: 352F
6D4B: 5FBE
6D4C: 62CF
6D4D: 052F
6D4E: 2F83
6D4F: 7224
6D50: 1552
6D51: 3FEE
6D52: 4214
6D53: 64AE
6D54: 0FC2
6D55: 527A
6D56: 74E2
6D57: 1FD8
6D58: 2214
6D59: 44F7
6D5A: 6FED
6D5B: 320B
6D5C: 555E
6D5D: 7F8A
6D5E: 02D0
6D5F: 2510
6D60: 484F
6D61: 1294
6D62: 35C7
6D63: 584F
6D64: 6357
6D65: 058F
6D66: 28F2
6D67: 733B
6D68: 161F
6D69: 3917
6D6A: 43A3
6D6B: 66F1
6D6C: 0996
6D6D: 2C26
6D6E: 7716
6D6F: 1A62
6D70: 3D4B
6D71: 47E7
6D72: 6A95
6D73: 0DE6
6D74: 50C2
6D75: 7B37
6D76: 1E62
6D77: 2150
6D78: 4413
6D79: 6F64
6D7A: 3267
6D7B: 551F
6D7C: 780A
6D7D: 0346
6D7E: 2656
6D7F: 4942
6D80: 6C4B
6D81: 3719
6D82: 5A05
6D83: 7D01
6D84: 003C
6D85: 465D
6D86: 354D
6D87: 6A6E
6D88: 4F05
6D89: 2413
6D8A: 1974
6D8B: 7E20
6D8C: 53CE
6D8D: 08EF
6D8E: 6D91
6D8F: 42BF
6D90: 2644
6D91: 1B7E
6D92: 7006
6D93: 5520
6D94: 0A9A
6D95: 6F83
6D96: 52B7
6D97: 2DF2
6D98: 0896
6D99: 67AD
6D9A: 4276
6D9B: 1900
6D9C: 7589
6D9D: 50F4
6D9E: 2CCB
6D9F: 5134
6DA0: 3DC3
6DA1: 6698
6DA2: 4308
6DA3: 2C16
6DA4: 08D9
6DA5: 7590
6DA6: 5E28
6DA7: 3B33
6DA8: 6783
6DA9: 401D
6DAA: 2D3B
6DAB: 09E0
6DAC: 725F
6DAD: 5F2D
6DAE: 3BC8
6DAF: 6464
6DB0: 40D8
6DB1: 2DA8
6DB2: 1605
6DB3: 72A5
6DB4: 5F54
6DB5: 3830
6DB6: 64BA
6DB7: 4118
6DB8: 2DC2
6DB9: 1617
6DBA: 2A79
6DBB: 45EB
6DBC: 2154
6DBD: 7ED0
6DBE: 5A42
6DBF: 37C7
6DC0: 1353
6DC1: 68D3
6DC2: 441C
6DC3: 21B5
6DC4: 3F66
6DC5: 4A7C
6DC6: 26F7
6DC7: 0378
6DC8: 7FDC
6DC9: 540E
6DCA: 30B9
6DCB: 6D2B
6DCC: 490B
6DCD: 25E1
6DCE: 0258
6DCF: 7EBB
6DD0: 5AD5
6DD1: 3773
6DD2: 139C
6DD3: 4875
6DD4: 2458
6DD5: 00ED
6DD6: 7D39
6DD7: 5959
6DD8: 35DC
6DD9: 1224
6DDA: 4E76
6DDB: 2AC5
6DDC: 06D5
6DDD: 631A
6DDE: 5F4D
6DDF: 3B8F
6DE0: 179C
6DE1: 4C0D
6DE2: 2859
6DE3: 0496
6DE4: 60C7
6DE5: 5D4B
6DE6: 3912
6DE7: 4707
6DE8: 1836
6DE9: 4451
6DEA: 63BE
6DEB: 0FB6
6DEC: 2BDC
6DED: 5727
6DEE: 7305
6DEF: 1F29
6DF0: 3B5B
6DF1: 66EE
6DF2: 028D
6DF3: 2EEF
6DF4: 4AD1
6DF5: 7632
6DF6: 126B
6DF7: 3E0A
6DF8: 5A07
6DF9: 067F
6DFA: 227F
6DFB: 4E16
6DFC: 6A56
6DFD: 1648
6DFE: 320B
6DFF: 5E57
6E00: 7A40
6E01: 265B
6E02: 4259
6E03: 6E06
6E04: 0A4F
6E05: 3657
6E06: 5268
6E07: 7E75
6E08: 1A41
6E09: 4674
6E0A: 5911
6E0B: 1780
6E0C: 335F
6E0D: 4F7C
6E0E: 6B44
6E0F: 0720
6E10: 22D2
6E11: 7EE4
6E12: 1A8A
6E13: 36EE
6E14: 5244
6E15: 6E39
6E16: 0A37
6E17: 25C4
6E18: 4192
6E19: 1DB4
6E1A: 3924
6E1B: 5511
6E1C: 70DF
6E1D: 0C9E
6E1E: 2804
6E1F: 4415
6E20: 67CF
6E21: 03C1
6E22: 5F51
6E23: 7B1A
6E24: 16D5
6E25: 32D9
6E26: 4E70
6E27: 6A39
6E28: 0581
6E29: 2145
6E2A: 7D6A
6E2B: 1893
6E2C: 16DB
6E2D: 1799
6E2E: 3402
6E2F: 48FD
6E30: 6D09
6E31: 0120
6E32: 258C
6E33: 7A76
6E34: 1EDC
6E35: 32F0
6E36: 572F
6E37: 6B9D
6E38: 080C
6E39: 2CF6
6E3A: 412D
6E3B: 65D5
6E3C: 3A58
6E3D: 5ED4
6E3E: 7348
6E3F: 17C6
6E40: 3409
6E41: 48CA
6E42: 6D54
6E43: 0180
6E44: 2658
6E45: 7A90
6E46: 1F6A
6E47: 33EA
6E48: 501C
6E49: 749D
6E4A: 0963
6E4B: 2DDA
6E4C: 27FA
6E4D: 3BD3
6E4E: 6715
6E4F: 04B1
6E50: 21CA
6E51: 4D7D
6E52: 6A91
6E53: 1635
6E54: 334D
6E55: 50A0
6E56: 7C32
6E57: 1946
6E58: 46D9
6E59: 623C
6E5A: 0F75
6E5B: 2C85
6E5C: 4989
6E5D: 7507
6E5E: 125C
6E5F: 3F94
6E60: 5CD5
6E61: 7858
6E62: 2552
6E63: 4296
6E64: 6F89
6E65: 0B0F
6E66: 2873
6E67: 55AD
6E68: 72D9
6E69: 1FC7
6E6A: 3B3B
6E6B: 5820
6E6C: 055D
6E6D: 22B8
6E6E: 4F98
6E6F: 6CB8
6E70: 09C9
6E71: 3539
6E72: 520E
6E73: 7F63
6E74: 1C48
6E75: 39A7
6E76: 66B8
6E77: 039F
6E78: 2098
6E79: 4DF1
6E7A: 6AEE
6E7B: 178C
6E7C: 3489
6E7D: 51C9
6E7E: 7ED2
6E7F: 1BCD
6E80: 3899
6E81: 65CB
6E82: 02D8
6E83: 2FD5
6E84: 4C93
6E85: 69AA
6E86: 1697
6E87: 33A8
6E88: 50D9
6E89: 7DC8
6E8A: 1AFD
6E8B: 7E2E
6E8C: 0B23
6E8D: 3904
6E8E: 506C
6E8F: 729E
6E90: 3627
6E91: 4906
6E92: 6C30
6E93: 0F2B
6E94: 22C8
6E95: 45B4
6E96: 18BD
6E97: 3A5D
6E98: 5D06
6E99: 7039
6E9A: 13A9
6E9B: 369A
6E9C: 4852
6E9D: 6B10
6E9E: 0ECC
6E9F: 21CC
6EA0: 4342
6EA1: 660A
6EA2: 3989
6EA3: 5C90
6EA4: 7E55
6EA5: 111D
6EA6: 34FA
6EA7: 57FC
6EA8: 690C
6EA9: 0CD2
6EAA: 2FAD
6EAB: 4134
6EAC: 64D6
6EAD: 07A1
6EAE: 590C
6EAF: 7CFC
6EB0: 1E0D
6EB1: 313B
6EB2: 5488
6EB3: 7668
6EB4: 09D6
6EB5: 2CBD
6EB6: 4E27
6EB7: 619B
6EB8: 0343
6EB9: 2696
6EBA: 7803
6EBB: 7DD8
6EBC: 1A6D
6EBD: 77C8
6EBE: 554C
6EBF: 32DC
6EC0: 1009
6EC1: 6DCC
6EC2: 4B42
6EC3: 28CF
6EC4: 064B
6EC5: 6390
6EC6: 4164
6EC7: 1EEB
6EC8: 7C49
6EC9: 5994
6ECA: 3722
6ECB: 14B3
6ECC: 72D2
6ECD: 5065
6ECE: 2D89
6ECF: 0B66
6ED0: 6923
6ED1: 07EE
6ED2: 6D28
6ED3: 48B3
6ED4: 16D0
6ED5: 742C
6ED6: 53B7
6ED7: 31CD
6ED8: 1F1B
6ED9: 7AA0
6EDA: 58B1
6EDB: 2615
6EDC: 044A
6EDD: 6389
6EDE: 41C3
6EDF: 2F07
6EE0: 0D50
6EE1: 6898
6EE2: 36D7
6EE3: 145C
6EE4: 7252
6EE5: 519E
6EE6: 3FF8
6EE7: 1D30
6EE8: 7B1C
6EE9: 594A
6EEA: 24B6
6EEB: 02AC
6EEC: 6087
6EED: 463E
6EEE: 7861
6EEF: 59C9
6EF0: 48C2
6EF1: 3F86
6EF2: 6950
6EF3: 0F3F
6EF4: 2D49
6EF5: 43A1
6EF6: 61F2
6EF7: 0793
6EF8: 259E
6EF9: 5BE2
6EFA: 79B2
6EFB: 1FDB
6EFC: 3DC7
6EFD: 53DD
6EFE: 71DE
6EFF: 17D2
6F00: 35C2
6F01: 6B99
6F02: 0992
6F03: 2F9F
6F04: 4DF6
6F05: 63CA
6F06: 01E0
6F07: 27EF
6F08: 4597
6F09: 7B97
6F0A: 19A1
6F0B: 3FEF
6F0C: 5D4F
6F0D: 736B
6F0E: 1155
6F0F: 3724
6F10: 5496
6F11: 0AE4
6F12: 289D
6F13: 4EB2
6F14: 6C43
6F15: 022F
6F16: 2039
6F17: 41CE
6F18: 6798
6F19: 05A3
6F1A: 3B32
6F1B: 5900
6F1C: 7EC0
6F1D: 1CDF
6F1E: 3251
6F1F: 5018
6F20: 71D2
6F21: 1792
6F22: 350D
6F23: 6B75
6F24: 08AC
6F25: 5A35
6F26: 2CC1
6F27: 02A2
6F28: 6309
6F29: 418D
6F2A: 27BE
6F2B: 046C
6F2C: 7AC0
6F2D: 58B9
6F2E: 3958
6F2F: 1FE4
6F30: 7C53
6F31: 5228
6F32: 308A
6F33: 1135
6F34: 77C0
6F35: 55A4
6F36: 0A36
6F37: 6899
6F38: 4919
6F39: 2FFF
6F3A: 0C76
6F3B: 6285
6F3C: 435B
6F3D: 21DC
6F3E: 064C
6F3F: 64D5
6F40: 451C
6F41: 3BD2
6F42: 1851
6F43: 7ED9
6F44: 5F02
6F45: 3D85
6F46: 1238
6F47: 70C4
6F48: 5108
6F49: 37CD
6F4A: 142B
6F4B: 4AA0
6F4C: 2BC9
6F4D: 0878
6F4E: 6E8B
6F4F: 4F7D
6F50: 2C48
6F51: 02F2
6F52: 6358
6F53: 41B6
6F54: 26C4
6F55: 0760
6F56: 65BD
6F57: 5ADF
6F58: 3B5C
6F59: 19B8
6F5A: 7EE8
6F5B: 5F44
6F5C: 3C26
6F5D: 12FF
6F5E: 67EA
6F5F: 79B3
6F60: 18C4
6F61: 3E1F
6F62: 5D08
6F63: 7C8E
6F64: 23D7
6F65: 4152
6F66: 6067
6F67: 07BB
6F68: 269D
6F69: 45DF
6F6A: 6B6F
6F6B: 0A66
6F6C: 2954
6F6D: 48E2
6F6E: 6F89
6F6F: 0EE3
6F70: 2DC5
6F71: 532E
6F72: 724F
6F73: 1171
6F74: 3054
6F75: 57BF
6F76: 76AA
6F77: 158E
6F78: 3483
6F79: 5BF3
6F7A: 7AE1
6F7B: 19D5
6F7C: 389B
6F7D: 5FD6
6F7E: 7EC0
6F7F: 1D8A
6F80: 3CDB
6F81: 63DF
6F82: 02DB
6F83: 2182
6F84: 40CF
6F85: 67DA
6F86: 06EA
6F87: 25BA
6F88: 4484
6F89: 6B93
6F8A: 0AA3
6F8B: 29F2
6F8C: 4852
6F8D: 6F6C
6F8E: 0E1B
6F8F: 2D25
6F90: 4D8B
6F91: 6CEC
6F92: 1386
6F93: 32B0
6F94: 5148
6F95: 7066
6F96: 1761
6F97: 37B0
6F98: 56E1
6F99: 483C
6F9A: 3DD7
6F9B: 129C
6F9C: 724F
6F9D: 5343
6F9E: 30C2
6F9F: 1182
6FA0: 714D
6FA1: 5603
6FA2: 37DA
6FA3: 14C3
6FA4: 7443
6FA5: 551C
6FA6: 0AFB
6FA7: 6BA9
6FA8: 4B4A
6FA9: 28D7
6FAA: 09AF
6FAB: 697D
6FAC: 4ECE
6FAD: 2FA6
6FAE: 0F1C
6FAF: 6CE5
6FB0: 4C04
6FB1: 2D41
6FB2: 02E4
6FB3: 7664
6FB4: 107A
6FB5: 7325
6FB6: 53A2
6FB7: 3242
6FB8: 1297
6FB9: 756D
6FBA: 55E2
6FBB: 3459
6FBC: 14C6
6FBD: 771A
6FBE: 57CE
6FBF: 365D
6FC0: 16C6
6FC1: 6940
6FC2: 4997
6FC3: 2856
6FC4: 08C2
6FC5: 6B44
6FC6: 4BE3
6FC7: 2A67
6FC8: 0A81
6FC9: 6D0C
6FCA: 4DF9
6FCB: 2C40
6FCC: 0C29
6FCD: 2B57
6FCE: 6C38
6FCF: 0CAB
6FD0: 2CD0
6FD1: 4D23
6FD2: 6D93
6FD3: 0229
6FD4: 2215
6FD5: 42F2
6FD6: 632E
6FD7: 0340
6FD8: 23C5
6FD9: 4027
6FDA: 6074
6FDB: 008E
6FDC: 20D0
6FDD: 414C
6FDE: 6156
6FDF: 018C
6FE0: 21C4
6FE1: 4610
6FE2: 6601
6FE3: 0698
6FE4: 26DA
6FE5: 475C
6FE6: 6765
6FE7: 07BB
6FE8: 27C5
6FE9: 47C3
6FEA: 6428
6FEB: 0468
6FEC: 245D
6FED: 44EC
6FEE: 6495
6FEF: 04EC
6FF0: 24C0
6FF1: 4564
6FF2: 6502
6FF3: 0563
6FF4: 255C
6FF5: 45B2
6FF6: 65EF
6FF7: 05FE
6FF8: 411A
6FF9: 53DA
6FFA: 73F9
6FFB: 13DE
6FFC: 3382
6FFD: 53CB
6FFE: 73DA
6FFF: 13D2
7000: 33D1
7001: 53D6
7002: 7396
7003: 13CF
7004: 33CA
7005: 53CE
7006: 73B6
7007: 617B
7008: 4659
7009: 2601
700A: 0633
700B: 6634
700C: 46C6
700D: 26B0
700E: 0689
700F: 66B0
7010: 475C
7011: 2738
7012: 0711
7013: 6735
7014: 47CF
7015: 27F4
7016: 07B0
7017: 6447
7018: 440A
7019: 243C
701A: 04BD
701B: 648F
701C: 4559
701D: 2515
701E: 05D3
701F: 65D8
7020: 424A
7021: 2214
7022: 02D2
7023: 6284
7024: 4307
7025: 236A
7026: 04B2
7027: 3D88
7028: 1E0B
7029: 7E89
702A: 5EA5
702B: 3F6E
702C: 1FDD
702D: 7FF1
702E: 500C
702F: 30F5
7030: 1159
7031: 713A
7032: 5199
7033: 3231
7034: 12DC
7035: 72A9
7036: 5339
7037: 33C9
7038: 1414
7039: 74E8
703A: 556F
703B: 35D5
703C: 1608
703D: 76D2
703E: 5753
703F: 37D0
7040: 0856
7041: 6895
7042: 491C
7043: 29C5
7044: 0A40
7045: 6AC4
7046: 4B65
7047: 2BA9
7048: 0C19
7049: 6C9B
704A: 4D39
704B: 2DE1
704C: 0EC9
704D: 6F7D
704E: 4F90
704F: 2079
7050: 014A
7051: 61FC
7052: 4210
7053: 22B4
7054: 03C9
7055: 6472
7056: 44B9
7057: 25CD
7058: 0658
7059: 66A6
705A: 47F2
705B: 5815
705C: 3947
705D: 19D1
705E: 7AC8
705F: 5B11
7060: 3C5D
7061: 1CD9
7062: 7DDA
7063: 5E1D
7064: 3F47
7065: 1F8E
7066: 70EE
7067: 5167
7068: 3272
7069: 4A07
706A: 1313
706B: 347C
706C: 5506
706D: 76A6
706E: 179D
706F: 28E2
7070: 4996
7071: 6927
7072: 0A1E
7073: 2B7E
7074: 4C45
7075: 6DAA
7076: 0EF2
7077: 2F93
7078: 409E
7079: 61E2
707A: 02B2
707B: 23C3
707C: 44C7
707D: 65CC
707E: 06C6
707F: 2797
7080: 38D5
7081: 59D8
7082: 7ADB
7083: 1BD1
7084: 3C8A
7085: 5D8F
7086: 7EEB
7087: 1FE8
7088: 3083
7089: 51C7
708A: 72BA
708B: 13AA
708C: 3447
708D: 556D
708E: 7652
708F: 1736
7090: 2996
7091: 4AF4
7092: 6B9E
7093: 0CB6
7094: 2D45
7095: 4E64
7096: 6F72
7097: 01C1
7098: 2284
7099: 43A8
709A: 647F
709B: 054F
709C: 27D2
709D: 3897
709E: 5957
709F: 7A57
70A0: 1CD8
70A1: 3D98
70A2: 5E40
70A3: 7F0B
70A4: 11CE
70A5: 32CF
70A6: 5376
70A7: 7428
70A8: 1699
70A9: 3755
70AA: 487C
70AB: 6A85
70AC: 326D
70AD: 2C9A
70AE: 4E56
70AF: 6FE0
70B0: 0146
70B1: 2221
70B2: 4397
70B3: 6575
70B4: 06C5
70B5: 27AE
70B6: 397A
70B7: 5AC3
70B8: 7C17
70B9: 1DEF
70BA: 3F73
70BB: 50C8
70BC: 7256
70BD: 13C9
70BE: 3559
70BF: 56DD
70C0: 685B
70C1: 09D0
70C2: 2B16
70C3: 4CCD
70C4: 6E4D
70C5: 0FC2
70C6: 2175
70C7: 42E6
70C8: 6452
70C9: 058A
70CA: 2725
70CB: 38EB
70CC: 5AD2
70CD: 7C69
70CE: 1D99
70CF: 3F39
70D0: 5157
70D1: 72F0
70D2: 1402
70D3: 35BE
70D4: 57C6
70D5: 692B
70D6: 0ABF
70D7: 2CCD
70D8: 4E06
70D9: 6FAC
70DA: 01B6
70DB: 2312
70DC: 454D
70DD: 668E
70DE: 78C4
70DF: 1A53
70E0: 3C5F
70E1: 5D9A
70E2: 7FD8
70E3: 111F
70E4: 3318
70E5: 54E1
70E6: 769C
70E7: 0863
70E8: 2A52
70E9: 4C01
70EA: 6D83
70EB: 0FE5
70EC: 21D7
70ED: 4328
70EE: 6503
70EF: 0772
70F0: 195E
70F1: 3AF3
70F2: 5C85
70F3: 7EFE
70F4: 10D6
70F5: 323F
70F6: 543F
70F7: 760D
70F8: 0815
70F9: 2A23
70FA: 4C72
70FB: 6E4E
70FC: 0056
70FD: 225E
70FE: 4455
70FF: 6647
7100: 7857
7101: 1A57
7102: 3C17
7103: 5E1B
7104: 7002
7105: 1278
7106: 3462
7107: 5662
7108: 6800
7109: 0A17
710A: 2C3F
710B: 4E25
710C: 60C5
710D: 02BB
710E: 2495
710F: 46BC
7110: 595C
7111: 7B75
7112: 1D1F
7113: 3F29
7114: 51CF
7115: 73EA
7116: 15A2
7117: 284A
7118: 4A1D
7119: 6C2D
711A: 0EB6
711B: 209B
711C: 4350
711D: 6514
711E: 07D5
711F: 1996
7120: 3C41
7121: 5E00
7122: 7097
7123: 12DB
7124: 3502
7125: 572E
7126: 69E5
7127: 0BB7
7128: 2E1B
7129: 40CE
712A: 62B7
712B: 057F
712C: 27C7
712D: 39BF
712E: 5C56
712F: 7EE7
7130: 115B
7131: 333E
7132: 5593
7133: 683B
7134: 0AD6
7135: 2CA4
7136: 4F76
7137: 6180
7138: 041D
7139: 26EE
713A: 3966
713B: 5BC7
713C: 7E47
713D: 10CF
713E: 335F
713F: 55DC
7140: 685C
7141: 0A89
7142: 2D16
7143: 4F8A
7144: 6202
7145: 04C9
7146: 277F
7147: 39EF
7148: 5C1E
7149: 7E8A
714A: 1139
714B: 33A5
714C: 5682
714D: 6962
714E: 0B93
714F: 2E32
7150: 4140
7151: 63E0
7152: 0658
7153: 18F9
7154: 3BA8
7155: 5E01
7156: 4952
7157: 5A61
7158: 7F86
7159: 012D
715A: 222D
715B: 4787
715C: 68D8
715D: 0A0B
715E: 2F48
715F: 30C8
7160: 55DC
7161: 7718
7162: 180D
7163: 3D8F
7164: 5ED7
7165: 6050
7166: 056C
7167: 26F8
7168: 4B9A
7169: 6CD9
716A: 0E23
716B: 1374
716C: 3440
716D: 59E0
716E: 7A8F
716F: 1FED
7170: 20C8
7171: 422B
7172: 6705
7173: 0820
7174: 2D4E
7175: 4EB9
7176: 53B9
7177: 7490
7178: 19C9
7179: 3AF9
717A: 5FAD
717B: 60C3
717C: 05D5
717D: 26C9
717E: 4BCA
717F: 6CC0
7180: 71DD
7181: 1288
7182: 37C5
7183: 58C5
7184: 7DD8
7185: 1ED4
7186: 23EC
7187: 44FB
7188: 6981
7189: 0A9D
718A: 2FE3
718B: 30F0
718C: 5519
718D: 7654
718E: 1B05
718F: 3C2D
7190: 4089
7191: 65E4
7192: 068C
7193: 2BB3
7194: 4C4D
7195: 5130
7196: 7239
7197: 16D0
7198: 3B80
7199: 5CB6
719A: 616A
719B: 0250
719C: 26C0
719D: 4B8F
719E: 6C58
719F: 7148
71A0: 15DB
71A1: 368D
71A2: 5B40
71A3: 7C05
71A4: 00D4
71A5: 2592
71A6: 4668
71A7: 6B2A
71A8: 0FC9
71A9: 1051
71AA: 353E
71AB: 59B0
71AC: 7A58
71AD: 1F23
71AE: 2399
71AF: 4461
71B0: 68DF
71B1: 0DA9
71B2: 2E19
71B3: 32E9
71B4: 5757
71B5: 7837
71B6: 1CED
71B7: 210C
71B8: 4581
71B9: 6679
71BA: 0AF9
71BB: 2F10
71BC: 33CD
71BD: 5445
71BE: 78C1
71BF: 1D4D
71C0: 21D9
71C1: 4247
71C2: 66DF
71C3: 0B54
71C4: 2FDC
71C5: 3042
71C6: 54A3
71C7: 7936
71C8: 1DC7
71C9: 3E58
71CA: 42AF
71CB: 6725
71CC: 0B4D
71CD: 2FA0
71CE: 3003
71CF: 54A7
71D0: 78DE
71D1: 1D28
71D2: 2194
71D3: 422F
71D4: 664C
71D5: 0AB0
71D6: 2F2E
71D7: 3359
71D8: 5787
71D9: 787F
71DA: 1C79
71DB: 20D0
71DC: 44DF
71DD: 6909
71DE: 0D43
71DF: 118C
71E0: 3589
71E1: 5601
71E2: 7A59
71E3: 1EC0
71E4: 22D8
71E5: 471E
71E6: 6B74
71E7: 0FAF
71E8: 1381
71E9: 37DD
71EA: 583F
71EB: 7C75
71EC: 0019
71ED: 24A9
71EE: 4883
71EF: 6CA8
71F0: 70D0
71F1: 1527
71F2: 3918
71F3: 5D72
71F4: 6119
71F5: 05A0
71F6: 29AC
71F7: 4D9B
71F8: 5182
71F9: 75B6
71FA: 19AD
71FB: 3D90
71FC: 41EA
71FD: 65CF
71FE: 09C0
71FF: 2DCD
7200: 31C6
7201: 55C6
7202: 79C8
7203: 1D80
7204: 21CA
7205: 45D5
7206: 69E8
7207: 0DF5
7208: 119A
7209: 35D8
720A: 59B9
720B: 7DBF
720C: 0119
720D: 2568
720E: 490C
720F: 6D3E
7210: 70CC
7211: 14A8
7212: 3889
7213: 5CB2
7214: 6058
7215: 0467
7216: 2823
7217: 4F98
7218: 5388
7219: 77F8
721A: 1B60
721B: 3F15
721C: 42CA
721D: 6693
721E: 0A4C
721F: 2E0F
7220: 35CC
7221: 59C8
7222: 7D44
7223: 010E
7224: 2499
7225: 4884
7226: 6C65
7227: 703D
7228: 17C9
7229: 3B4B
722A: 5F2C
722B: 62FE
722C: 065D
722D: 2A60
722E: 3185
722F: 556D
7230: 78DB
7231: 1CAD
7232: 2057
7233: 478A
7234: 6B33
7235: 0F70
7236: 12ED
7237: 3658
7238: 5DC9
7239: 11E6
723A: 6C10
723B: 7C4D
723C: 11B9
723D: 2347
723E: 01B6
723F: 6D33
7240: 56F1
7241: 324D
7242: 1F9C
7243: 7B53
7244: 64CD
7245: 4046
7246: 2DF5
7247: 0967
7248: 728B
7249: 5E49
724A: 3BA8
724B: 272E
724C: 0008 6DE3 491D      JF 6DE3 491D
724F: 32B0
7250: 1FD6
7251: 7B37
7252: 64DC
7253: 4071
7254: 2D7C
7255: 16E9
7256: 7239
7257: 5F09
7258: 3895
7259: 242C
725A: 016F
725B: 6A92
725C: 57C9
725D: 3316
725E: 1C59
725F: 79D9
7260: 62CF
7261: 4E18
7262: 2B4F
7263: 1499
7264: 71CD
7265: 5D12
7266: 463C
7267: 23A8
7268: 0C8F
7269: 69C8
726A: 5525
726B: 3E2F
726C: 1B08
726D: 04F1
726E: 61A5
726F: 4AF6
7270: 37CD
7271: 1379
7272: 7C08
7273: 5970
7274: 4243
7275: 2FA4
7276: 08FC
7277: 7588
7278: 5ED8
7279: 3BED
727A: 24F9
727B: 01C4
727C: 6AD8
727D: 5791
727E: 30DE
727F: 1DCB
7280: 06DD
7281: 63D8
7282: 4CC8
7283: 29D9
7284: 1288
7285: 7FC0
7286: 58F2
7287: 45ED
7288: 2ED8
7289: 0B8F
728A: 74B9
728B: 51A4
728C: 3A44
728D: 2731
728E: 001A
728F: 6D30
7290: 57CA
7291: 30F4
7292: 1D90
7293: 06A8
7294: 6308
7295: 4C66
7296: 292E
7297: 13C6
7298: 7C8D
7299: 59A7
729A: 4278
729B: 2F04
729C: 09CC
729D: 72D1
729E: 5F55
729F: 3817
72A0: 2298
72A1: 0F8B
72A2: 6859
72A3: 5510
72A4: 3FC4
72A5: 1888
72A6: 0568
72A7: 6E30
72A8: 48D8
72A9: 3548
72AA: 1E2F
72AB: 78A1
72AC: 655C
72AD: 4E39
72AE: 2899
72AF: 1539
72B0: 7FDD
72B1: 58BF
72B2: 451A
72B3: 2FF4
72B4: 084B
72B5: 7535
72B6: 5FAF
72B7: 3849
72B8: 2297
72B9: 0F6F
72BA: 69BC
72BB: 5255
72BC: 3CC0
72BD: 1954
72BE: 039C
72BF: 6C4D
72C0: 56DD
72C1: 3355
72C2: 1DD9
72C3: 0641
72C4: 60C7
72C5: 4D53
72C6: 37E8
72C7: 1068
72C8: 7A8C
72C9: 6700
72CA: 41B3
72CB: 2A2F
72CC: 1408
72CD: 7EE6
72CE: 5B19
72CF: 45B8
72D0: 2FCA
72D1: 0839
72D2: 7293
72D3: 5F37
72D4: 394E
72D5: 23AF
72D6: 0C56
72D7: 7623
72D8: 5784
72D9: 321A
72DA: 282E
72DB: 0E80
72DC: 64CE
72DD: 5B11
72DE: 314F
72DF: 1785
72E0: 0DCD
72E1: 600E
72E2: 4602
72E3: 3CC3
72E4: 12DF
72E5: 091F
72E6: 6F6B
72E7: 45B8
72E8: 3B9E
72E9: 11C9
72EA: 7421
72EB: 6A7D
72EC: 4053
72ED: 26A0
72EE: 1CCE
72EF: 72FD
72F0: 68C5
72F1: 4F22
72F2: 250D
72F3: 1B66
72F4: 711A
72F5: 57BA
72F6: 4DBD
72F7: 23DB
72F8: 199A
72F9: 7FE9
72FA: 55E1
72FB: 4BD9
72FC: 21DF
72FD: 07C0
72FE: 7DDA
72FF: 53CE
7300: 49CE
7301: 2F8B
7302: 05C7
7303: 7BCD
7304: 51CE
7305: 37DC
7306: 2DAE
7307: 03E2
7308: 7985
7309: 5F8E
730A: 35BC
730B: 2BF3
730C: 0157
730D: 676A
730E: 5D00
730F: 332F
7310: 2890
7311: 0E81
7312: 64E4
7313: 5AE3
7314: 301A
7315: 1631
7316: 0C03
7317: 65D2
7318: 5B99
7319: 31B8
731A: 176F
731B: 0D1F
731C: 62D3
731D: 5881
731E: 3E5C
731F: 140A
7320: 0DDE
7321: 6382
7322: 5941
7323: 3F0D
7324: 149A
7325: 0A97
7326: 606B
7327: 462F
7328: 3F8F
7329: 1558
732A: 0B3A
732B: 60F6
732C: 465E
732D: 3C62
732E: 15CE
732F: 0B2B
7330: 60EB
7331: 46A9
7332: 3C01
7333: 15F1
7334: 0B4E
7335: 613A
7336: 46A0
7337: 3C1C
7338: 15CA
7339: 0B6F
733A: 60EB
733B: 465F
733C: 3FDF
733D: 1553
733E: 0AC1
733F: 6059
7340: 59DE
7341: 3F4A
7342: 14DA
7343: 0A4A
7344: 63D5
7345: 595D
7346: 3EAF
7347: 1439
7348: 0DE0
7349: 6371
734A: 5880
734B: 3E3C
734C: 174E
734D: 0CEB
734E: 6207
734F: 5BA5
7350: 30CD
7351: 162B
7352: 0F8B
7353: 652F
7354: 5A49
7355: 33F6
7356: 296E
7357: 0E48
7358: 678F
7359: 5D3E
735A: 3263
735B: 2B80
735C: 009A
735D: 6617
735E: 5F41
735F: 34CB
7360: 2DC2
7361: 030A
7362: 785E
7363: 5193
7364: 36DF
7365: 2C1D
7366: 0520
7367: 7AD1
7368: 53E0
7369: 4030
736A: 3F02
736B: 1669
736C: 6D5A
736D: 44F6
736E: 5B9A
736F: 32FD
7370: 09CB
7371: 6F37
7372: 460D
7373: 5D77
7374: 345B
7375: 0BA3
7376: 62FB
7377: 799A
7378: 5097
7379: 37EB
737A: 0EBB
737B: 65D2
737C: 7CCA
737D: 53DA
737E: 2ADE
737F: 01CE
7380: 18D0
7381: 7FCC
7382: 56CF
7383: 2DD3
7384: 04DD
7385: 1B87
7386: 72BB
7387: 49AE
7388: 20BE
7389: 079D
738A: 1EFB
738B: 75BF
738C: 4C40
738D: 2363
738E: 3A5B
738F: 112D
7390: 69CF
7391: 40F7
7392: 2789
7393: 3EB7
7394: 1543
7395: 6C26
7396: 432F
7397: 5BC6
7398: 328D
7399: 09A1
739A: 606E
739B: 4701
739C: 5FC7
739D: 36D6
739E: 0D4F
739F: 6417
73A0: 7CD2
73A1: 539B
73A2: 2A1B
73A3: 0117
73A4: 19C1
73A5: 7082
73A6: 573B
73A7: 2E3D
73A8: 068F
73A9: 1D4F
73AA: 7438
73AB: 4CE3
73AC: 2303
73AD: 3A76
73AE: 1282
73AF: 6971
73B0: 41CA
73B1: 58FE
73B2: 3F0F
73B3: 17FE
73B4: 6E46
73B5: 4528
73B6: 5DB0
73B7: 344E
73B8: 0C86
73B9: 6361
73BA: 7BEE
73BB: 5206
73BC: 2ADC
73BD: 0153
73BE: 19DE
73BF: 701E
73C0: 48DE
73C1: 2F1E
73C2: 07CB
73C3: 1E57
73C4: 76DB
73C5: 4D52
73C6: 25FE
73C7: 3C7C
73C8: 1491
73C9: 6B4E
73CA: 43B2
73CB: 5A28
73CC: 320F
73CD: 0AE2
73CE: 6113
73CF: 79BB
73D0: 519F
73D1: 286D
73D2: 008F
73D3: 6737
73D4: 7F5D
73D5: 57F5
73D6: 2E75
73D7: 0600
73D8: 1ED1
73D9: 7544
73DA: 4D11
73DB: 25C6
73DC: 3D8F
73DD: 1456
73DE: 6C1B
73DF: 5D16
73E0: 0CAA
73E1: 527B
73E2: 3C15
73E3: 7A44
73E4: 27B1
73E5: 0E78
73E6: 764E
73E7: 5EBC
73E8: 469F
73E9: 2EDF
73EA: 153D
73EB: 7D32
73EC: 655A
73ED: 4DE2
73EE: 3589
73EF: 1DEF
73F0: 05DC
73F1: 6C6A
73F2: 5402
73F3: 3C6D
73F4: 2456
73F5: 0CB7
73F6: 74A1
73F7: 5C8E
73F8: 4498
73F9: 2CB6
73FA: 14AF
73FB: 7CCB
73FC: 64D4
73FD: 4CD7
73FE: 348F
73FF: 1CCC
7400: 04C2
7401: 6CC4
7402: 54CB
7403: 3C82
7404: 24C2
7405: 0CDD
7406: 74FA
7407: 5CE8
7408: 4498
7409: 2C9F
740A: 14A3
740B: 7CB4
740C: 641B
740D: 4C60
740E: 340E
740F: 1C29
7410: 05C0
7411: 6DAA
7412: 5580
7413: 3DAC
7414: 251B
7415: 0D61
7416: 7520
7417: 5ED6
7418: 4682
7419: 2EBE
741A: 162F
741B: 7E15
741C: 67C9
741D: 4F8D
741E: 375A
741F: 1F04
7420: 00CF
7421: 68CA
7422: 504E
7423: 380C
7424: 21DF
7425: 09D2
7426: 716E
7427: 597A
7428: 4287
7429: 2A53
742A: 123B
742B: 7BE6
742C: 6357
742D: 4B27
742E: 3CCF
742F: 246E
7430: 0DC2
7431: 75B9
7432: 5D00
7433: 46F0
7434: 2E52
7435: 1637
7436: 7FA1
7437: 670E
7438: 488E
7439: 307E
743A: 19A1
743B: 0138
743C: 6AB1
743D: 1765
743E: 7EF4
743F: 6647
7440: 51DC
7441: 3908
7442: 20CA
7443: 0841
7444: 73C3
7445: 5B55
7446: 42AD
7447: 2A71
7448: 1587
7449: 7D0C
744A: 64A2
744B: 4C70
744C: 374D
744D: 1EE8
744E: 0608
744F: 71E8
7450: 58C4
7451: 4061
7452: 2B9F
7453: 1332
7454: 7A56
7455: 65E2
7456: 4D61
7457: 3418
7458: 1F88
7459: 0736
745A: 6E69
745B: 59D0
745C: 40C0
745D: 280F
745E: 1358
745F: 7AC8
7460: 65DA
7461: 4D0D
7462: 3448
7463: 1FC0
7464: 06C0
7465: 6E1F
7466: 5978
7467: 40AA
7468: 2B9A
7469: 12DD
746A: 7A21
746B: 6576
746C: 4C19
746D: 37A7
746E: 1E8C
746F: 09F2
7470: 70C0
7471: 5826
7472: 430A
7473: 2A20
7474: 155B
7475: 7CB1
7476: 67AE
7477: 4E93
7478: 39C7
7479: 20B8
747A: 0BAD
747B: 72F2
747C: 5DCC
747D: 44D4
747E: 2F8D
747F: 16DF
7480: 01C8
7481: 68C1
7482: 53D9
7483: 3A81
7484: 2599
7485: 0C90
7486: 77C4
7487: 5EEC
7488: 49C9
7489: 3094
748A: 1BA2
748B: 02BF
748C: 6D52
748D: 5473
748E: 3F4D
748F: 2624
7490: 10C0
7491: 7BE3
7492: 6288
7493: 4DE0
7494: 344A
7495: 1F7F
7496: 0620
7497: 70DD
7498: 5B86
7499: 42B6
749A: 2D68
749B: 1450
749C: 7ECE
749D: 6992
749E: 5042
749F: 3B1C
74A0: 25CC
74A1: 0CC8
74A2: 7742
74A3: 5E0E
74A4: 4899
74A5: 3389
74A6: 1A62
74A7: 052D
74A8: 6F9B
74A9: 5618
74AA: 412B
74AB: 2BF1
74AC: 125A
74AD: 7D25
74AE: 67CD
74AF: 4E7F
74B0: 38C1
74B1: 23A1
74B2: 0A01
74B3: 74E5
74B4: 5F19
74B5: 4629
74B6: 30A2
74B7: 1B0D
74B8: 05C9
74B9: 6C6F
74BA: 56E8
74BB: 4142
74BC: 2BDC
74BD: 1200
74BE: 7CD8
74BF: 6746
74C0: 51CA
74C1: 3847
74C2: 22C3
74C3: 0D53
74C4: 77DA
74C5: 5E59
74C6: 48E2
74C7: 336D
74C8: 1D9A
74C9: 0458
74CA: 6EA2
74CB: 593E
74CC: 4319
74CD: 2DF4
74CE: 1405
74CF: 7EAD
74D0: 6889
74D1: 536A
74D2: 3D88
74D3: 2421
74D4: 0E5A
74D5: 78F8
74D6: 636C
74D7: 4D18
74D8: 37C9
74D9: 1E0C
74DA: 0865
74DB: 7282
74DC: 5CD6
74DD: 4715
74DE: 314A
74DF: 1B80
74E0: 0589
74E1: 6C1C
74E2: 5645
74E3: 4085
74E4: 2A99
74E5: 151D
74E6: 7F64
74E7: 69AA
74E8: 539B
74E9: 3DD7
74EA: 243F
74EB: 0E3C
74EC: 7819
74ED: 62B9
74EE: 4C82
74EF: 36FD
74F0: 2089
74F1: 0B3B
74F2: 7508
74F3: 5F65
74F4: 4919
74F5: 33F2
74F6: 1D33
74F7: 2501
74F8: 6C64
74F9: 5C0F
74FA: 4517
74FB: 250C
74FC: 1307
74FD: 094D
74FE: 6750
74FF: 5D44
7500: 4B56
7501: 2141
7502: 1F5F
7503: 755B
7504: 6343
7505: 590E
7506: 377A
7507: 2D68
7508: 1B57
7509: 7105
750A: 6F3B
750B: 452F
750C: 33D5
750D: 29FD
750E: 079C
750F: 7DB7
7510: 6A5B
7511: 4036
7512: 3E1C
7513: 1430
7514: 0287
7515: 78F7
7516: 56BC
7517: 4353
7518: 3905
7519: 1766
751A: 0DF5
751B: 7B81
751C: 5055
751D: 4E1B
751E: 24DB
751F: 1293
7520: 0F56
7521: 6512
7522: 539D
7523: 49F4
7524: 262D
7525: 1C2D
7526: 0AFC
7527: 60A8
7528: 5D10
7529: 4BD4
752A: 21B2
752B: 1E7A
752C: 74D2
752D: 62B2
752E: 5F12
752F: 35E2
7530: 225E
7531: 1839
7532: 769D
7533: 636D
7534: 599C
7535: 37EE
7536: 2C2A
7537: 1A89
7538: 7702
7539: 6DA6
753A: 5A7B
753B: 30CF
753C: 2D51
753D: 1BDB
753E: 7013
753F: 6EC4
7540: 5B52
7541: 31D7
7542: 2E50
7543: 04D6
7544: 7142
7545: 6FCA
7546: 4433
7547: 32F2
7548: 2F1F
7549: 0583
754A: 7273
754B: 68AB
754C: 45C9
754D: 327A
754E: 28D3
754F: 0539
7550: 7251
7551: 68B6
7552: 4507
7553: 33B6
7554: 28C2
7555: 052E
7556: 73B0
7557: 68CE
7558: 4516
7559: 33AA
755A: 28FF
755B: 050B
755C: 7249
755D: 6899
755E: 45D6
755F: 3257
7560: 2F3D
7561: 05FC
7562: 0000                HLT
7563: 0000                HLT
7564: 0000                HLT
7565: 0000                HLT
7566: 0000                HLT
7567: 0000                HLT
7568: 0000                HLT
7569: 0000                HLT
756A: 0000                HLT
756B: 0000                HLT
756C: 0000                HLT
756D: 0000                HLT
756E: 0000                HLT
756F: 0000                HLT
7570: 0000                HLT
7571: 0000                HLT
7572: 0000                HLT
7573: 0000                HLT
7574: 0000                HLT
7575: 0000                HLT
7576: 0000                HLT
7577: 0000                HLT
7578: 0000                HLT
7579: 0000                HLT
757A: 0000                HLT
757B: 0000                HLT
757C: 0000                HLT
757D: 0000                HLT
757E: 0000                HLT
757F: 0000                HLT
7580: 0000                HLT
7581: 0000                HLT
7582: 0000                HLT
7583: 0000                HLT
7584: 0000                HLT
7585: 0000                HLT
7586: 0000                HLT
7587: 0000                HLT
7588: 0000                HLT
7589: 0000                HLT
758A: 0000                HLT
758B: 0000                HLT
758C: 0000                HLT
758D: 0000                HLT
758E: 0000                HLT
758F: 0000                HLT
7590: 0000                HLT
7591: 0000                HLT
7592: 0000                HLT
7593: 0000                HLT
7594: 0000                HLT
7595: 0000                HLT
7596: 0000                HLT
7597: 0000                HLT
7598: 0000                HLT
7599: 0000                HLT
759A: 0000                HLT
759B: 0000                HLT
759C: 0000                HLT
759D: 0000                HLT
759E: 0000                HLT
759F: 0000                HLT
75A0: 0000                HLT
75A1: 0000                HLT
75A2: 0000                HLT
75A3: 0000                HLT
75A4: 0000                HLT
75A5: 0000                HLT
75A6: 0000                HLT
75A7: 0000                HLT
75A8: 0000                HLT
75A9: 0000                HLT
75AA: 0000                HLT
75AB: 0000                HLT
75AC: 0000                HLT
75AD: 0000                HLT
75AE: 0000                HLT
75AF: 0000                HLT
75B0: 0000                HLT
75B1: 0000                HLT
75B2: 0000                HLT
75B3: 0000                HLT
75B4: 0000                HLT
75B5: 0000                HLT
75B6: 0000                HLT
75B7: 0000                HLT
75B8: 0000                HLT
75B9: 0000                HLT
75BA: 0000                HLT
75BB: 0000                HLT
75BC: 0000                HLT
75BD: 0000                HLT
75BE: 0000                HLT
75BF: 0000                HLT
75C0: 0000                HLT
75C1: 0000                HLT
75C2: 0000                HLT
75C3: 0000                HLT
75C4: 0000                HLT
75C5: 0000                HLT
75C6: 0000                HLT
75C7: 0000                HLT
75C8: 0000                HLT
75C9: 0000                HLT
75CA: 0000                HLT
75CB: 0000                HLT
75CC: 0000                HLT
75CD: 0000                HLT
75CE: 0000                HLT
75CF: 0000                HLT
75D0: 0000                HLT
75D1: 0000                HLT
75D2: 0000                HLT
75D3: 0000                HLT
75D4: 0000                HLT
75D5: 0000                HLT
75D6: 0000                HLT
75D7: 0000                HLT
75D8: 0000                HLT
75D9: 0000                HLT
75DA: 0000                HLT
75DB: 0000                HLT
75DC: 0000                HLT
75DD: 0000                HLT
75DE: 0000                HLT
75DF: 0000                HLT
75E0: 0000                HLT
75E1: 0000                HLT
75E2: 0000                HLT
75E3: 0000                HLT
75E4: 0000                HLT
75E5: 0000                HLT
75E6: 0000                HLT
75E7: 0000                HLT
75E8: 0000                HLT
75E9: 0000                HLT
75EA: 0000                HLT
75EB: 0000                HLT
75EC: 0000                HLT
75ED: 0000                HLT
75EE: 0000                HLT
75EF: 0000                HLT
75F0: 0000                HLT
75F1: 0000                HLT
75F2: 0000                HLT
75F3: 0000                HLT
75F4: 0000                HLT
75F5: 0000                HLT
75F6: 0000                HLT
75F7: 0000                HLT
75F8: 0000                HLT
75F9: 0000                HLT
75FA: 0000                HLT
75FB: 0000                HLT
75FC: 0000                HLT
75FD: 0000                HLT
75FE: 0000                HLT
75FF: 0000                HLT
7600: 0000                HLT
7601: 0000                HLT
7602: 0000                HLT
7603: 0000                HLT
7604: 0000                HLT
7605: 0000                HLT
7606: 0000                HLT
7607: 0000                HLT
7608: 0000                HLT
7609: 0000                HLT
760A: 0000                HLT
760B: 0000                HLT
760C: 0000                HLT
760D: 0000                HLT
760E: 0000                HLT
760F: 0000                HLT
7610: 0000                HLT
7611: 0000                HLT
7612: 0000                HLT
7613: 0000                HLT
7614: 0000                HLT
7615: 0000                HLT
7616: 0000                HLT
7617: 0000                HLT
7618: 0000                HLT
7619: 0000                HLT
761A: 0000                HLT
761B: 0000                HLT
761C: 0000                HLT
761D: 0000                HLT
761E: 0000                HLT
761F: 0000                HLT
7620: 0000                HLT
7621: 0000                HLT
7622: 0000                HLT
7623: 0000                HLT
7624: 0000                HLT
7625: 0000                HLT
7626: 0000                HLT
7627: 0000                HLT
7628: 0000                HLT
7629: 0000                HLT
762A: 0000                HLT
762B: 0000                HLT
762C: 0000                HLT
762D: 0000                HLT
762E: 0000                HLT
762F: 0000                HLT
7630: 0000                HLT
7631: 0000                HLT
7632: 0000                HLT
7633: 0000                HLT
7634: 0000                HLT
7635: 0000                HLT
7636: 0000                HLT
7637: 0000                HLT
7638: 0000                HLT
7639: 0000                HLT
763A: 0000                HLT
763B: 0000                HLT
763C: 0000                HLT
763D: 0000                HLT
763E: 0000                HLT
763F: 0000                HLT
7640: 0000                HLT
7641: 0000                HLT
7642: 0000                HLT
7643: 0000                HLT
7644: 0000                HLT
7645: 0000                HLT
7646: 0000                HLT
7647: 0000                HLT
7648: 0000                HLT
7649: 0000                HLT
764A: 0000                HLT
764B: 0000                HLT
764C: 0000                HLT
764D: 0000                HLT
764E: 0000                HLT
764F: 0000                HLT
7650: 0000                HLT
7651: 0000                HLT
7652: 0000                HLT
7653: 0000                HLT
7654: 0000                HLT
7655: 0000                HLT
7656: 0000                HLT
7657: 0000                HLT
7658: 0000                HLT
7659: 0000                HLT
765A: 0000                HLT
765B: 0000                HLT
765C: 0000                HLT
765D: 0000                HLT
765E: 0000                HLT
765F: 0000                HLT
7660: 0000                HLT
7661: 0000                HLT
7662: 0000                HLT
7663: 0000                HLT
7664: 0000                HLT
7665: 0000                HLT
7666: 0000                HLT
7667: 0000                HLT
7668: 0000                HLT
7669: 0000                HLT
766A: 0000                HLT
766B: 0000                HLT
766C: 0000                HLT
766D: 0000                HLT
766E: 0000                HLT
766F: 0000                HLT
7670: 0000                HLT
7671: 0000                HLT
7672: 0000                HLT
7673: 0000                HLT
7674: 0000                HLT
7675: 0000                HLT
7676: 0000                HLT
7677: 0000                HLT
7678: 0000                HLT
7679: 0000                HLT
767A: 0000                HLT
767B: 0000                HLT
767C: 0000                HLT
767D: 0000                HLT
767E: 0000                HLT
767F: 0000                HLT
7680: 0000                HLT
7681: 0000                HLT
7682: 0000                HLT
7683: 0000                HLT
7684: 0000                HLT
7685: 0000                HLT
7686: 0000                HLT
7687: 0000                HLT
7688: 0000                HLT
7689: 0000                HLT
768A: 0000                HLT
768B: 0000                HLT
768C: 0000                HLT
768D: 0000                HLT
768E: 0000                HLT
768F: 0000                HLT
7690: 0000                HLT
7691: 0000                HLT
7692: 0000                HLT
7693: 0000                HLT
7694: 0000                HLT
7695: 0000                HLT
7696: 0000                HLT
7697: 0000                HLT
7698: 0000                HLT
7699: 0000                HLT
769A: 0000                HLT
769B: 0000                HLT
769C: 0000                HLT
769D: 0000                HLT
769E: 0000                HLT
769F: 0000                HLT
76A0: 0000                HLT
76A1: 0000                HLT
76A2: 0000                HLT
76A3: 0000                HLT
76A4: 0000                HLT
76A5: 0000                HLT
76A6: 0000                HLT
76A7: 0000                HLT
76A8: 0000                HLT
76A9: 0000                HLT
76AA: 0000                HLT
76AB: 0000                HLT
76AC: 0000                HLT
76AD: 0000                HLT
76AE: 0000                HLT
76AF: 0000                HLT
76B0: 0000                HLT
76B1: 0000                HLT
76B2: 0000                HLT
76B3: 0000                HLT
76B4: 0000                HLT
76B5: 0000                HLT
76B6: 0000                HLT
76B7: 0000                HLT
76B8: 0000                HLT
76B9: 0000                HLT
76BA: 0000                HLT
76BB: 0000                HLT
76BC: 0000                HLT
76BD: 0000                HLT
76BE: 0000                HLT
76BF: 0000                HLT
76C0: 0000                HLT
76C1: 0000                HLT
76C2: 0000                HLT
76C3: 0000                HLT
76C4: 0000                HLT
76C5: 0000                HLT
76C6: 0000                HLT
76C7: 0000                HLT
76C8: 0000                HLT
76C9: 0000                HLT
76CA: 0000                HLT
76CB: 0000                HLT
76CC: 0000                HLT
76CD: 0000                HLT
76CE: 0000                HLT
76CF: 0000                HLT
76D0: 0000                HLT
76D1: 0000                HLT
76D2: 0000                HLT
76D3: 0000                HLT
76D4: 0000                HLT
76D5: 0000                HLT
76D6: 0000                HLT
76D7: 0000                HLT
76D8: 0000                HLT
76D9: 0000                HLT
76DA: 0000                HLT
76DB: 0000                HLT
76DC: 0000                HLT
76DD: 0000                HLT
76DE: 0000                HLT
76DF: 0000                HLT
76E0: 0000                HLT
76E1: 0000                HLT
76E2: 0000                HLT
76E3: 0000                HLT
76E4: 0000                HLT
76E5: 0000                HLT
76E6: 0000                HLT
76E7: 0000                HLT
76E8: 0000                HLT
76E9: 0000                HLT
76EA: 0000                HLT
76EB: 0000                HLT
76EC: 0000                HLT
76ED: 0000                HLT
76EE: 0000                HLT
76EF: 0000                HLT
76F0: 0000                HLT
76F1: 0000                HLT
76F2: 0000                HLT
76F3: 0000                HLT
76F4: 0000                HLT
76F5: 0000                HLT
76F6: 0000                HLT
76F7: 0000                HLT
76F8: 0000                HLT
76F9: 0000                HLT
76FA: 0000                HLT
76FB: 0000                HLT
76FC: 0000                HLT
76FD: 0000                HLT
76FE: 0000                HLT
76FF: 0000                HLT
7700: 0000                HLT
7701: 0000                HLT
7702: 0000                HLT
7703: 0000                HLT
7704: 0000                HLT
7705: 0000                HLT
7706: 0000                HLT
7707: 0000                HLT
7708: 0000                HLT
7709: 0000                HLT
770A: 0000                HLT
770B: 0000                HLT
770C: 0000                HLT
770D: 0000                HLT
770E: 0000                HLT
770F: 0000                HLT
7710: 0000                HLT
7711: 0000                HLT
7712: 0000                HLT
7713: 0000                HLT
7714: 0000                HLT
7715: 0000                HLT
7716: 0000                HLT
7717: 0000                HLT
7718: 0000                HLT
7719: 0000                HLT
771A: 0000                HLT
771B: 0000                HLT
771C: 0000                HLT
771D: 0000                HLT
771E: 0000                HLT
771F: 0000                HLT
7720: 0000                HLT
7721: 0000                HLT
7722: 0000                HLT
7723: 0000                HLT
7724: 0000                HLT
7725: 0000                HLT
7726: 0000                HLT
7727: 0000                HLT
7728: 0000                HLT
7729: 0000                HLT
772A: 0000                HLT
772B: 0000                HLT
772C: 0000                HLT
772D: 0000                HLT
772E: 0000                HLT
772F: 0000                HLT
7730: 0000                HLT
7731: 0000                HLT
7732: 0000                HLT
7733: 0000                HLT
7734: 0000                HLT
7735: 0000                HLT
7736: 0000                HLT
7737: 0000                HLT
7738: 0000                HLT
7739: 0000                HLT
773A: 0000                HLT
773B: 0000                HLT
773C: 0000                HLT
773D: 0000                HLT
773E: 0000                HLT
773F: 0000                HLT
7740: 0000                HLT
7741: 0000                HLT
7742: 0000                HLT
7743: 0000                HLT
7744: 0000                HLT
7745: 0000                HLT
7746: 0000                HLT
7747: 0000                HLT
7748: 0000                HLT
7749: 0000                HLT
774A: 0000                HLT
774B: 0000                HLT
774C: 0000                HLT
774D: 0000                HLT
774E: 0000                HLT
774F: 0000                HLT
7750: 0000                HLT
7751: 0000                HLT
7752: 0000                HLT
7753: 0000                HLT
7754: 0000                HLT
7755: 0000                HLT
7756: 0000                HLT
7757: 0000                HLT
7758: 0000                HLT
7759: 0000                HLT
775A: 0000                HLT
775B: 0000                HLT
775C: 0000                HLT
775D: 0000                HLT
775E: 0000                HLT
775F: 0000                HLT
7760: 0000                HLT
7761: 0000                HLT
7762: 0000                HLT
7763: 0000                HLT
7764: 0000                HLT
7765: 0000                HLT
7766: 0000                HLT
7767: 0000                HLT
7768: 0000                HLT
7769: 0000                HLT
776A: 0000                HLT
776B: 0000                HLT
776C: 0000                HLT
776D: 0000                HLT
776E: 0000                HLT
776F: 0000                HLT
7770: 0000                HLT
7771: 0000                HLT
7772: 0000                HLT
7773: 0000                HLT
7774: 0000                HLT
7775: 0000                HLT
7776: 0000                HLT
7777: 0000                HLT
7778: 0000                HLT
7779: 0000                HLT
777A: 0000                HLT
777B: 0000                HLT
777C: 0000                HLT
777D: 0000                HLT
777E: 0000                HLT
777F: 0000                HLT
7780: 0000                HLT
7781: 0000                HLT
7782: 0000                HLT
7783: 0000                HLT
7784: 0000                HLT
7785: 0000                HLT
7786: 0000                HLT
7787: 0000                HLT
7788: 0000                HLT
7789: 0000                HLT
778A: 0000                HLT
778B: 0000                HLT
778C: 0000                HLT
778D: 0000                HLT
778E: 0000                HLT
778F: 0000                HLT
7790: 0000                HLT
7791: 0000                HLT
7792: 0000                HLT
7793: 0000                HLT
7794: 0000                HLT
7795: 0000                HLT
7796: 0000                HLT
7797: 0000                HLT
7798: 0000                HLT
7799: 0000                HLT
779A: 0000                HLT
779B: 0000                HLT
779C: 0000                HLT
779D: 0000                HLT
779E: 0000                HLT
779F: 0000                HLT
77A0: 0000                HLT
77A1: 0000                HLT
77A2: 0000                HLT
77A3: 0000                HLT
77A4: 0000                HLT
77A5: 0000                HLT
77A6: 0000                HLT
77A7: 0000                HLT
77A8: 0000                HLT
77A9: 0000                HLT
77AA: 0000                HLT
77AB: 0000                HLT
77AC: 0000                HLT
77AD: 0000                HLT
77AE: 0000                HLT
77AF: 0000                HLT
77B0: 0000                HLT
77B1: 0000                HLT
77B2: 0000                HLT
77B3: 0000                HLT
77B4: 0000                HLT
77B5: 0000                HLT
77B6: 0000                HLT
77B7: 0000                HLT
77B8: 0000                HLT
77B9: 0000                HLT
77BA: 0000                HLT
77BB: 0000                HLT
77BC: 0000                HLT
77BD: 0000                HLT
77BE: 0000                HLT
77BF: 0000                HLT
77C0: 0000                HLT
77C1: 0000                HLT
77C2: 0000                HLT
77C3: 0000                HLT
77C4: 0000                HLT
77C5: 0000                HLT
77C6: 0000                HLT
77C7: 0000                HLT
77C8: 0000                HLT
77C9: 0000                HLT
77CA: 0000                HLT
77CB: 0000                HLT
77CC: 0000                HLT
77CD: 0000                HLT
77CE: 0000                HLT
77CF: 0000                HLT
77D0: 0000                HLT
77D1: 0000                HLT
77D2: 0000                HLT
77D3: 0000                HLT
77D4: 0000                HLT
77D5: 0000                HLT
77D6: 0000                HLT
77D7: 0000                HLT
77D8: 0000                HLT
77D9: 0000                HLT
77DA: 0000                HLT
77DB: 0000                HLT
77DC: 0000                HLT
77DD: 0000                HLT
77DE: 0000                HLT
77DF: 0000                HLT
77E0: 0000                HLT
77E1: 0000                HLT
77E2: 0000                HLT
77E3: 0000                HLT
77E4: 0000                HLT
77E5: 0000                HLT
77E6: 0000                HLT
77E7: 0000                HLT
77E8: 0000                HLT
77E9: 0000                HLT
77EA: 0000                HLT
77EB: 0000                HLT
77EC: 0000                HLT
77ED: 0000                HLT
77EE: 0000                HLT
77EF: 0000                HLT
77F0: 0000                HLT
77F1: 0000                HLT
77F2: 0000                HLT
77F3: 0000                HLT
77F4: 0000                HLT
77F5: 0000                HLT
77F6: 0000                HLT
77F7: 0000                HLT
77F8: 0000                HLT
77F9: 0000                HLT
77FA: 0000                HLT
77FB: 0000                HLT
77FC: 0000                HLT
77FD: 0000                HLT
77FE: 0000                HLT
77FF: 0000                HLT
7800: 0000                HLT
7801: 0000                HLT
7802: 0000                HLT
7803: 0000                HLT
7804: 0000                HLT
7805: 0000                HLT
7806: 0000                HLT
7807: 0000                HLT
7808: 0000                HLT
7809: 0000                HLT
780A: 0000                HLT
780B: 0000                HLT
780C: 0000                HLT
780D: 0000                HLT
780E: 0000                HLT
780F: 0000                HLT
7810: 0000                HLT
7811: 0000                HLT
7812: 0000                HLT
7813: 0000                HLT
7814: 0000                HLT
7815: 0000                HLT
7816: 0000                HLT
7817: 0000                HLT
7818: 0000                HLT
7819: 0000                HLT
781A: 0000                HLT
781B: 0000                HLT
781C: 0000                HLT
781D: 0000                HLT
781E: 0000                HLT
781F: 0000                HLT
7820: 0000                HLT
7821: 0000                HLT
7822: 0000                HLT
7823: 0000                HLT
7824: 0000                HLT
7825: 0000                HLT
7826: 0000                HLT
7827: 0000                HLT
7828: 0000                HLT
7829: 0000                HLT
782A: 0000                HLT
782B: 0000                HLT
782C: 0000                HLT
782D: 0000                HLT
782E: 0000                HLT
782F: 0000                HLT
7830: 0000                HLT
7831: 0000                HLT
7832: 0000                HLT
7833: 0000                HLT
7834: 0000                HLT
7835: 0000                HLT
7836: 0000                HLT
7837: 0000                HLT
7838: 0000                HLT
7839: 0000                HLT
783A: 0000                HLT
783B: 0000                HLT
783C: 0000                HLT
783D: 0000                HLT
783E: 0000                HLT
783F: 0000                HLT
7840: 0000                HLT
7841: 0000                HLT
7842: 0000                HLT
7843: 0000                HLT
7844: 0000                HLT
7845: 0000                HLT
7846: 0000                HLT
7847: 0000                HLT
7848: 0000                HLT
7849: 0000                HLT
784A: 0000                HLT
784B: 0000                HLT
784C: 0000                HLT
784D: 0000                HLT
784E: 0000                HLT
784F: 0000                HLT
7850: 0000                HLT
7851: 0000                HLT
7852: 0000                HLT
7853: 0000                HLT
7854: 0000                HLT
7855: 0000                HLT
7856: 0000                HLT
7857: 0000                HLT
7858: 0000                HLT
7859: 0000                HLT
785A: 0000                HLT
785B: 0000                HLT
785C: 0000                HLT
785D: 0000                HLT
785E: 0000                HLT
785F: 0000                HLT
7860: 0000                HLT
7861: 0000                HLT
7862: 0000                HLT
7863: 0000                HLT
7864: 0000                HLT
7865: 0000                HLT
7866: 0000                HLT
7867: 0000                HLT
7868: 0000                HLT
7869: 0000                HLT
786A: 0000                HLT
786B: 0000                HLT
786C: 0000                HLT
786D: 0000                HLT
786E: 0000                HLT
786F: 0000                HLT
7870: 0000                HLT
7871: 0000                HLT
7872: 0000                HLT
7873: 0000                HLT
7874: 0000                HLT
7875: 0000                HLT
7876: 0000                HLT
7877: 0000                HLT
7878: 0000                HLT
7879: 0000                HLT
787A: 0000                HLT
787B: 0000                HLT
787C: 0000                HLT
787D: 0000                HLT
787E: 0000                HLT
787F: 0000                HLT
7880: 0000                HLT
7881: 0000                HLT
7882: 0000                HLT
7883: 0000                HLT
7884: 0000                HLT
7885: 0000                HLT
7886: 0000                HLT
7887: 0000                HLT
7888: 0000                HLT
7889: 0000                HLT
788A: 0000                HLT
788B: 0000                HLT
788C: 0000                HLT
788D: 0000                HLT
788E: 0000                HLT
788F: 0000                HLT
7890: 0000                HLT
7891: 0000                HLT
7892: 0000                HLT
7893: 0000                HLT
7894: 0000                HLT
7895: 0000                HLT
7896: 0000                HLT
7897: 0000                HLT
7898: 0000                HLT
7899: 0000                HLT
789A: 0000                HLT
789B: 0000                HLT
789C: 0000                HLT
789D: 0000                HLT
789E: 0000                HLT
789F: 0000                HLT
78A0: 0000                HLT
78A1: 0000                HLT
78A2: 0000                HLT
78A3: 0000                HLT
78A4: 0000                HLT
78A5: 0000                HLT
78A6: 0000                HLT
78A7: 0000                HLT
78A8: 0000                HLT
78A9: 0000                HLT
78AA: 0000                HLT
78AB: 0000                HLT
78AC: 0000                HLT
78AD: 0000                HLT
78AE: 0000                HLT
78AF: 0000                HLT
78B0: 0000                HLT
78B1: 0000                HLT
78B2: 0000                HLT
78B3: 0000                HLT
78B4: 0000                HLT
78B5: 0000                HLT
78B6: 0000                HLT
78B7: 0000                HLT
78B8: 0000                HLT
78B9: 0000                HLT
78BA: 0000                HLT
78BB: 0000                HLT
78BC: 0000                HLT
78BD: 0000                HLT
78BE: 0000                HLT
78BF: 0000                HLT
78C0: 0000                HLT
78C1: 0000                HLT
78C2: 0000                HLT
78C3: 0000                HLT
78C4: 0000                HLT
78C5: 0000                HLT
78C6: 0000                HLT
78C7: 0000                HLT
78C8: 0000                HLT
78C9: 0000                HLT
78CA: 0000                HLT
78CB: 0000                HLT
78CC: 0000                HLT
78CD: 0000                HLT
78CE: 0000                HLT
78CF: 0000                HLT
78D0: 0000                HLT
78D1: 0000                HLT
78D2: 0000                HLT
78D3: 0000                HLT
78D4: 0000                HLT
78D5: 0000                HLT
78D6: 0000                HLT
78D7: 0000                HLT
78D8: 0000                HLT
78D9: 0000                HLT
78DA: 0000                HLT
78DB: 0000                HLT
78DC: 0000                HLT
78DD: 0000                HLT
78DE: 0000                HLT
78DF: 0000                HLT
78E0: 0000                HLT
78E1: 0000                HLT
78E2: 0000                HLT
78E3: 0000                HLT
78E4: 0000                HLT
78E5: 0000                HLT
78E6: 0000                HLT
78E7: 0000                HLT
78E8: 0000                HLT
78E9: 0000                HLT
78EA: 0000                HLT
78EB: 0000                HLT
78EC: 0000                HLT
78ED: 0000                HLT
78EE: 0000                HLT
78EF: 0000                HLT
78F0: 0000                HLT
78F1: 0000                HLT
78F2: 0000                HLT
78F3: 0000                HLT
78F4: 0000                HLT
78F5: 0000                HLT
78F6: 0000                HLT
78F7: 0000                HLT
78F8: 0000                HLT
78F9: 0000                HLT
78FA: 0000                HLT
78FB: 0000                HLT
78FC: 0000                HLT
78FD: 0000                HLT
78FE: 0000                HLT
78FF: 0000                HLT
7900: 0000                HLT
7901: 0000                HLT
7902: 0000                HLT
7903: 0000                HLT
7904: 0000                HLT
7905: 0000                HLT
7906: 0000                HLT
7907: 0000                HLT
7908: 0000                HLT
7909: 0000                HLT
790A: 0000                HLT
790B: 0000                HLT
790C: 0000                HLT
790D: 0000                HLT
790E: 0000                HLT
790F: 0000                HLT
7910: 0000                HLT
7911: 0000                HLT
7912: 0000                HLT
7913: 0000                HLT
7914: 0000                HLT
7915: 0000                HLT
7916: 0000                HLT
7917: 0000                HLT
7918: 0000                HLT
7919: 0000                HLT
791A: 0000                HLT
791B: 0000                HLT
791C: 0000                HLT
791D: 0000                HLT
791E: 0000                HLT
791F: 0000                HLT
7920: 0000                HLT
7921: 0000                HLT
7922: 0000                HLT
7923: 0000                HLT
7924: 0000                HLT
7925: 0000                HLT
7926: 0000                HLT
7927: 0000                HLT
7928: 0000                HLT
7929: 0000                HLT
792A: 0000                HLT
792B: 0000                HLT
792C: 0000                HLT
792D: 0000                HLT
792E: 0000                HLT
792F: 0000                HLT
7930: 0000                HLT
7931: 0000                HLT
7932: 0000                HLT
7933: 0000                HLT
7934: 0000                HLT
7935: 0000                HLT
7936: 0000                HLT
7937: 0000                HLT
7938: 0000                HLT
7939: 0000                HLT
793A: 0000                HLT
793B: 0000                HLT
793C: 0000                HLT
793D: 0000                HLT
793E: 0000                HLT
793F: 0000                HLT
7940: 0000                HLT
7941: 0000                HLT
7942: 0000                HLT
7943: 0000                HLT
7944: 0000                HLT
7945: 0000                HLT
7946: 0000                HLT
7947: 0000                HLT
7948: 0000                HLT
7949: 0000                HLT
794A: 0000                HLT
794B: 0000                HLT
794C: 0000                HLT
794D: 0000                HLT
794E: 0000                HLT
794F: 0000                HLT
7950: 0000                HLT
7951: 0000                HLT
7952: 0000                HLT
7953: 0000                HLT
7954: 0000                HLT
7955: 0000                HLT
7956: 0000                HLT
7957: 0000                HLT
7958: 0000                HLT
7959: 0000                HLT
795A: 0000                HLT
795B: 0000                HLT
795C: 0000                HLT
795D: 0000                HLT
795E: 0000                HLT
795F: 0000                HLT
7960: 0000                HLT
7961: 0000                HLT
7962: 0000                HLT
7963: 0000                HLT
7964: 0000                HLT
7965: 0000                HLT
7966: 0000                HLT
7967: 0000                HLT
7968: 0000                HLT
7969: 0000                HLT
796A: 0000                HLT
796B: 0000                HLT
796C: 0000                HLT
796D: 0000                HLT
796E: 0000                HLT
796F: 0000                HLT
7970: 0000                HLT
7971: 0000                HLT
7972: 0000                HLT
7973: 0000                HLT
7974: 0000                HLT
7975: 0000                HLT
7976: 0000                HLT
7977: 0000                HLT
7978: 0000                HLT
7979: 0000                HLT
797A: 0000                HLT
797B: 0000                HLT
797C: 0000                HLT
797D: 0000                HLT
797E: 0000                HLT
797F: 0000                HLT
7980: 0000                HLT
7981: 0000                HLT
7982: 0000                HLT
7983: 0000                HLT
7984: 0000                HLT
7985: 0000                HLT
7986: 0000                HLT
7987: 0000                HLT
7988: 0000                HLT
7989: 0000                HLT
798A: 0000                HLT
798B: 0000                HLT
798C: 0000                HLT
798D: 0000                HLT
798E: 0000                HLT
798F: 0000                HLT
7990: 0000                HLT
7991: 0000                HLT
7992: 0000                HLT
7993: 0000                HLT
7994: 0000                HLT
7995: 0000                HLT
7996: 0000                HLT
7997: 0000                HLT
7998: 0000                HLT
7999: 0000                HLT
799A: 0000                HLT
799B: 0000                HLT
799C: 0000                HLT
799D: 0000                HLT
799E: 0000                HLT
799F: 0000                HLT
79A0: 0000                HLT
79A1: 0000                HLT
79A2: 0000                HLT
79A3: 0000                HLT
79A4: 0000                HLT
79A5: 0000                HLT
79A6: 0000                HLT
79A7: 0000                HLT
79A8: 0000                HLT
79A9: 0000                HLT
79AA: 0000                HLT
79AB: 0000                HLT
79AC: 0000                HLT
79AD: 0000                HLT
79AE: 0000                HLT
79AF: 0000                HLT
79B0: 0000                HLT
79B1: 0000                HLT
79B2: 0000                HLT
79B3: 0000                HLT
79B4: 0000                HLT
79B5: 0000                HLT
79B6: 0000                HLT
79B7: 0000                HLT
79B8: 0000                HLT
79B9: 0000                HLT
79BA: 0000                HLT
79BB: 0000                HLT
79BC: 0000                HLT
79BD: 0000                HLT
79BE: 0000                HLT
79BF: 0000                HLT
79C0: 0000                HLT
79C1: 0000                HLT
79C2: 0000                HLT
79C3: 0000                HLT
79C4: 0000                HLT
79C5: 0000                HLT
79C6: 0000                HLT
79C7: 0000                HLT
79C8: 0000                HLT
79C9: 0000                HLT
79CA: 0000                HLT
79CB: 0000                HLT
79CC: 0000                HLT
79CD: 0000                HLT
79CE: 0000                HLT
79CF: 0000                HLT
79D0: 0000                HLT
79D1: 0000                HLT
79D2: 0000                HLT
79D3: 0000                HLT
79D4: 0000                HLT
79D5: 0000                HLT
79D6: 0000                HLT
79D7: 0000                HLT
79D8: 0000                HLT
79D9: 0000                HLT
79DA: 0000                HLT
79DB: 0000                HLT
79DC: 0000                HLT
79DD: 0000                HLT
79DE: 0000                HLT
79DF: 0000                HLT
79E0: 0000                HLT
79E1: 0000                HLT
79E2: 0000                HLT
79E3: 0000                HLT
79E4: 0000                HLT
79E5: 0000                HLT
79E6: 0000                HLT
79E7: 0000                HLT
79E8: 0000                HLT
79E9: 0000                HLT
79EA: 0000                HLT
79EB: 0000                HLT
79EC: 0000                HLT
79ED: 0000                HLT
79EE: 0000                HLT
79EF: 0000                HLT
79F0: 0000                HLT
79F1: 0000                HLT
79F2: 0000                HLT
79F3: 0000                HLT
79F4: 0000                HLT
79F5: 0000                HLT
79F6: 0000                HLT
79F7: 0000                HLT
79F8: 0000                HLT
79F9: 0000                HLT
79FA: 0000                HLT
79FB: 0000                HLT
79FC: 0000                HLT
79FD: 0000                HLT
79FE: 0000                HLT
79FF: 0000                HLT
7A00: 0000                HLT
7A01: 0000                HLT
7A02: 0000                HLT
7A03: 0000                HLT
7A04: 0000                HLT
7A05: 0000                HLT
7A06: 0000                HLT
7A07: 0000                HLT
7A08: 0000                HLT
7A09: 0000                HLT
7A0A: 0000                HLT
7A0B: 0000                HLT
7A0C: 0000                HLT
7A0D: 0000                HLT
7A0E: 0000                HLT
7A0F: 0000                HLT
7A10: 0000                HLT
7A11: 0000                HLT
7A12: 0000                HLT
7A13: 0000                HLT
7A14: 0000                HLT
7A15: 0000                HLT
7A16: 0000                HLT
7A17: 0000                HLT
7A18: 0000                HLT
7A19: 0000                HLT
7A1A: 0000                HLT
7A1B: 0000                HLT
7A1C: 0000                HLT
7A1D: 0000                HLT
7A1E: 0000                HLT
7A1F: 0000                HLT
7A20: 0000                HLT
7A21: 0000                HLT
7A22: 0000                HLT
7A23: 0000                HLT
7A24: 0000                HLT
7A25: 0000                HLT
7A26: 0000                HLT
7A27: 0000                HLT
7A28: 0000                HLT
7A29: 0000                HLT
7A2A: 0000                HLT
7A2B: 0000                HLT
7A2C: 0000                HLT
7A2D: 0000                HLT
7A2E: 0000                HLT
7A2F: 0000                HLT
7A30: 0000                HLT
7A31: 0000                HLT
7A32: 0000                HLT
7A33: 0000                HLT
7A34: 0000                HLT
7A35: 0000                HLT
7A36: 0000                HLT
7A37: 0000                HLT
7A38: 0000                HLT
7A39: 0000                HLT
7A3A: 0000                HLT
7A3B: 0000                HLT
7A3C: 0000                HLT
7A3D: 0000                HLT
7A3E: 0000                HLT
7A3F: 0000                HLT
7A40: 0000                HLT
7A41: 0000                HLT
7A42: 0000                HLT
7A43: 0000                HLT
7A44: 0000                HLT
7A45: 0000                HLT
7A46: 0000                HLT
7A47: 0000                HLT
7A48: 0000                HLT
7A49: 0000                HLT
7A4A: 0000                HLT
7A4B: 0000                HLT
7A4C: 0000                HLT
7A4D: 0000                HLT
7A4E: 0000                HLT
7A4F: 0000                HLT
7A50: 0000                HLT
7A51: 0000                HLT
7A52: 0000                HLT
7A53: 0000                HLT
7A54: 0000                HLT
7A55: 0000                HLT
7A56: 0000                HLT
7A57: 0000                HLT
7A58: 0000                HLT
7A59: 0000                HLT
7A5A: 0000                HLT
7A5B: 0000                HLT
7A5C: 0000                HLT
7A5D: 0000                HLT
7A5E: 0000                HLT
7A5F: 0000                HLT
7A60: 0000                HLT
7A61: 0000                HLT
7A62: 0000                HLT
7A63: 0000                HLT
7A64: 0000                HLT
7A65: 0000                HLT
7A66: 0000                HLT
7A67: 0000                HLT
7A68: 0000                HLT
7A69: 0000                HLT
7A6A: 0000                HLT
7A6B: 0000                HLT
7A6C: 0000                HLT
7A6D: 0000                HLT
7A6E: 0000                HLT
7A6F: 0000                HLT
7A70: 0000                HLT
7A71: 0000                HLT
7A72: 0000                HLT
7A73: 0000                HLT
7A74: 0000                HLT
7A75: 0000                HLT
7A76: 0000                HLT
7A77: 0000                HLT
7A78: 0000                HLT
7A79: 0000                HLT
7A7A: 0000                HLT
7A7B: 0000                HLT
7A7C: 0000                HLT
7A7D: 0000                HLT
7A7E: 0000                HLT
7A7F: 0000                HLT
7A80: 0000                HLT
7A81: 0000                HLT
7A82: 0000                HLT
7A83: 0000                HLT
7A84: 0000                HLT
7A85: 0000                HLT
7A86: 0000                HLT
7A87: 0000                HLT
7A88: 0000                HLT
7A89: 0000                HLT
7A8A: 0000                HLT
7A8B: 0000                HLT
7A8C: 0000                HLT
7A8D: 0000                HLT
7A8E: 0000                HLT
7A8F: 0000                HLT
7A90: 0000                HLT
7A91: 0000                HLT
7A92: 0000                HLT
7A93: 0000                HLT
7A94: 0000                HLT
7A95: 0000                HLT
7A96: 0000                HLT
7A97: 0000                HLT
7A98: 0000                HLT
7A99: 0000                HLT
7A9A: 0000                HLT
7A9B: 0000                HLT
7A9C: 0000                HLT
7A9D: 0000                HLT
7A9E: 0000                HLT
7A9F: 0000                HLT
7AA0: 0000                HLT
7AA1: 0000                HLT
7AA2: 0000                HLT
7AA3: 0000                HLT
7AA4: 0000                HLT
7AA5: 0000                HLT
7AA6: 0000                HLT
7AA7: 0000                HLT
7AA8: 0000                HLT
7AA9: 0000                HLT
7AAA: 0000                HLT
7AAB: 0000                HLT
7AAC: 0000                HLT
7AAD: 0000                HLT
7AAE: 0000                HLT
7AAF: 0000                HLT
7AB0: 0000                HLT
7AB1: 0000                HLT
7AB2: 0000                HLT
7AB3: 0000                HLT
7AB4: 0000                HLT
7AB5: 0000                HLT
7AB6: 0000                HLT
7AB7: 0000                HLT
7AB8: 0000                HLT
7AB9: 0000                HLT
7ABA: 0000                HLT
7ABB: 0000                HLT
7ABC: 0000                HLT
7ABD: 0000                HLT
7ABE: 0000                HLT
7ABF: 0000                HLT
7AC0: 0000                HLT
7AC1: 0000                HLT
7AC2: 0000                HLT
7AC3: 0000                HLT
7AC4: 0000                HLT
7AC5: 0000                HLT
7AC6: 0000                HLT
7AC7: 0000                HLT
7AC8: 0000                HLT
7AC9: 0000                HLT
7ACA: 0000                HLT
7ACB: 0000                HLT
7ACC: 0000                HLT
7ACD: 0000                HLT
7ACE: 0000                HLT
7ACF: 0000                HLT
7AD0: 0000                HLT
7AD1: 0000                HLT
7AD2: 0000                HLT
7AD3: 0000                HLT
7AD4: 0000                HLT
7AD5: 0000                HLT
7AD6: 0000                HLT
7AD7: 0000                HLT
7AD8: 0000                HLT
7AD9: 0000                HLT
7ADA: 0000                HLT
7ADB: 0000                HLT
7ADC: 0000                HLT
7ADD: 0000                HLT
7ADE: 0000                HLT
7ADF: 0000                HLT
7AE0: 0000                HLT
7AE1: 0000                HLT
7AE2: 0000                HLT
7AE3: 0000                HLT
7AE4: 0000                HLT
7AE5: 0000                HLT
7AE6: 0000                HLT
7AE7: 0000                HLT
7AE8: 0000                HLT
7AE9: 0000                HLT
7AEA: 0000                HLT
7AEB: 0000                HLT
7AEC: 0000                HLT
7AED: 0000                HLT
7AEE: 0000                HLT
7AEF: 0000                HLT
7AF0: 0000                HLT
7AF1: 0000                HLT
7AF2: 0000                HLT
7AF3: 0000                HLT
7AF4: 0000                HLT
7AF5: 0000                HLT
7AF6: 0000                HLT
7AF7: 0000                HLT
7AF8: 0000                HLT
7AF9: 0000                HLT
7AFA: 0000                HLT
7AFB: 0000                HLT
7AFC: 0000                HLT
7AFD: 0000                HLT
7AFE: 0000                HLT
7AFF: 0000                HLT
7B00: 0000                HLT
7B01: 0000                HLT
7B02: 0000                HLT
7B03: 0000                HLT
7B04: 0000                HLT
7B05: 0000                HLT
7B06: 0000                HLT
7B07: 0000                HLT
7B08: 0000                HLT
7B09: 0000                HLT
7B0A: 0000                HLT
7B0B: 0000                HLT
7B0C: 0000                HLT
7B0D: 0000                HLT
7B0E: 0000                HLT
7B0F: 0000                HLT
7B10: 0000                HLT
7B11: 0000                HLT
7B12: 0000                HLT
7B13: 0000                HLT
7B14: 0000                HLT
7B15: 0000                HLT
7B16: 0000                HLT
7B17: 0000                HLT
7B18: 0000                HLT
7B19: 0000                HLT
7B1A: 0000                HLT
7B1B: 0000                HLT
7B1C: 0000                HLT
7B1D: 0000                HLT
7B1E: 0000                HLT
7B1F: 0000                HLT
7B20: 0000                HLT
7B21: 0000                HLT
7B22: 0000                HLT
7B23: 0000                HLT
7B24: 0000                HLT
7B25: 0000                HLT
7B26: 0000                HLT
7B27: 0000                HLT
7B28: 0000                HLT
7B29: 0000                HLT
7B2A: 0000                HLT
7B2B: 0000                HLT
7B2C: 0000                HLT
7B2D: 0000                HLT
7B2E: 0000                HLT
7B2F: 0000                HLT
7B30: 0000                HLT
7B31: 0000                HLT
7B32: 0000                HLT
7B33: 0000                HLT
7B34: 0000                HLT
7B35: 0000                HLT
7B36: 0000                HLT
7B37: 0000                HLT
7B38: 0000                HLT
7B39: 0000                HLT
7B3A: 0000                HLT
7B3B: 0000                HLT
7B3C: 0000                HLT
7B3D: 0000                HLT
7B3E: 0000                HLT
7B3F: 0000                HLT
7B40: 0000                HLT
7B41: 0000                HLT
7B42: 0000                HLT
7B43: 0000                HLT
7B44: 0000                HLT
7B45: 0000                HLT
7B46: 0000                HLT
7B47: 0000                HLT
7B48: 0000                HLT
7B49: 0000                HLT
7B4A: 0000                HLT
7B4B: 0000                HLT
7B4C: 0000                HLT
7B4D: 0000                HLT
7B4E: 0000                HLT
7B4F: 0000                HLT
7B50: 0000                HLT
7B51: 0000                HLT
7B52: 0000                HLT
7B53: 0000                HLT
7B54: 0000                HLT
7B55: 0000                HLT
7B56: 0000                HLT
7B57: 0000                HLT
7B58: 0000                HLT
7B59: 0000                HLT
7B5A: 0000                HLT
7B5B: 0000                HLT
7B5C: 0000                HLT
7B5D: 0000                HLT
7B5E: 0000                HLT
7B5F: 0000                HLT
7B60: 0000                HLT
7B61: 0000                HLT
7B62: 0000                HLT
7B63: 0000                HLT
7B64: 0000                HLT
7B65: 0000                HLT
7B66: 0000                HLT
7B67: 0000                HLT
7B68: 0000                HLT
7B69: 0000                HLT
7B6A: 0000                HLT
7B6B: 0000                HLT
7B6C: 0000                HLT
7B6D: 0000                HLT
7B6E: 0000                HLT
7B6F: 0000                HLT
7B70: 0000                HLT
7B71: 0000                HLT
7B72: 0000                HLT
7B73: 0000                HLT
7B74: 0000                HLT
7B75: 0000                HLT
7B76: 0000                HLT
7B77: 0000                HLT
7B78: 0000                HLT
7B79: 0000                HLT
7B7A: 0000                HLT
7B7B: 0000                HLT
7B7C: 0000                HLT
7B7D: 0000                HLT
7B7E: 0000                HLT
7B7F: 0000                HLT
7B80: 0000                HLT
7B81: 0000                HLT
7B82: 0000                HLT
7B83: 0000                HLT
7B84: 0000                HLT
7B85: 0000                HLT
7B86: 0000                HLT
7B87: 0000                HLT
7B88: 0000                HLT
7B89: 0000                HLT
7B8A: 0000                HLT
7B8B: 0000                HLT
7B8C: 0000                HLT
7B8D: 0000                HLT
7B8E: 0000                HLT
7B8F: 0000                HLT
7B90: 0000                HLT
7B91: 0000                HLT
7B92: 0000                HLT
7B93: 0000                HLT
7B94: 0000                HLT
7B95: 0000                HLT
7B96: 0000                HLT
7B97: 0000                HLT
7B98: 0000                HLT
7B99: 0000                HLT
7B9A: 0000                HLT
7B9B: 0000                HLT
7B9C: 0000                HLT
7B9D: 0000                HLT
7B9E: 0000                HLT
7B9F: 0000                HLT
7BA0: 0000                HLT
7BA1: 0000                HLT
7BA2: 0000                HLT
7BA3: 0000                HLT
7BA4: 0000                HLT
7BA5: 0000                HLT
7BA6: 0000                HLT
7BA7: 0000                HLT
7BA8: 0000                HLT
7BA9: 0000                HLT
7BAA: 0000                HLT
7BAB: 0000                HLT
7BAC: 0000                HLT
7BAD: 0000                HLT
7BAE: 0000                HLT
7BAF: 0000                HLT
7BB0: 0000                HLT
7BB1: 0000                HLT
7BB2: 0000                HLT
7BB3: 0000                HLT
7BB4: 0000                HLT
7BB5: 0000                HLT
7BB6: 0000                HLT
7BB7: 0000                HLT
7BB8: 0000                HLT
7BB9: 0000                HLT
7BBA: 0000                HLT
7BBB: 0000                HLT
7BBC: 0000                HLT
7BBD: 0000                HLT
7BBE: 0000                HLT
7BBF: 0000                HLT
7BC0: 0000                HLT
7BC1: 0000                HLT
7BC2: 0000                HLT
7BC3: 0000                HLT
7BC4: 0000                HLT
7BC5: 0000                HLT
7BC6: 0000                HLT
7BC7: 0000                HLT
7BC8: 0000                HLT
7BC9: 0000                HLT
7BCA: 0000                HLT
7BCB: 0000                HLT
7BCC: 0000                HLT
7BCD: 0000                HLT
7BCE: 0000                HLT
7BCF: 0000                HLT
7BD0: 0000                HLT
7BD1: 0000                HLT
7BD2: 0000                HLT
7BD3: 0000                HLT
7BD4: 0000                HLT
7BD5: 0000                HLT
7BD6: 0000                HLT
7BD7: 0000                HLT
7BD8: 0000                HLT
7BD9: 0000                HLT
7BDA: 0000                HLT
7BDB: 0000                HLT
7BDC: 0000                HLT
7BDD: 0000                HLT
7BDE: 0000                HLT
7BDF: 0000                HLT
7BE0: 0000                HLT
7BE1: 0000                HLT
7BE2: 0000                HLT
7BE3: 0000                HLT
7BE4: 0000                HLT
7BE5: 0000                HLT
7BE6: 0000                HLT
7BE7: 0000                HLT
7BE8: 0000                HLT
7BE9: 0000                HLT
7BEA: 0000                HLT
7BEB: 0000                HLT
7BEC: 0000                HLT
7BED: 0000                HLT
7BEE: 0000                HLT
7BEF: 0000                HLT
7BF0: 0000                HLT
7BF1: 0000                HLT
7BF2: 0000                HLT
7BF3: 0000                HLT
7BF4: 0000                HLT
7BF5: 0000                HLT
7BF6: 0000                HLT
7BF7: 0000                HLT
7BF8: 0000                HLT
7BF9: 0000                HLT
7BFA: 0000                HLT
7BFB: 0000                HLT
7BFC: 0000                HLT
7BFD: 0000                HLT
7BFE: 0000                HLT
7BFF: 0000                HLT
7C00: 0000                HLT
7C01: 0000                HLT
7C02: 0000                HLT
7C03: 0000                HLT
7C04: 0000                HLT
7C05: 0000                HLT
7C06: 0000                HLT
7C07: 0000                HLT
7C08: 0000                HLT
7C09: 0000                HLT
7C0A: 0000                HLT
7C0B: 0000                HLT
7C0C: 0000                HLT
7C0D: 0000                HLT
7C0E: 0000                HLT
7C0F: 0000                HLT
7C10: 0000                HLT
7C11: 0000                HLT
7C12: 0000                HLT
7C13: 0000                HLT
7C14: 0000                HLT
7C15: 0000                HLT
7C16: 0000                HLT
7C17: 0000                HLT
7C18: 0000                HLT
7C19: 0000                HLT
7C1A: 0000                HLT
7C1B: 0000                HLT
7C1C: 0000                HLT
7C1D: 0000                HLT
7C1E: 0000                HLT
7C1F: 0000                HLT
7C20: 0000                HLT
7C21: 0000                HLT
7C22: 0000                HLT
7C23: 0000                HLT
7C24: 0000                HLT
7C25: 0000                HLT
7C26: 0000                HLT
7C27: 0000                HLT
7C28: 0000                HLT
7C29: 0000                HLT
7C2A: 0000                HLT
7C2B: 0000                HLT
7C2C: 0000                HLT
7C2D: 0000                HLT
7C2E: 0000                HLT
7C2F: 0000                HLT
7C30: 0000                HLT
7C31: 0000                HLT
7C32: 0000                HLT
7C33: 0000                HLT
7C34: 0000                HLT
7C35: 0000                HLT
7C36: 0000                HLT
7C37: 0000                HLT
7C38: 0000                HLT
7C39: 0000                HLT
7C3A: 0000                HLT
7C3B: 0000                HLT
7C3C: 0000                HLT
7C3D: 0000                HLT
7C3E: 0000                HLT
7C3F: 0000                HLT
7C40: 0000                HLT
7C41: 0000                HLT
7C42: 0000                HLT
7C43: 0000                HLT
7C44: 0000                HLT
7C45: 0000                HLT
7C46: 0000                HLT
7C47: 0000                HLT
7C48: 0000                HLT
7C49: 0000                HLT
7C4A: 0000                HLT
7C4B: 0000                HLT
7C4C: 0000                HLT
7C4D: 0000                HLT
7C4E: 0000                HLT
7C4F: 0000                HLT
7C50: 0000                HLT
7C51: 0000                HLT
7C52: 0000                HLT
7C53: 0000                HLT
7C54: 0000                HLT
7C55: 0000                HLT
7C56: 0000                HLT
7C57: 0000                HLT
7C58: 0000                HLT
7C59: 0000                HLT
7C5A: 0000                HLT
7C5B: 0000                HLT
7C5C: 0000                HLT
7C5D: 0000                HLT
7C5E: 0000                HLT
7C5F: 0000                HLT
7C60: 0000                HLT
7C61: 0000                HLT
7C62: 0000                HLT
7C63: 0000                HLT
7C64: 0000                HLT
7C65: 0000                HLT
7C66: 0000                HLT
7C67: 0000                HLT
7C68: 0000                HLT
7C69: 0000                HLT
7C6A: 0000                HLT
7C6B: 0000                HLT
7C6C: 0000                HLT
7C6D: 0000                HLT
7C6E: 0000                HLT
7C6F: 0000                HLT
7C70: 0000                HLT
7C71: 0000                HLT
7C72: 0000                HLT
7C73: 0000                HLT
7C74: 0000                HLT
7C75: 0000                HLT
7C76: 0000                HLT
7C77: 0000                HLT
7C78: 0000                HLT
7C79: 0000                HLT
7C7A: 0000                HLT
7C7B: 0000                HLT
7C7C: 0000                HLT
7C7D: 0000                HLT
7C7E: 0000                HLT
7C7F: 0000                HLT
7C80: 0000                HLT
7C81: 0000                HLT
7C82: 0000                HLT
7C83: 0000                HLT
7C84: 0000                HLT
7C85: 0000                HLT
7C86: 0000                HLT
7C87: 0000                HLT
7C88: 0000                HLT
7C89: 0000                HLT
7C8A: 0000                HLT
7C8B: 0000                HLT
7C8C: 0000                HLT
7C8D: 0000                HLT
7C8E: 0000                HLT
7C8F: 0000                HLT
7C90: 0000                HLT
7C91: 0000                HLT
7C92: 0000                HLT
7C93: 0000                HLT
7C94: 0000                HLT
7C95: 0000                HLT
7C96: 0000                HLT
7C97: 0000                HLT
7C98: 0000                HLT
7C99: 0000                HLT
7C9A: 0000                HLT
7C9B: 0000                HLT
7C9C: 0000                HLT
7C9D: 0000                HLT
7C9E: 0000                HLT
7C9F: 0000                HLT
7CA0: 0000                HLT
7CA1: 0000                HLT
7CA2: 0000                HLT
7CA3: 0000                HLT
7CA4: 0000                HLT
7CA5: 0000                HLT
7CA6: 0000                HLT
7CA7: 0000                HLT
7CA8: 0000                HLT
7CA9: 0000                HLT
7CAA: 0000                HLT
7CAB: 0000                HLT
7CAC: 0000                HLT
7CAD: 0000                HLT
7CAE: 0000                HLT
7CAF: 0000                HLT
7CB0: 0000                HLT
7CB1: 0000                HLT
7CB2: 0000                HLT
7CB3: 0000                HLT
7CB4: 0000                HLT
7CB5: 0000                HLT
7CB6: 0000                HLT
7CB7: 0000                HLT
7CB8: 0000                HLT
7CB9: 0000                HLT
7CBA: 0000                HLT
7CBB: 0000                HLT
7CBC: 0000                HLT
7CBD: 0000                HLT
7CBE: 0000                HLT
7CBF: 0000                HLT
7CC0: 0000                HLT
7CC1: 0000                HLT
7CC2: 0000                HLT
7CC3: 0000                HLT
7CC4: 0000                HLT
7CC5: 0000                HLT
7CC6: 0000                HLT
7CC7: 0000                HLT
7CC8: 0000                HLT
7CC9: 0000                HLT
7CCA: 0000                HLT
7CCB: 0000                HLT
7CCC: 0000                HLT
7CCD: 0000                HLT
7CCE: 0000                HLT
7CCF: 0000                HLT
7CD0: 0000                HLT
7CD1: 0000                HLT
7CD2: 0000                HLT
7CD3: 0000                HLT
7CD4: 0000                HLT
7CD5: 0000                HLT
7CD6: 0000                HLT
7CD7: 0000                HLT
7CD8: 0000                HLT
7CD9: 0000                HLT
7CDA: 0000                HLT
7CDB: 0000                HLT
7CDC: 0000                HLT
7CDD: 0000                HLT
7CDE: 0000                HLT
7CDF: 0000                HLT
7CE0: 0000                HLT
7CE1: 0000                HLT
7CE2: 0000                HLT
7CE3: 0000                HLT
7CE4: 0000                HLT
7CE5: 0000                HLT
7CE6: 0000                HLT
7CE7: 0000                HLT
7CE8: 0000                HLT
7CE9: 0000                HLT
7CEA: 0000                HLT
7CEB: 0000                HLT
7CEC: 0000                HLT
7CED: 0000                HLT
7CEE: 0000                HLT
7CEF: 0000                HLT
7CF0: 0000                HLT
7CF1: 0000                HLT
7CF2: 0000                HLT
7CF3: 0000                HLT
7CF4: 0000                HLT
7CF5: 0000                HLT
7CF6: 0000                HLT
7CF7: 0000                HLT
7CF8: 0000                HLT
7CF9: 0000                HLT
7CFA: 0000                HLT
7CFB: 0000                HLT
7CFC: 0000                HLT
7CFD: 0000                HLT
7CFE: 0000                HLT
7CFF: 0000                HLT
7D00: 0000                HLT
7D01: 0000                HLT
7D02: 0000                HLT
7D03: 0000                HLT
7D04: 0000                HLT
7D05: 0000                HLT
7D06: 0000                HLT
7D07: 0000                HLT
7D08: 0000                HLT
7D09: 0000                HLT
7D0A: 0000                HLT
7D0B: 0000                HLT
7D0C: 0000                HLT
7D0D: 0000                HLT
7D0E: 0000                HLT
7D0F: 0000                HLT
7D10: 0000                HLT
7D11: 0000                HLT
7D12: 0000                HLT
7D13: 0000                HLT
7D14: 0000                HLT
7D15: 0000                HLT
7D16: 0000                HLT
7D17: 0000                HLT
7D18: 0000                HLT
7D19: 0000                HLT
7D1A: 0000                HLT
7D1B: 0000                HLT
7D1C: 0000                HLT
7D1D: 0000                HLT
7D1E: 0000                HLT
7D1F: 0000                HLT
7D20: 0000                HLT
7D21: 0000                HLT
7D22: 0000                HLT
7D23: 0000                HLT
7D24: 0000                HLT
7D25: 0000                HLT
7D26: 0000                HLT
7D27: 0000                HLT
7D28: 0000                HLT
7D29: 0000                HLT
7D2A: 0000                HLT
7D2B: 0000                HLT
7D2C: 0000                HLT
7D2D: 0000                HLT
7D2E: 0000                HLT
7D2F: 0000                HLT
7D30: 0000                HLT
7D31: 0000                HLT
7D32: 0000                HLT
7D33: 0000                HLT
7D34: 0000                HLT
7D35: 0000                HLT
7D36: 0000                HLT
7D37: 0000                HLT
7D38: 0000                HLT
7D39: 0000                HLT
7D3A: 0000                HLT
7D3B: 0000                HLT
7D3C: 0000                HLT
7D3D: 0000                HLT
7D3E: 0000                HLT
7D3F: 0000                HLT
7D40: 0000                HLT
7D41: 0000                HLT
7D42: 0000                HLT
7D43: 0000                HLT
7D44: 0000                HLT
7D45: 0000                HLT
7D46: 0000                HLT
7D47: 0000                HLT
7D48: 0000                HLT
7D49: 0000                HLT
7D4A: 0000                HLT
7D4B: 0000                HLT
7D4C: 0000                HLT
7D4D: 0000                HLT
7D4E: 0000                HLT
7D4F: 0000                HLT
7D50: 0000                HLT
7D51: 0000                HLT
7D52: 0000                HLT
7D53: 0000                HLT
7D54: 0000                HLT
7D55: 0000                HLT
7D56: 0000                HLT
7D57: 0000                HLT
7D58: 0000                HLT
7D59: 0000                HLT
7D5A: 0000                HLT
7D5B: 0000                HLT
7D5C: 0000                HLT
7D5D: 0000                HLT
7D5E: 0000                HLT
7D5F: 0000                HLT
7D60: 0000                HLT
7D61: 0000                HLT
7D62: 0000                HLT
7D63: 0000                HLT
7D64: 0000                HLT
7D65: 0000                HLT
7D66: 0000                HLT
7D67: 0000                HLT
7D68: 0000                HLT
7D69: 0000                HLT
7D6A: 0000                HLT
7D6B: 0000                HLT
7D6C: 0000                HLT
7D6D: 0000                HLT
7D6E: 0000                HLT
7D6F: 0000                HLT
7D70: 0000                HLT
7D71: 0000                HLT
7D72: 0000                HLT
7D73: 0000                HLT
7D74: 0000                HLT
7D75: 0000                HLT
7D76: 0000                HLT
7D77: 0000                HLT
7D78: 0000                HLT
7D79: 0000                HLT
7D7A: 0000                HLT
7D7B: 0000                HLT
7D7C: 0000                HLT
7D7D: 0000                HLT
7D7E: 0000                HLT
7D7F: 0000                HLT
7D80: 0000                HLT
7D81: 0000                HLT
7D82: 0000                HLT
7D83: 0000                HLT
7D84: 0000                HLT
7D85: 0000                HLT
7D86: 0000                HLT
7D87: 0000                HLT
7D88: 0000                HLT
7D89: 0000                HLT
7D8A: 0000                HLT
7D8B: 0000                HLT
7D8C: 0000                HLT
7D8D: 0000                HLT
7D8E: 0000                HLT
7D8F: 0000                HLT
7D90: 0000                HLT
7D91: 0000                HLT
7D92: 0000                HLT
7D93: 0000                HLT
7D94: 0000                HLT
7D95: 0000                HLT
7D96: 0000                HLT
7D97: 0000                HLT
7D98: 0000                HLT
7D99: 0000                HLT
7D9A: 0000                HLT
7D9B: 0000                HLT
7D9C: 0000                HLT
7D9D: 0000                HLT
7D9E: 0000                HLT
7D9F: 0000                HLT
7DA0: 0000                HLT
7DA1: 0000                HLT
7DA2: 0000                HLT
7DA3: 0000                HLT
7DA4: 0000                HLT
7DA5: 0000                HLT
7DA6: 0000                HLT
7DA7: 0000                HLT
7DA8: 0000                HLT
7DA9: 0000                HLT
7DAA: 0000                HLT
7DAB: 0000                HLT
7DAC: 0000                HLT
7DAD: 0000                HLT
7DAE: 0000                HLT
7DAF: 0000                HLT
7DB0: 0000                HLT
7DB1: 0000                HLT
7DB2: 0000                HLT
7DB3: 0000                HLT
7DB4: 0000                HLT
7DB5: 0000                HLT
7DB6: 0000                HLT
7DB7: 0000                HLT
7DB8: 0000                HLT
7DB9: 0000                HLT
7DBA: 0000                HLT
7DBB: 0000                HLT
7DBC: 0000                HLT
7DBD: 0000                HLT
7DBE: 0000                HLT
7DBF: 0000                HLT
7DC0: 0000                HLT
7DC1: 0000                HLT
7DC2: 0000                HLT
7DC3: 0000                HLT
7DC4: 0000                HLT
7DC5: 0000                HLT
7DC6: 0000                HLT
7DC7: 0000                HLT
7DC8: 0000                HLT
7DC9: 0000                HLT
7DCA: 0000                HLT
7DCB: 0000                HLT
7DCC: 0000                HLT
7DCD: 0000                HLT
7DCE: 0000                HLT
7DCF: 0000                HLT
7DD0: 0000                HLT
7DD1: 0000                HLT
7DD2: 0000                HLT
7DD3: 0000                HLT
7DD4: 0000                HLT
7DD5: 0000                HLT
7DD6: 0000                HLT
7DD7: 0000                HLT
7DD8: 0000                HLT
7DD9: 0000                HLT
7DDA: 0000                HLT
7DDB: 0000                HLT
7DDC: 0000                HLT
7DDD: 0000                HLT
7DDE: 0000                HLT
7DDF: 0000                HLT
7DE0: 0000                HLT
7DE1: 0000                HLT
7DE2: 0000                HLT
7DE3: 0000                HLT
7DE4: 0000                HLT
7DE5: 0000                HLT
7DE6: 0000                HLT
7DE7: 0000                HLT
7DE8: 0000                HLT
7DE9: 0000                HLT
7DEA: 0000                HLT
7DEB: 0000                HLT
7DEC: 0000                HLT
7DED: 0000                HLT
7DEE: 0000                HLT
7DEF: 0000                HLT
7DF0: 0000                HLT
7DF1: 0000                HLT
7DF2: 0000                HLT
7DF3: 0000                HLT
7DF4: 0000                HLT
7DF5: 0000                HLT
7DF6: 0000                HLT
7DF7: 0000                HLT
7DF8: 0000                HLT
7DF9: 0000                HLT
7DFA: 0000                HLT
7DFB: 0000                HLT
7DFC: 0000                HLT
7DFD: 0000                HLT
7DFE: 0000                HLT
7DFF: 0000                HLT
7E00: 0000                HLT
7E01: 0000                HLT
7E02: 0000                HLT
7E03: 0000                HLT
7E04: 0000                HLT
7E05: 0000                HLT
7E06: 0000                HLT
7E07: 0000                HLT
7E08: 0000                HLT
7E09: 0000                HLT
7E0A: 0000                HLT
7E0B: 0000                HLT
7E0C: 0000                HLT
7E0D: 0000                HLT
7E0E: 0000                HLT
7E0F: 0000                HLT
7E10: 0000                HLT
7E11: 0000                HLT
7E12: 0000                HLT
7E13: 0000                HLT
7E14: 0000                HLT
7E15: 0000                HLT
7E16: 0000                HLT
7E17: 0000                HLT
7E18: 0000                HLT
7E19: 0000                HLT
7E1A: 0000                HLT
7E1B: 0000                HLT
7E1C: 0000                HLT
7E1D: 0000                HLT
7E1E: 0000                HLT
7E1F: 0000                HLT
7E20: 0000                HLT
7E21: 0000                HLT
7E22: 0000                HLT
7E23: 0000                HLT
7E24: 0000                HLT
7E25: 0000                HLT
7E26: 0000                HLT
7E27: 0000                HLT
7E28: 0000                HLT
7E29: 0000                HLT
7E2A: 0000                HLT
7E2B: 0000                HLT
7E2C: 0000                HLT
7E2D: 0000                HLT
7E2E: 0000                HLT
7E2F: 0000                HLT
7E30: 0000                HLT
7E31: 0000                HLT
7E32: 0000                HLT
7E33: 0000                HLT
7E34: 0000                HLT
7E35: 0000                HLT
7E36: 0000                HLT
7E37: 0000                HLT
7E38: 0000                HLT
7E39: 0000                HLT
7E3A: 0000                HLT
7E3B: 0000                HLT
7E3C: 0000                HLT
7E3D: 0000                HLT
7E3E: 0000                HLT
7E3F: 0000                HLT
7E40: 0000                HLT
7E41: 0000                HLT
7E42: 0000                HLT
7E43: 0000                HLT
7E44: 0000                HLT
7E45: 0000                HLT
7E46: 0000                HLT
7E47: 0000                HLT
7E48: 0000                HLT
7E49: 0000                HLT
7E4A: 0000                HLT
7E4B: 0000                HLT
7E4C: 0000                HLT
7E4D: 0000                HLT
7E4E: 0000                HLT
7E4F: 0000                HLT
7E50: 0000                HLT
7E51: 0000                HLT
7E52: 0000                HLT
7E53: 0000                HLT
7E54: 0000                HLT
7E55: 0000                HLT
7E56: 0000                HLT
7E57: 0000                HLT
7E58: 0000                HLT
7E59: 0000                HLT
7E5A: 0000                HLT
7E5B: 0000                HLT
7E5C: 0000                HLT
7E5D: 0000                HLT
7E5E: 0000                HLT
7E5F: 0000                HLT
7E60: 0000                HLT
7E61: 0000                HLT
7E62: 0000                HLT
7E63: 0000                HLT
7E64: 0000                HLT
7E65: 0000                HLT
7E66: 0000                HLT
7E67: 0000                HLT
7E68: 0000                HLT
7E69: 0000                HLT
7E6A: 0000                HLT
7E6B: 0000                HLT
7E6C: 0000                HLT
7E6D: 0000                HLT
7E6E: 0000                HLT
7E6F: 0000                HLT
7E70: 0000                HLT
7E71: 0000                HLT
7E72: 0000                HLT
7E73: 0000                HLT
7E74: 0000                HLT
7E75: 0000                HLT
7E76: 0000                HLT
7E77: 0000                HLT
7E78: 0000                HLT
7E79: 0000                HLT
7E7A: 0000                HLT
7E7B: 0000                HLT
7E7C: 0000                HLT
7E7D: 0000                HLT
7E7E: 0000                HLT
7E7F: 0000                HLT
7E80: 0000                HLT
7E81: 0000                HLT
7E82: 0000                HLT
7E83: 0000                HLT
7E84: 0000                HLT
7E85: 0000                HLT
7E86: 0000                HLT
7E87: 0000                HLT
7E88: 0000                HLT
7E89: 0000                HLT
7E8A: 0000                HLT
7E8B: 0000                HLT
7E8C: 0000                HLT
7E8D: 0000                HLT
7E8E: 0000                HLT
7E8F: 0000                HLT
7E90: 0000                HLT
7E91: 0000                HLT
7E92: 0000                HLT
7E93: 0000                HLT
7E94: 0000                HLT
7E95: 0000                HLT
7E96: 0000                HLT
7E97: 0000                HLT
7E98: 0000                HLT
7E99: 0000                HLT
7E9A: 0000                HLT
7E9B: 0000                HLT
7E9C: 0000                HLT
7E9D: 0000                HLT
7E9E: 0000                HLT
7E9F: 0000                HLT
7EA0: 0000                HLT
7EA1: 0000                HLT
7EA2: 0000                HLT
7EA3: 0000                HLT
7EA4: 0000                HLT
7EA5: 0000                HLT
7EA6: 0000                HLT
7EA7: 0000                HLT
7EA8: 0000                HLT
7EA9: 0000                HLT
7EAA: 0000                HLT
7EAB: 0000                HLT
7EAC: 0000                HLT
7EAD: 0000                HLT
7EAE: 0000                HLT
7EAF: 0000                HLT
7EB0: 0000                HLT
7EB1: 0000                HLT
7EB2: 0000                HLT
7EB3: 0000                HLT
7EB4: 0000                HLT
7EB5: 0000                HLT
7EB6: 0000                HLT
7EB7: 0000                HLT
7EB8: 0000                HLT
7EB9: 0000                HLT
7EBA: 0000                HLT
7EBB: 0000                HLT
7EBC: 0000                HLT
7EBD: 0000                HLT
7EBE: 0000                HLT
7EBF: 0000                HLT
7EC0: 0000                HLT
7EC1: 0000                HLT
7EC2: 0000                HLT
7EC3: 0000                HLT
7EC4: 0000                HLT
7EC5: 0000                HLT
7EC6: 0000                HLT
7EC7: 0000                HLT
7EC8: 0000                HLT
7EC9: 0000                HLT
7ECA: 0000                HLT
7ECB: 0000                HLT
7ECC: 0000                HLT
7ECD: 0000                HLT
7ECE: 0000                HLT
7ECF: 0000                HLT
7ED0: 0000                HLT
7ED1: 0000                HLT
7ED2: 0000                HLT
7ED3: 0000                HLT
7ED4: 0000                HLT
7ED5: 0000                HLT
7ED6: 0000                HLT
7ED7: 0000                HLT
7ED8: 0000                HLT
7ED9: 0000                HLT
7EDA: 0000                HLT
7EDB: 0000                HLT
7EDC: 0000                HLT
7EDD: 0000                HLT
7EDE: 0000                HLT
7EDF: 0000                HLT
7EE0: 0000                HLT
7EE1: 0000                HLT
7EE2: 0000                HLT
7EE3: 0000                HLT
7EE4: 0000                HLT
7EE5: 0000                HLT
7EE6: 0000                HLT
7EE7: 0000                HLT
7EE8: 0000                HLT
7EE9: 0000                HLT
7EEA: 0000                HLT
7EEB: 0000                HLT
7EEC: 0000                HLT
7EED: 0000                HLT
7EEE: 0000                HLT
7EEF: 0000                HLT
7EF0: 0000                HLT
7EF1: 0000                HLT
7EF2: 0000                HLT
7EF3: 0000                HLT
7EF4: 0000                HLT
7EF5: 0000                HLT
7EF6: 0000                HLT
7EF7: 0000                HLT
7EF8: 0000                HLT
7EF9: 0000                HLT
7EFA: 0000                HLT
7EFB: 0000                HLT
7EFC: 0000                HLT
7EFD: 0000                HLT
7EFE: 0000                HLT
7EFF: 0000                HLT
7F00: 0000                HLT
7F01: 0000                HLT
7F02: 0000                HLT
7F03: 0000                HLT
7F04: 0000                HLT
7F05: 0000                HLT
7F06: 0000                HLT
7F07: 0000                HLT
7F08: 0000                HLT
7F09: 0000                HLT
7F0A: 0000                HLT
7F0B: 0000                HLT
7F0C: 0000                HLT
7F0D: 0000                HLT
7F0E: 0000                HLT
7F0F: 0000                HLT
7F10: 0000                HLT
7F11: 0000                HLT
7F12: 0000                HLT
7F13: 0000                HLT
7F14: 0000                HLT
7F15: 0000                HLT
7F16: 0000                HLT
7F17: 0000                HLT
7F18: 0000                HLT
7F19: 0000                HLT
7F1A: 0000                HLT
7F1B: 0000                HLT
7F1C: 0000                HLT
7F1D: 0000                HLT
7F1E: 0000                HLT
7F1F: 0000                HLT
7F20: 0000                HLT
7F21: 0000                HLT
7F22: 0000                HLT
7F23: 0000                HLT
7F24: 0000                HLT
7F25: 0000                HLT
7F26: 0000                HLT
7F27: 0000                HLT
7F28: 0000                HLT
7F29: 0000                HLT
7F2A: 0000                HLT
7F2B: 0000                HLT
7F2C: 0000                HLT
7F2D: 0000                HLT
7F2E: 0000                HLT
7F2F: 0000                HLT
7F30: 0000                HLT
7F31: 0000                HLT
7F32: 0000                HLT
7F33: 0000                HLT
7F34: 0000                HLT
7F35: 0000                HLT
7F36: 0000                HLT
7F37: 0000                HLT
7F38: 0000                HLT
7F39: 0000                HLT
7F3A: 0000                HLT
7F3B: 0000                HLT
7F3C: 0000                HLT
7F3D: 0000                HLT
7F3E: 0000                HLT
7F3F: 0000                HLT
7F40: 0000                HLT
7F41: 0000                HLT
7F42: 0000                HLT
7F43: 0000                HLT
7F44: 0000                HLT
7F45: 0000                HLT
7F46: 0000                HLT
7F47: 0000                HLT
7F48: 0000                HLT
7F49: 0000                HLT
7F4A: 0000                HLT
7F4B: 0000                HLT
7F4C: 0000                HLT
7F4D: 0000                HLT
7F4E: 0000                HLT
7F4F: 0000                HLT
7F50: 0000                HLT
7F51: 0000                HLT
7F52: 0000                HLT
7F53: 0000                HLT
7F54: 0000                HLT
7F55: 0000                HLT
7F56: 0000                HLT
7F57: 0000                HLT
7F58: 0000                HLT
7F59: 0000                HLT
7F5A: 0000                HLT
7F5B: 0000                HLT
7F5C: 0000                HLT
7F5D: 0000                HLT
7F5E: 0000                HLT
7F5F: 0000                HLT
7F60: 0000                HLT
7F61: 0000                HLT
7F62: 0000                HLT
7F63: 0000                HLT
7F64: 0000                HLT
7F65: 0000                HLT
7F66: 0000                HLT
7F67: 0000                HLT
7F68: 0000                HLT
7F69: 0000                HLT
7F6A: 0000                HLT
7F6B: 0000                HLT
7F6C: 0000                HLT
7F6D: 0000                HLT
7F6E: 0000                HLT
7F6F: 0000                HLT
7F70: 0000                HLT
7F71: 0000                HLT
7F72: 0000                HLT
7F73: 0000                HLT
7F74: 0000                HLT
7F75: 0000                HLT
7F76: 0000                HLT
7F77: 0000                HLT
7F78: 0000                HLT
7F79: 0000                HLT
7F7A: 0000                HLT
7F7B: 0000                HLT
7F7C: 0000                HLT
7F7D: 0000                HLT
7F7E: 0000                HLT
7F7F: 0000                HLT
7F80: 0000                HLT
7F81: 0000                HLT
7F82: 0000                HLT
7F83: 0000                HLT
7F84: 0000                HLT
7F85: 0000                HLT
7F86: 0000                HLT
7F87: 0000                HLT
7F88: 0000                HLT
7F89: 0000                HLT
7F8A: 0000                HLT
7F8B: 0000                HLT
7F8C: 0000                HLT
7F8D: 0000                HLT
7F8E: 0000                HLT
7F8F: 0000                HLT
7F90: 0000                HLT
7F91: 0000                HLT
7F92: 0000                HLT
7F93: 0000                HLT
7F94: 0000                HLT
7F95: 0000                HLT
7F96: 0000                HLT
7F97: 0000                HLT
7F98: 0000                HLT
7F99: 0000                HLT
7F9A: 0000                HLT
7F9B: 0000                HLT
7F9C: 0000                HLT
7F9D: 0000                HLT
7F9E: 0000                HLT
7F9F: 0000                HLT
7FA0: 0000                HLT
7FA1: 0000                HLT
7FA2: 0000                HLT
7FA3: 0000                HLT
7FA4: 0000                HLT
7FA5: 0000                HLT
7FA6: 0000                HLT
7FA7: 0000                HLT
7FA8: 0000                HLT
7FA9: 0000                HLT
7FAA: 0000                HLT
7FAB: 0000                HLT
7FAC: 0000                HLT
7FAD: 0000                HLT
7FAE: 0000                HLT
7FAF: 0000                HLT
7FB0: 0000                HLT
7FB1: 0000                HLT
7FB2: 0000                HLT
7FB3: 0000                HLT
7FB4: 0000                HLT
7FB5: 0000                HLT
7FB6: 0000                HLT
7FB7: 0000                HLT
7FB8: 0000                HLT
7FB9: 0000                HLT
7FBA: 0000                HLT
7FBB: 0000                HLT
7FBC: 0000                HLT
7FBD: 0000                HLT
7FBE: 0000                HLT
7FBF: 0000                HLT
7FC0: 0000                HLT
7FC1: 0000                HLT
7FC2: 0000                HLT
7FC3: 0000                HLT
7FC4: 0000                HLT
7FC5: 0000                HLT
7FC6: 0000                HLT
7FC7: 0000                HLT
7FC8: 0000                HLT
7FC9: 0000                HLT
7FCA: 0000                HLT
7FCB: 0000                HLT
7FCC: 0000                HLT
7FCD: 0000                HLT
7FCE: 0000                HLT
7FCF: 0000                HLT
7FD0: 0000                HLT
7FD1: 0000                HLT
7FD2: 0000                HLT
7FD3: 0000                HLT
7FD4: 0000                HLT
7FD5: 0000                HLT
7FD6: 0000                HLT
7FD7: 0000                HLT
7FD8: 0000                HLT
7FD9: 0000                HLT
7FDA: 0000                HLT
7FDB: 0000                HLT
7FDC: 0000                HLT
7FDD: 0000                HLT
7FDE: 0000                HLT
7FDF: 0000                HLT
7FE0: 0000                HLT
7FE1: 0000                HLT
7FE2: 0000                HLT
7FE3: 0000                HLT
7FE4: 0000                HLT
7FE5: 0000                HLT
7FE6: 0000                HLT
7FE7: 0000                HLT
7FE8: 0000                HLT
7FE9: 0000                HLT
7FEA: 0000                HLT
7FEB: 0000                HLT
7FEC: 0000                HLT
7FED: 0000                HLT
7FEE: 0000                HLT
7FEF: 0000                HLT
7FF0: 0000                HLT
7FF1: 0000                HLT
7FF2: 0000                HLT
7FF3: 0000                HLT
7FF4: 0000                HLT
7FF5: 0000                HLT
7FF6: 0000                HLT
7FF7: 0000                HLT
7FF8: 0000                HLT
7FF9: 0000                HLT
7FFA: 0000                HLT
7FFB: 0000                HLT
7FFC: 0000                HLT
7FFD: 0000                HLT
7FFE: 0000                HLT
7FFF: 0000                HLT'\n'
